 sdf_demo

 Timestamp is 5fdb85ff (Thu Dec 17 11:23:27 2020)

 Preferred load address is 0000000140000000

 Start         Length     Name                   Class
 0001:00000000 00037b10H .text$mn                CODE
 0001:00037b10 00000020H .text$mn$00             CODE
 0001:00037b30 0000066dH .text$x                 CODE
 0002:00000000 000002e0H .idata$5                DATA
 0002:000002e0 00000010H .00cfg                  DATA
 0002:000002f0 00000008H .CRT$XCA                DATA
 0002:000002f8 00000008H .CRT$XCAA               DATA
 0002:00000300 00000008H .CRT$XCZ                DATA
 0002:00000308 00000008H .CRT$XIA                DATA
 0002:00000310 00000008H .CRT$XIAA               DATA
 0002:00000318 00000008H .CRT$XIAC               DATA
 0002:00000320 00000020H .CRT$XIC                DATA
 0002:00000340 00000008H .CRT$XIZ                DATA
 0002:00000348 00000008H .CRT$XPA                DATA
 0002:00000350 00000010H .CRT$XPX                DATA
 0002:00000360 00000008H .CRT$XPXA               DATA
 0002:00000368 00000008H .CRT$XPZ                DATA
 0002:00000370 00000008H .CRT$XTA                DATA
 0002:00000378 00000008H .CRT$XTZ                DATA
 0002:00000380 00000000H .gfids$y                DATA
 0002:00000380 00010760H .rdata                  DATA
 0002:00010ae0 0000016cH .rdata$r                DATA
 0002:00010c4c 00000314H .rdata$zzzdbg           DATA
 0002:00010f60 00000008H .rtc$IAA                DATA
 0002:00010f68 00000008H .rtc$IZZ                DATA
 0002:00010f70 00000008H .rtc$TAA                DATA
 0002:00010f78 00000008H .rtc$TZZ                DATA
 0002:00010f80 00001090H .xdata                  DATA
 0002:00012010 00000084H .xdata$x                DATA
 0002:00012094 00000000H .edata                  DATA
 0002:00012094 00000028H .idata$2                DATA
 0002:000120bc 00000014H .idata$3                DATA
 0002:000120d0 000002e0H .idata$4                DATA
 0002:000123b0 0000068cH .idata$6                DATA
 0003:00000000 00000a50H .data                   DATA
 0003:00000a50 00000070H .data$r                 DATA
 0003:00000ac0 00001900H .bss                    DATA
 0004:00000000 00002db4H .pdata                  DATA

  Address         Publics by Value              Rva+Base               Lib:Object

 0000:00000000       __guard_longjmp_count      0000000000000000     <absolute>
 0000:00000000       __guard_fids_count         0000000000000000     <absolute>
 0000:00000000       __hybrid_code_map_count    0000000000000000     <absolute>
 0000:00000000       __guard_iat_table          0000000000000000     <absolute>
 0000:00000000       __hybrid_code_map          0000000000000000     <absolute>
 0000:00000000       __guard_iat_count          0000000000000000     <absolute>
 0000:00000000       __guard_longjmp_table      0000000000000000     <absolute>
 0000:00000000       __volatile_metadata        0000000000000000     <absolute>
 0000:00000000       __enclave_config           0000000000000000     <absolute>
 0000:00000000       ___safe_se_handler_count   0000000000000000     <absolute>
 0000:00000000       ___safe_se_handler_table   0000000000000000     <absolute>
 0000:00000000       __guard_fids_table         0000000000000000     <absolute>
 0000:00000000       __hybrid_auxiliary_iat     0000000000000000     <absolute>
 0000:00000000       __dynamic_value_reloc_table 0000000000000000     <absolute>
 0000:00000100       __guard_flags              0000000000000100     <absolute>
 0000:00000000       __ImageBase                0000000140000000     <linker-defined>
 0001:00000000       WinMain                    0000000140001000 f   win32_main.obj
 0001:000006d0       ?V2i@@YA?ATv2i@@HH@Z       00000001400016d0 f i win32_main.obj
 0001:00000710       ?Win32GetClock@@YA?AT_LARGE_INTEGER@@XZ 0000000140001710 f i win32_main.obj
 0001:00000730       ?Win32GetLastFileTime@@YA?AU_FILETIME@@PEAD@Z 0000000140001730 f i win32_main.obj
 0001:000007a0       ?Win32LoadDemoCode@@YAXPEAUprog_demo_code@@@Z 00000001400017a0 f i win32_main.obj
 0001:00000970       __GSHandlerCheck           0000000140001970 f   LIBCMTD:gshandler.obj
 0001:000009b0       __GSHandlerCheckCommon     00000001400019b0 f   LIBCMTD:gshandler.obj
 0001:00000ac0       __security_check_cookie    0000000140001ac0 f   LIBCMTD:amdsecgs.obj
 0001:00000da0       ?configure_argv@__scrt_narrow_argv_policy@@SAHXZ 0000000140001da0 f i LIBCMTD:exe_winmain.obj
 0001:00000dc0       ?initialize_environment@__scrt_narrow_environment_policy@@SAHXZ 0000000140001dc0 f i LIBCMTD:exe_winmain.obj
 0001:00000e10       ?set_app_type@__scrt_winmain_policy@@SAXXZ 0000000140001e10 f i LIBCMTD:exe_winmain.obj
 0001:00000e30       ?set_commode@__scrt_file_policy@@SAXXZ 0000000140001e30 f i LIBCMTD:exe_winmain.obj
 0001:00000e50       ?set_fmode@__scrt_file_policy@@SAXXZ 0000000140001e50 f i LIBCMTD:exe_winmain.obj
 0001:00000e70       WinMainCRTStartup          0000000140001e70 f   LIBCMTD:exe_winmain.obj
 0001:00000e80       __raise_securityfailure    0000000140001e80 f   LIBCMTD:gs_report.obj
 0001:00000ec0       __report_gsfailure         0000000140001ec0 f   LIBCMTD:gs_report.obj
 0001:00000fa0       __report_rangecheckfailure 0000000140001fa0 f   LIBCMTD:gs_report.obj
 0001:00000fc0       __report_securityfailure   0000000140001fc0 f   LIBCMTD:gs_report.obj
 0001:000011c0       ??$__crt_fast_decode_pointer@P6AXPEAXK0@Z@@YAP6AXPEAXK0@ZQ6AX0K0@Z@Z 00000001400021c0 f i libucrtd:exit.obj
 0001:000011c0       ??$__crt_fast_decode_pointer@PEAP6AXXZ@@YAPEAP6AXXZQEAP6AXXZ@Z 00000001400021c0 f i LIBCMTD:utility.obj
 0001:000011c0       ??$__crt_fast_decode_pointer@P6AXXZ@@YAP6AXXZQ6AXXZ@Z 00000001400021c0 f i libvcruntimed:purevirt.obj
 0001:000011c0       ??$__crt_fast_decode_pointer@P6AXH@Z@@YAP6AXH@ZQ6AXH@Z@Z 00000001400021c0 f i libucrtd:signal.obj
 0001:000011c0       ??$__crt_fast_decode_pointer@P6AHPEAU_exception@@@Z@@YAP6AHPEAU_exception@@@ZQ6AH0@Z@Z 00000001400021c0 f i libucrtd:matherr.obj
 0001:000011c0       ??$__crt_fast_decode_pointer@PEAX@@YAPEAXQEAX@Z 00000001400021c0 f i libvcruntimed:winapi_downlevel.obj
 0001:000011c0       ??$__crt_fast_decode_pointer@P6AXPEB_W00I_K@Z@@YAP6AXPEB_W00I_K@ZQ6AX000I1@Z@Z 00000001400021c0 f i libucrtd:invalid_parameter.obj
 0001:000011c0       ??$__crt_fast_decode_pointer@P6AH_K@Z@@YAP6AH_K@ZQ6AH0@Z@Z 00000001400021c0 f i libucrtd:new_handler.obj
 0001:00001200       ??$__crt_fast_encode_pointer@PEAX@@YAPEAXQEAX@Z 0000000140002200 f i libvcruntimed:winapi_downlevel.obj
 0001:00001200       ??$__crt_fast_encode_pointer@P6AHXZ@@YAP6AHXZQ6AHXZ@Z 0000000140002200 f i libucrtd:onexit.obj
 0001:00001200       ??$__crt_fast_encode_pointer@P6AHPEAU_exception@@@Z@@YAP6AHPEAU_exception@@@ZQ6AH0@Z@Z 0000000140002200 f i libucrtd:matherr.obj
 0001:00001200       ??$__crt_fast_encode_pointer@P6AXPEAXK0@Z@@YAP6AXPEAXK0@ZQ6AX0K0@Z@Z 0000000140002200 f i libucrtd:exit.obj
 0001:00001200       ??$__crt_fast_encode_pointer@P6AXH@Z@@YAP6AXH@ZQ6AXH@Z@Z 0000000140002200 f i libucrtd:signal.obj
 0001:00001200       ??$__crt_fast_encode_pointer@PEAP6AXXZ@@YAPEAP6AXXZQEAP6AXXZ@Z 0000000140002200 f i LIBCMTD:utility.obj
 0001:00001200       ??$__crt_fast_encode_pointer@P6AXXZ@@YAP6AXXZQ6AXXZ@Z 0000000140002200 f i libvcruntimed:purevirt_data.obj
 0001:00001240       ?__crt_rotate_pointer_value@@YA_K_KH@Z 0000000140002240 f i LIBCMTD:utility.obj
 0001:000013c0       NtCurrentTeb               00000001400023c0 f i LIBCMTD:utility.obj
 0001:000013d0       __scrt_acquire_startup_lock 00000001400023d0 f   LIBCMTD:utility.obj
 0001:00001440       __scrt_initialize_crt      0000000140002440 f   LIBCMTD:utility.obj
 0001:00001490       __scrt_initialize_onexit_tables 0000000140002490 f   LIBCMTD:utility.obj
 0001:000015a0       __scrt_is_nonwritable_in_current_image 00000001400025a0 f   LIBCMTD:utility.obj
 0001:00001630       __scrt_release_startup_lock 0000000140002630 f   LIBCMTD:utility.obj
 0001:00001660       __scrt_uninitialize_crt    0000000140002660 f   LIBCMTD:utility.obj
 0001:000016a0       _onexit                    00000001400026a0 f   LIBCMTD:utility.obj
 0001:00001730       atexit                     0000000140002730 f   LIBCMTD:utility.obj
 0001:00001830       __security_init_cookie     0000000140002830 f   LIBCMTD:gs_support.obj
 0001:000018b0       ?get_current_state_index@__crt_state_management@@YA_KAEBV__crt_scoped_get_last_error_reset@@@Z 00000001400028b0 f   libucrtd:per_thread_data.obj
 0001:000018b0       _matherr                   00000001400028b0 f   LIBCMTD:matherr.obj
 0001:000018c0       _get_startup_argv_mode     00000001400028c0 f   LIBCMTD:argv_mode.obj
 0001:000018d0       ?get_invalid_value@__crt_hmodule_traits@@SAPEAUHINSTANCE__@@XZ 00000001400028d0 f   libucrtd:exit.obj
 0001:000018d0       __scrt_stub_for_initialize_mta 00000001400028d0 f   LIBCMTD:utility_desktop.obj
 0001:000018d0       ?get_current_state_index@__crt_state_management@@YA_KXZ 00000001400028d0 f   libucrtd:matherr.obj
 0001:000018d0       _get_startup_thread_locale_mode 00000001400028d0 f   LIBCMTD:thread_locale.obj
 0001:000018d0       _get_startup_commit_mode   00000001400028d0 f   LIBCMTD:commit_mode.obj
 0001:000018d0       _get_startup_new_mode      00000001400028d0 f   LIBCMTD:new_mode.obj
 0001:000018d0       __scrt_initialize_winrt    00000001400028d0 f   LIBCMTD:utility_desktop.obj
 0001:000018d0       __scrt_exe_initialize_mta  00000001400028d0 f   LIBCMTD:utility_desktop.obj
 0001:000018e0       _get_startup_file_mode     00000001400028e0 f   LIBCMTD:file_mode.obj
 0001:000018f0       ?__scrt_initialize_type_info@@YAXXZ 00000001400028f0 f   LIBCMTD:tncleanup.obj
 0001:00001910       _should_initialize_environment 0000000140002910 f   LIBCMTD:env_mode.obj
 0001:00001920       _initialize_denormal_control 0000000140002920 f   LIBCMTD:denormal_control.obj
 0001:00001920       _initialize_invalid_parameter_handler 0000000140002920 f   LIBCMTD:invalid_parameter_handler.obj
 0001:00001930       __local_stdio_printf_options 0000000140002930 f i LIBCMTD:default_local_stdio_options.obj
 0001:00001940       __local_stdio_scanf_options 0000000140002940 f i LIBCMTD:default_local_stdio_options.obj
 0001:00001950       __scrt_initialize_default_local_stdio_options 0000000140002950 f   LIBCMTD:default_local_stdio_options.obj
 0001:000019a0       __scrt_is_user_matherr_present 00000001400029a0 f   LIBCMTD:matherr_detection.obj
 0001:000019d0       __scrt_get_dyn_tls_init_callback 00000001400029d0 f   LIBCMTD:dyn_tls_init.obj
 0001:000019e0       __scrt_get_dyn_tls_dtor_callback 00000001400029e0 f   LIBCMTD:dyn_tls_dtor.obj
 0001:000019f0       __crt_debugger_hook        00000001400029f0 f   LIBCMTD:utility_desktop.obj
 0001:00001a00       __scrt_fastfail            0000000140002a00 f   LIBCMTD:utility_desktop.obj
 0001:00001ba0       __scrt_get_show_window_mode 0000000140002ba0 f   LIBCMTD:utility_desktop.obj
 0001:00001c00       __scrt_initialize_mta      0000000140002c00 f   LIBCMTD:utility_desktop.obj
 0001:00001c10       __scrt_is_managed_app      0000000140002c10 f   LIBCMTD:utility_desktop.obj
 0001:00001cc0       __scrt_set_unhandled_exception_filter 0000000140002cc0 f   LIBCMTD:utility_desktop.obj
 0001:00001ce0       __scrt_unhandled_exception_filter 0000000140002ce0 f   LIBCMTD:utility_desktop.obj
 0001:00001d60       _RTC_Initialize            0000000140002d60 f   LIBCMTD:initsect.obj
 0001:00001db0       _RTC_Terminate             0000000140002db0 f   LIBCMTD:initsect.obj
 0001:00001e00       ??1?$__crt_simd_cleanup_guard@$0A@@@QEAA@XZ 0000000140002e00 f i libucrtd:strnlen.obj
 0001:00001e00       ??1scoped_global_state_reset@__crt_state_management@@QEAA@XZ 0000000140002e00 f i libucrtd:onexit.obj
 0001:00001e00       _guard_check_icall_nop     0000000140002e00 f i LIBCMTD:guard_support.obj
 0001:00001e10       ?__crt_interlocked_read_64@@YA_JPED_J@Z 0000000140002e10 f i libvcruntimed:std_type_info.obj
 0001:00001e10       ReadNoFence64              0000000140002e10 f i LIBCMTD:guard_support.obj
 0001:00001e30       ??$__crt_interlocked_read_pointer@X@@YAPEAXPEDSEAX@Z 0000000140002e30 f i libvcruntimed:winapi_downlevel.obj
 0001:00001e30       ReadPointerNoFence         0000000140002e30 f i LIBCMTD:guard_support.obj
 0001:00001e30       ??$__crt_interlocked_read_pointer@UHINSTANCE__@@@@YAPEAUHINSTANCE__@@PEDSEAU0@@Z 0000000140002e30 f i libvcruntimed:winapi_downlevel.obj
 0001:00001e50       _guard_icall_checks_enforced 0000000140002e50 f i LIBCMTD:guard_support.obj
 0001:00001e90       __isa_available_init       0000000140002e90 f   LIBCMTD:cpu_disp.obj
 0001:00002200       __scrt_is_ucrt_dll_in_use  0000000140003200 f   LIBCMTD:ucrt_detection.obj
 0001:00002230       IsProcessorFeaturePresent  0000000140003230 f   kernel32:KERNEL32.dll
 0001:00002240       __C_specific_handler       0000000140003240 f   libvcruntimed:riscchandler.obj
 0001:00002680       __vcrt_initialize          0000000140003680 f   libvcruntimed:initialization.obj
 0001:000026c0       __vcrt_uninitialize        00000001400036c0 f   libvcruntimed:initialization.obj
 0001:000026f0       ??$?RE@__crt_internal_free_policy@@QEBAXQEBE@Z 00000001400036f0 f i libucrtd:argv_parsing.obj
 0001:000026f0       ??$?RP6AXXZ@__crt_internal_free_policy@@QEBAXQEBQ6AXXZ@Z 00000001400036f0 f i libucrtd:onexit.obj
 0001:000026f0       ??$?RPEAU__crt_stdio_stream_data@@@__crt_internal_free_policy@@QEBAXQEBQEAU__crt_stdio_stream_data@@@Z 00000001400036f0 f i libucrtd:_file.obj
 0001:000026f0       ??$?RU__vcrt_ptd@@@__crt_internal_free_policy@@QEBAXQEBU__vcrt_ptd@@@Z 00000001400036f0 f i libvcruntimed:per_thread_data.obj
 0001:000026f0       ??$?RPEAD@__crt_internal_free_policy@@QEBAXQEBQEAD@Z 00000001400036f0 f i libucrtd:argv_parsing.obj
 0001:000026f0       ??$?RU__crt_lowio_handle_data@@@__crt_internal_free_policy@@QEBAXQEBU__crt_lowio_handle_data@@@Z 00000001400036f0 f i libucrtd:osfinfo.obj
 0001:000026f0       ??$?RD@__crt_internal_free_policy@@QEBAXQEBD@Z 00000001400036f0 f i libvcruntimed:std_type_info.obj
 0001:000026f0       ??$?RU__crt_multibyte_data@@@__crt_internal_free_policy@@QEBAXQEBU__crt_multibyte_data@@@Z 00000001400036f0 f i libucrtd:wsetlocale.obj
 0001:000026f0       ??$?RU__acrt_ptd@@@__crt_internal_free_policy@@QEBAXQEBU__acrt_ptd@@@Z 00000001400036f0 f i libucrtd:per_thread_data.obj
 0001:00002720       ??0?$__crt_unique_handle_t@U__crt_hmodule_traits@@@@QEAA@QEAUHINSTANCE__@@@Z 0000000140003720 f i libucrtd:exit.obj
 0001:00002720       ??0?$string_output_adapter@_W@__crt_stdio_output@@QEAA@QEAU?$string_output_adapter_context@_W@1@@Z 0000000140003720 f i libucrtd:output.obj
 0001:00002720       ??0?$__crt_scoped_stack_ptr@_W@@QEAA@U?$__crt_scoped_stack_ptr_tag@_W@@@Z 0000000140003720 f i libucrtd:getstringtypea.obj
 0001:00002720       ??0?$__crt_unique_heap_ptr@DU__crt_internal_free_policy@@@@QEAA@QEAD@Z 0000000140003720 f i libvcruntimed:std_type_info.obj
 0001:00002720       ??0?$__crt_unique_heap_ptr@PEAU__crt_stdio_stream_data@@U__crt_internal_free_policy@@@@QEAA@QEAPEAU__crt_stdio_stream_data@@@Z 0000000140003720 f i libucrtd:_file.obj
 0001:00002720       ??0?$__crt_unique_heap_ptr@U__crt_lowio_handle_data@@U__crt_internal_free_policy@@@@QEAA@QEAU__crt_lowio_handle_data@@@Z 0000000140003720 f i libucrtd:osfinfo.obj
 0001:00002720       ??0?$__crt_unique_handle_t@U__crt_findfile_traits@@@@QEAA@QEAX@Z 0000000140003720 f i libucrtd:argv_wildcards.obj
 0001:00002720       ??0?$__crt_unique_heap_ptr@DU__crt_public_free_policy@@@@QEAA@QEAD@Z 0000000140003720 f i libvcruntimed:std_exception.obj
 0001:00002720       ??0?$__crt_unique_heap_ptr@PEADU__crt_internal_free_policy@@@@QEAA@QEAPEAD@Z 0000000140003720 f i libucrtd:argv_parsing.obj
 0001:00002720       ??0?$__crt_unique_heap_ptr@P6AXXZU__crt_internal_free_policy@@@@QEAA@QEAP6AXXZ@Z 0000000140003720 f i libucrtd:onexit.obj
 0001:00002720       ??0?$__crt_scoped_stack_ptr_tag@_W@@QEAA@QEA_W@Z 0000000140003720 f i libucrtd:getstringtypea.obj
 0001:00002720       ??0?$__crt_unique_heap_ptr@U__acrt_ptd@@U__crt_internal_free_policy@@@@QEAA@QEAU__acrt_ptd@@@Z 0000000140003720 f i libucrtd:per_thread_data.obj
 0001:00002720       ??0?$__crt_unique_heap_ptr@U__vcrt_ptd@@U__crt_internal_free_policy@@@@QEAA@QEAU__vcrt_ptd@@@Z 0000000140003720 f i libvcruntimed:per_thread_data.obj
 0001:00002720       ??0?$string_output_adapter@D@__crt_stdio_output@@QEAA@QEAU?$string_output_adapter_context@D@1@@Z 0000000140003720 f i libucrtd:output.obj
 0001:00002720       ??0__crt_stdio_stream@@QEAA@QEAU__crt_stdio_stream_data@@@Z 0000000140003720 f i libucrtd:fflush.obj
 0001:00002720       ??0?$__crt_unique_heap_ptr@EU__crt_internal_free_policy@@@@QEAA@QEAE@Z 0000000140003720 f i libucrtd:argv_parsing.obj
 0001:00002720       ??0?$__crt_unique_heap_ptr@U__crt_multibyte_data@@U__crt_internal_free_policy@@@@QEAA@QEAU__crt_multibyte_data@@@Z 0000000140003720 f i libucrtd:wsetlocale.obj
 0001:00002720       ??0__crt_stdio_stream@@QEAA@QEAU_iobuf@@@Z 0000000140003720 f i libucrtd:output.obj
 0001:00002740       ??1?$__crt_unique_heap_ptr@U__acrt_ptd@@U__crt_internal_free_policy@@@@QEAA@XZ 0000000140003740 f i libucrtd:per_thread_data.obj
 0001:00002740       ??1?$__crt_unique_heap_ptr@U__crt_multibyte_data@@U__crt_internal_free_policy@@@@QEAA@XZ 0000000140003740 f i libucrtd:wsetlocale.obj
 0001:00002740       ??1?$__crt_unique_heap_ptr@EU__crt_internal_free_policy@@@@QEAA@XZ 0000000140003740 f i libucrtd:argv_parsing.obj
 0001:00002740       ??1?$__crt_unique_heap_ptr@PEADU__crt_internal_free_policy@@@@QEAA@XZ 0000000140003740 f i libucrtd:argv_parsing.obj
 0001:00002740       ??1?$__crt_unique_heap_ptr@U__crt_lowio_handle_data@@U__crt_internal_free_policy@@@@QEAA@XZ 0000000140003740 f i libucrtd:osfinfo.obj
 0001:00002740       ??1?$__crt_unique_heap_ptr@PEAU__crt_stdio_stream_data@@U__crt_internal_free_policy@@@@QEAA@XZ 0000000140003740 f i libucrtd:_file.obj
 0001:00002740       ??1?$__crt_unique_heap_ptr@P6AXXZU__crt_internal_free_policy@@@@QEAA@XZ 0000000140003740 f i libucrtd:onexit.obj
 0001:00002740       ??1?$__crt_unique_heap_ptr@DU__crt_internal_free_policy@@@@QEAA@XZ 0000000140003740 f i libvcruntimed:std_type_info.obj
 0001:00002740       ??1?$__crt_unique_heap_ptr@U__vcrt_ptd@@U__crt_internal_free_policy@@@@QEAA@XZ 0000000140003740 f i libvcruntimed:per_thread_data.obj
 0001:00002760       ??B?$__crt_unique_heap_ptr@DU__crt_public_free_policy@@@@QEBA_NXZ 0000000140003760 f i libvcruntimed:std_exception.obj
 0001:00002760       ??B?$__crt_unique_heap_ptr@DU__crt_internal_free_policy@@@@QEBA_NXZ 0000000140003760 f i libvcruntimed:std_type_info.obj
 0001:00002760       ??B?$__crt_unique_heap_ptr@EU__crt_internal_free_policy@@@@QEBA_NXZ 0000000140003760 f i libucrtd:argv_parsing.obj
 0001:00002760       ??B?$__crt_unique_heap_ptr@U__acrt_ptd@@U__crt_internal_free_policy@@@@QEBA_NXZ 0000000140003760 f i libucrtd:per_thread_data.obj
 0001:00002760       ??B?$__crt_unique_heap_ptr@U__crt_lowio_handle_data@@U__crt_internal_free_policy@@@@QEBA_NXZ 0000000140003760 f i libucrtd:osfinfo.obj
 0001:00002760       ??B?$__crt_unique_heap_ptr@U__vcrt_ptd@@U__crt_internal_free_policy@@@@QEBA_NXZ 0000000140003760 f i libvcruntimed:per_thread_data.obj
 0001:00002760       ??B?$__crt_unique_heap_ptr@U__crt_multibyte_data@@U__crt_internal_free_policy@@@@QEBA_NXZ 0000000140003760 f i libucrtd:wsetlocale.obj
 0001:00002780       ??C__crt_stdio_stream@@QEBAPEAU__crt_stdio_stream_data@@XZ 0000000140003780 f i libucrtd:output.obj
 0001:00002780       ?get@?$__crt_unique_heap_ptr@U__crt_multibyte_data@@U__crt_internal_free_policy@@@@QEBAPEAU__crt_multibyte_data@@XZ 0000000140003780 f i libucrtd:wsetlocale.obj
 0001:00002780       ?get@?$__crt_unique_handle_t@U__crt_hmodule_traits@@@@QEBAPEAUHINSTANCE__@@XZ 0000000140003780 f i libucrtd:exit.obj
 0001:00002780       ?get@?$__crt_unique_heap_ptr@U__crt_lowio_handle_data@@U__crt_internal_free_policy@@@@QEBAPEAU__crt_lowio_handle_data@@XZ 0000000140003780 f i libucrtd:osfinfo.obj
 0001:00002780       ?get@?$__crt_unique_heap_ptr@PEADU__crt_internal_free_policy@@@@QEBAPEAPEADXZ 0000000140003780 f i libucrtd:argv_parsing.obj
 0001:00002780       ?public_stream@__crt_stdio_stream@@QEBAPEAU_iobuf@@XZ 0000000140003780 f i libucrtd:output.obj
 0001:00002780       ?get@?$__crt_unique_heap_ptr@U__acrt_ptd@@U__crt_internal_free_policy@@@@QEBAPEAU__acrt_ptd@@XZ 0000000140003780 f i libucrtd:per_thread_data.obj
 0001:00002780       ?getFuncInfo@TryBlockMap@__FrameHandler3@@QEAAPEBU_s_FuncInfo@@XZ 0000000140003780 f i libvcruntimed:risctrnsctrl.obj
 0001:00002780       ?get@?$__crt_unique_heap_ptr@U__vcrt_ptd@@U__crt_internal_free_policy@@@@QEBAPEAU__vcrt_ptd@@XZ 0000000140003780 f i libvcruntimed:per_thread_data.obj
 0001:00002780       ?get@?$__crt_unique_heap_ptr@DU__crt_internal_free_policy@@@@QEBAPEADXZ 0000000140003780 f i libvcruntimed:std_type_info.obj
 0001:00002780       ?save_state@?$c_string_character_source@_W@__crt_strtox@@QEBAPEB_WXZ 0000000140003780 f i libucrtd:atox.obj
 0001:00002780       ?get@?$__crt_unique_handle_t@U__crt_findfile_traits@@@@QEBAPEAXXZ 0000000140003780 f i libucrtd:argv_wildcards.obj
 0001:00002780       ?get@?$__crt_unique_heap_ptr@DU__crt_public_free_policy@@@@QEBAPEADXZ 0000000140003780 f i libvcruntimed:std_exception.obj
 0001:00002780       ?get@?$__crt_scoped_stack_ptr@_W@@QEBAPEA_WXZ 0000000140003780 f i libucrtd:getstringtypea.obj
 0001:00002780       ?get@?$__crt_unique_heap_ptr@EU__crt_internal_free_policy@@@@QEBAPEAEXZ 0000000140003780 f i libucrtd:argv_parsing.obj
 0001:00002780       ?save_state@?$c_string_character_source@D@__crt_strtox@@QEBAPEBDXZ 0000000140003780 f i libucrtd:atox.obj
 0001:00002790       ?valid@__crt_stdio_stream@@QEBA_NXZ 0000000140003790 f i libucrtd:output.obj
 0001:00002790       ?is_valid@?$__crt_unique_heap_ptr@DU__crt_internal_free_policy@@@@QEBA_NXZ 0000000140003790 f i libvcruntimed:std_type_info.obj
 0001:00002790       ?is_valid@?$__crt_unique_heap_ptr@EU__crt_internal_free_policy@@@@QEBA_NXZ 0000000140003790 f i libucrtd:argv_parsing.obj
 0001:00002790       ?is_valid@?$__crt_unique_heap_ptr@U__crt_multibyte_data@@U__crt_internal_free_policy@@@@QEBA_NXZ 0000000140003790 f i libucrtd:wsetlocale.obj
 0001:00002790       ?is_valid@?$__crt_unique_heap_ptr@U__acrt_ptd@@U__crt_internal_free_policy@@@@QEBA_NXZ 0000000140003790 f i libucrtd:per_thread_data.obj
 0001:00002790       ?is_valid@?$__crt_unique_heap_ptr@U__vcrt_ptd@@U__crt_internal_free_policy@@@@QEBA_NXZ 0000000140003790 f i libvcruntimed:per_thread_data.obj
 0001:00002790       ?is_valid@?$__crt_unique_heap_ptr@DU__crt_public_free_policy@@@@QEBA_NXZ 0000000140003790 f i libvcruntimed:std_exception.obj
 0001:00002790       ??B?$__crt_scoped_stack_ptr@_W@@QEBA_NXZ 0000000140003790 f i libucrtd:lcmapstringa.obj
 0001:00002790       ?is_valid@?$__crt_unique_heap_ptr@U__crt_lowio_handle_data@@U__crt_internal_free_policy@@@@QEBA_NXZ 0000000140003790 f i libucrtd:osfinfo.obj
 0001:000027c0       ?release@?$__crt_unique_heap_ptr@U__acrt_ptd@@U__crt_internal_free_policy@@@@QEAAXXZ 00000001400037c0 f i libucrtd:per_thread_data.obj
 0001:000027c0       ?release@?$__crt_unique_heap_ptr@U__crt_multibyte_data@@U__crt_internal_free_policy@@@@QEAAXXZ 00000001400037c0 f i libucrtd:wsetlocale.obj
 0001:000027c0       ?release@?$__crt_unique_heap_ptr@PEADU__crt_internal_free_policy@@@@QEAAXXZ 00000001400037c0 f i libucrtd:argv_parsing.obj
 0001:000027c0       ?release@?$__crt_unique_heap_ptr@U__crt_lowio_handle_data@@U__crt_internal_free_policy@@@@QEAAXXZ 00000001400037c0 f i libucrtd:osfinfo.obj
 0001:000027c0       ?release@?$__crt_unique_heap_ptr@P6AXXZU__crt_internal_free_policy@@@@QEAAXXZ 00000001400037c0 f i libucrtd:onexit.obj
 0001:000027c0       ?release@?$__crt_unique_heap_ptr@EU__crt_internal_free_policy@@@@QEAAXXZ 00000001400037c0 f i libucrtd:argv_parsing.obj
 0001:000027c0       ?release@?$__crt_unique_heap_ptr@PEAU__crt_stdio_stream_data@@U__crt_internal_free_policy@@@@QEAAXXZ 00000001400037c0 f i libucrtd:_file.obj
 0001:000027c0       ?release@?$__crt_unique_heap_ptr@DU__crt_internal_free_policy@@@@QEAAXXZ 00000001400037c0 f i libvcruntimed:std_type_info.obj
 0001:000027c0       ?release@?$__crt_unique_heap_ptr@U__vcrt_ptd@@U__crt_internal_free_policy@@@@QEAAXXZ 00000001400037c0 f i libvcruntimed:per_thread_data.obj
 0001:000027f0       __std_type_info_compare    00000001400037f0 f   libvcruntimed:std_type_info.obj
 0001:00002840       _NLG_Notify                0000000140003840 f   libvcruntimed:notify.obj
 0001:00002860       __NLG_Dispatch2            0000000140003860 f   libvcruntimed:notify.obj
 0001:00002870       __NLG_Return2              0000000140003870 f   libvcruntimed:notify.obj
 0001:00002880       __except_validate_context_record 0000000140003880 f   libvcruntimed:jbcxrval.obj
 0001:000028e0       __DestructExceptionObject  00000001400038e0 f   libvcruntimed:ehhelpers.obj
 0001:000029e0       ?_CallMemberFunction0@@YAXQEAX0@Z 00000001400039e0 f i libvcruntimed:ehhelpers.obj
 0001:00002a10       _IsExceptionObjectToBeDestroyed 0000000140003a10 f   libvcruntimed:ehhelpers.obj
 0001:00002a60       __AdjustPointer            0000000140003a60 f   libvcruntimed:ehhelpers.obj
 0001:00002ae0       __FrameUnwindFilter        0000000140003ae0 f   libvcruntimed:ehhelpers.obj
 0001:00002bb0       ?detach@?$__crt_unique_heap_ptr@U__vcrt_ptd@@U__crt_internal_free_policy@@@@QEAAPEAU__vcrt_ptd@@XZ 0000000140003bb0 f i libvcruntimed:per_thread_data.obj
 0001:00002bb0       ?detach@?$__crt_unique_heap_ptr@PEADU__crt_internal_free_policy@@@@QEAAPEAPEADXZ 0000000140003bb0 f i libucrtd:argv_parsing.obj
 0001:00002bb0       ?detach@?$__crt_unique_heap_ptr@U__crt_lowio_handle_data@@U__crt_internal_free_policy@@@@QEAAPEAU__crt_lowio_handle_data@@XZ 0000000140003bb0 f i libucrtd:osfinfo.obj
 0001:00002bb0       ?detach@?$__crt_unique_heap_ptr@PEAU__crt_stdio_stream_data@@U__crt_internal_free_policy@@@@QEAAPEAPEAU__crt_stdio_stream_data@@XZ 0000000140003bb0 f i libucrtd:_file.obj
 0001:00002bb0       ?detach@?$__crt_unique_heap_ptr@DU__crt_public_free_policy@@@@QEAAPEADXZ 0000000140003bb0 f i libvcruntimed:std_exception.obj
 0001:00002bb0       ?detach@?$__crt_unique_heap_ptr@EU__crt_internal_free_policy@@@@QEAAPEAEXZ 0000000140003bb0 f i libucrtd:argv_parsing.obj
 0001:00002bb0       ?detach@?$__crt_unique_heap_ptr@U__crt_multibyte_data@@U__crt_internal_free_policy@@@@QEAAPEAU__crt_multibyte_data@@XZ 0000000140003bb0 f i libucrtd:wsetlocale.obj
 0001:00002bb0       ?detach@?$__crt_unique_heap_ptr@U__acrt_ptd@@U__crt_internal_free_policy@@@@QEAAPEAU__acrt_ptd@@XZ 0000000140003bb0 f i libucrtd:per_thread_data.obj
 0001:00002bb0       ?detach@?$__crt_unique_heap_ptr@P6AXXZU__crt_internal_free_policy@@@@QEAAPEAP6AXXZXZ 0000000140003bb0 f i libucrtd:onexit.obj
 0001:00002c30       __vcrt_freefls             0000000140003c30 f   libvcruntimed:per_thread_data.obj
 0001:00002c70       __vcrt_getptd              0000000140003c70 f   libvcruntimed:per_thread_data.obj
 0001:00002ca0       __vcrt_getptd_noexit       0000000140003ca0 f   libvcruntimed:per_thread_data.obj
 0001:00002e40       __vcrt_initialize_ptd      0000000140003e40 f   libvcruntimed:per_thread_data.obj
 0001:00002e90       __vcrt_uninitialize_ptd    0000000140003e90 f   libvcruntimed:per_thread_data.obj
 0001:00002ec0       __vcrt_initialize_locks    0000000140003ec0 f   libvcruntimed:locks.obj
 0001:00002f30       __vcrt_uninitialize_locks  0000000140003f30 f   libvcruntimed:locks.obj
 0001:00002f90       ??$?BP6AXXZ@__crt_fast_encoded_nullptr_t@@QEBAPEAP6AXXZXZ 0000000140003f90 f i libucrtd:onexit.obj
 0001:00002f90       ??$?BX@__crt_fast_encoded_nullptr_t@@QEBAPEAXXZ 0000000140003f90 f i libvcruntimed:winapi_downlevel.obj
 0001:00002f90       ??$?B$$A6AXXZ@__crt_fast_encoded_nullptr_t@@QEBAP6AXXZXZ 0000000140003f90 f i libvcruntimed:purevirt_data.obj
 0001:00002f90       ??$?B$$A6AXPEAXK0@Z@__crt_fast_encoded_nullptr_t@@QEBAP6AXPEAXK0@ZXZ 0000000140003f90 f i libucrtd:exit.obj
 0001:00002f90       ??$?B$$A6AXH@Z@__crt_fast_encoded_nullptr_t@@QEBAP6AXH@ZXZ 0000000140003f90 f i libucrtd:signal.obj
 0001:00002fb0       ??$__crt_interlocked_exchange_pointer@UHINSTANCE__@@PEAU1@@@YAPEAUHINSTANCE__@@PEDSEAU0@QEAU0@@Z 0000000140003fb0 f i libvcruntimed:winapi_downlevel.obj
 0001:00002fb0       ??$__crt_interlocked_exchange_pointer@XPEAX@@YAPEAXPEDSEAXQEAX@Z 0000000140003fb0 f i libvcruntimed:winapi_downlevel.obj
 0001:00002fb0       ??$__crt_interlocked_exchange_pointer@UHINSTANCE__@@PEAX@@YAPEAUHINSTANCE__@@PEDSEAU0@QEAX@Z 0000000140003fb0 f i libvcruntimed:winapi_downlevel.obj
 0001:00002fd0       ?__crt_fast_encode_pointer@@YA?AU__crt_fast_encoded_nullptr_t@@$$T@Z 0000000140003fd0 f i libvcruntimed:winapi_downlevel.obj
 0001:00002ff0       ?get_invalid_value@__crt_findfile_traits@@SAPEAXXZ 0000000140003ff0 f   libucrtd:argv_wildcards.obj
 0001:00003530       __vcrt_FlsAlloc            0000000140004530 f   libvcruntimed:winapi_downlevel.obj
 0001:00003580       __vcrt_FlsFree             0000000140004580 f   libvcruntimed:winapi_downlevel.obj
 0001:000035d0       __vcrt_FlsGetValue         00000001400045d0 f   libvcruntimed:winapi_downlevel.obj
 0001:00003620       __vcrt_FlsSetValue         0000000140004620 f   libvcruntimed:winapi_downlevel.obj
 0001:00003680       __vcrt_InitializeCriticalSectionEx 0000000140004680 f   libvcruntimed:winapi_downlevel.obj
 0001:000036e0       __vcrt_initialize_winapi_thunks 00000001400046e0 f   libvcruntimed:winapi_downlevel.obj
 0001:00003760       __vcrt_uninitialize_winapi_thunks 0000000140004760 f   libvcruntimed:winapi_downlevel.obj
 0001:00003800       __vcrt_initialize_pure_virtual_call_handler 0000000140004800 f   libvcruntimed:purevirt_data.obj
 0001:00003830       _vsprintf_s_l              0000000140004830 f i libvcruntimed:undname.obj
 0001:000038a0       sprintf_s                  00000001400048a0 f i libvcruntimed:undname.obj
 0001:00003910       memcpy_repmovs             0000000140004910 f   libvcruntimed:memcpy.obj
 0001:00003930       memmove                    0000000140004930 f   libvcruntimed:memcpy.obj
 0001:00003930       memcpy                     0000000140004930 f   libvcruntimed:memcpy.obj
 0001:00003d70       ??$?0AEAViterator@TryBlockMap@__FrameHandler3@@AEAV012@$0A@@?$pair@Viterator@TryBlockMap@__FrameHandler3@@V123@@std@@QEAA@AEAViterator@TryBlockMap@__FrameHandler3@@0@Z 0000000140004d70 f i libvcruntimed:risctrnsctrl.obj
 0001:00003e80       ??$_CallSETranslator@V__FrameHandler3@@@@YAHPEAUEHExceptionRecord@@PEA_KPEAU_CONTEXT@@PEAU_xDISPATCHER_CONTEXT@@PEBU_s_FuncInfo@@K1@Z 0000000140004e80 f i libvcruntimed:risctrnsctrl.obj
 0001:00003f00       ?dangerous_get_state_array@?$dual_state_global@PEAU__crt_locale_data@@@__crt_state_management@@QEAAPEAPEAU__crt_locale_data@@XZ 0000000140004f00 f i libucrtd:per_thread_data.obj
 0001:00003f00       ?dangerous_get_state_array@?$dual_state_global@PEAU__crt_multibyte_data@@@__crt_state_management@@QEAAPEAPEAU__crt_multibyte_data@@XZ 0000000140004f00 f i libucrtd:mbctype.obj
 0001:00003f00       ?dangerous_get_state_array@?$dual_state_global@H@__crt_state_management@@QEAAPEAHXZ 0000000140004f00 f i libucrtd:txtmode.obj
 0001:00003f00       ?debug_info@?$__crt_win32_buffer@_WU__crt_win32_buffer_internal_dynamic_resizing@@@@QEBAAEBV__crt_win32_buffer_empty_debug_info@@XZ 0000000140004f00 f i libucrtd:argv_wildcards.obj
 0001:00003f00       ?get_address_of@?$__crt_unique_heap_ptr@PEADU__crt_internal_free_policy@@@@QEAAPEAPEAPEADXZ 0000000140004f00 f i libucrtd:argv_parsing.obj
 0001:00003f00       ?dangerous_get_state_array@?$dual_state_global@PEAE@__crt_state_management@@QEAAPEAPEAEXZ 0000000140004f00 f i libucrtd:mbctype.obj
 0001:00003f00       ?debug_info@?$__crt_win32_buffer@DU__crt_win32_buffer_no_resizing@@@@QEBAAEBV__crt_win32_buffer_empty_debug_info@@XZ 0000000140004f00 f i libucrtd:getmodulefilenamea.obj
 0001:00003f00       ?debug_info@?$__crt_win32_buffer@DU__crt_win32_buffer_internal_dynamic_resizing@@@@QEBAAEBV__crt_win32_buffer_empty_debug_info@@XZ 0000000140004f00 f i libucrtd:argv_wildcards.obj
 0001:00003f00       ?get_address_of@?$__crt_unique_handle_t@U__crt_hmodule_traits@@@@QEAAPEAPEAUHINSTANCE__@@XZ 0000000140004f00 f i libucrtd:exit.obj
 0001:00003f00       ??$forward@AEAViterator@TryBlockMap@__FrameHandler3@@@std@@YAAEAViterator@TryBlockMap@__FrameHandler3@@AEAV123@@Z 0000000140004f00 f i libvcruntimed:risctrnsctrl.obj
 0001:00003f00       ?dangerous_get_state_array@?$dual_state_global@P6AXPEB_W00I_K@Z@__crt_state_management@@QEAAPEAP6AXPEB_W00I_K@ZXZ 0000000140004f00 f i libucrtd:invalid_parameter.obj
 0001:00003f10       ??0iterator@HandlerMap@__FrameHandler3@@QEAA@AEAV12@I@Z 0000000140004f10 f i libvcruntimed:frame.obj
 0001:00003f10       ??0iterator@TryBlockMap@__FrameHandler3@@QEAA@AEAV12@I@Z 0000000140004f10 f i libvcruntimed:risctrnsctrl.obj
 0001:00003f40       ?CatchTryBlock@__FrameHandler3@@SAPEBU_s_TryBlockMapEntry@@PEBU_s_FuncInfo@@H@Z 0000000140004f40 f   libvcruntimed:risctrnsctrl.obj
 0001:00003fe0       ?ExecutionInCatch@__FrameHandler3@@SA_NPEAU_xDISPATCHER_CONTEXT@@PEBU_s_FuncInfo@@@Z 0000000140004fe0 f   libvcruntimed:risctrnsctrl.obj
 0001:00004030       ?FrameUnwindToEmptyState@__FrameHandler3@@SAXPEA_KPEAU_xDISPATCHER_CONTEXT@@PEBU_s_FuncInfo@@@Z 0000000140005030 f   libvcruntimed:risctrnsctrl.obj
 0001:000040d0       ?GetEstablisherFrame@__FrameHandler3@@SAPEA_KPEA_KPEAU_xDISPATCHER_CONTEXT@@PEBU_s_FuncInfo@@0@Z 00000001400050d0 f   libvcruntimed:risctrnsctrl.obj
 0001:00004240       ?GetRangeOfTrysToCheck@__FrameHandler3@@SA?AU?$pair@Viterator@TryBlockMap@__FrameHandler3@@V123@@std@@AEAVTryBlockMap@1@HH@Z 0000000140005240 f   libvcruntimed:risctrnsctrl.obj
 0001:00004490       ?UnwindNestedFrames@__FrameHandler3@@SAXPEA_KPEAUEHExceptionRecord@@PEAU_CONTEXT@@0PEAXPEBU_s_FuncInfo@@HHPEBU_s_HandlerType@@PEAU_xDISPATCHER_CONTEXT@@E@Z 0000000140005490 f   libvcruntimed:risctrnsctrl.obj
 0001:00004600       ?getpDC@TryBlockMap@__FrameHandler3@@QEAAPEAU_xDISPATCHER_CONTEXT@@XZ 0000000140005600 f i libvcruntimed:risctrnsctrl.obj
 0001:00004610       _CreateFrameInfo           0000000140005610 f   libvcruntimed:risctrnsctrl.obj
 0001:00004680       _FindAndUnlinkFrame        0000000140005680 f   libvcruntimed:risctrnsctrl.obj
 0001:00004700       _GetImageBase              0000000140005700 f   libvcruntimed:risctrnsctrl.obj
 0001:00004720       _GetThrowImageBase         0000000140005720 f   libvcruntimed:risctrnsctrl.obj
 0001:00004740       _SetImageBase              0000000140005740 f   libvcruntimed:risctrnsctrl.obj
 0001:00004760       _SetThrowImageBase         0000000140005760 f   libvcruntimed:risctrnsctrl.obj
 0001:00004780       __CxxFrameHandler3         0000000140005780 f   libvcruntimed:risctrnsctrl.obj
 0001:00004840       ?GetCurrentState@__FrameHandler3@@SAHPEA_KPEAU_xDISPATCHER_CONTEXT@@PEBU_s_FuncInfo@@@Z 0000000140005840 f   libvcruntimed:ehstate.obj
 0001:000048a0       ?GetUnwindTryBlock@__FrameHandler3@@SAHPEA_KPEAU_xDISPATCHER_CONTEXT@@PEBU_s_FuncInfo@@@Z 00000001400058a0 f   libvcruntimed:ehstate.obj
 0001:000048f0       ?SetState@__FrameHandler3@@SAXPEA_KPEBU_s_FuncInfo@@H@Z 00000001400058f0 f   libvcruntimed:ehstate.obj
 0001:00004920       ?SetUnwindTryBlock@__FrameHandler3@@SAXPEA_KPEAU_xDISPATCHER_CONTEXT@@PEBU_s_FuncInfo@@H@Z 0000000140005920 f   libvcruntimed:ehstate.obj
 0001:00004990       ?StateFromControlPc@__FrameHandler3@@SAHPEBU_s_FuncInfo@@PEAU_xDISPATCHER_CONTEXT@@@Z 0000000140005990 f   libvcruntimed:ehstate.obj
 0001:000049d0       ?StateFromIp@__FrameHandler3@@SAHPEBU_s_FuncInfo@@PEAU_xDISPATCHER_CONTEXT@@_K@Z 00000001400059d0 f   libvcruntimed:ehstate.obj
 0001:00005c20       ??$TypeMatchHelper@V__FrameHandler3@@@@YAHPEBU_s_HandlerType@@PEBU_s_CatchableType@@PEBU_s_ThrowInfo@@@Z 0000000140006c20 f i libvcruntimed:frame.obj
 0001:00005e10       ??$__InternalCxxFrameHandler@V__FrameHandler3@@@@YA?AW4_EXCEPTION_DISPOSITION@@PEAUEHExceptionRecord@@PEA_KPEAU_CONTEXT@@PEAU_xDISPATCHER_CONTEXT@@PEBU_s_FuncInfo@@H1E@Z 0000000140006e10 f i libvcruntimed:frame.obj
 0001:00006290       ??0HandlerMap@__FrameHandler3@@QEAA@PEBU_s_TryBlockMapEntry@@PEAU_xDISPATCHER_CONTEXT@@@Z 0000000140007290 f i libvcruntimed:frame.obj
 0001:000062d0       ??0TryBlockMap@__FrameHandler3@@QEAA@PEBU_s_FuncInfo@@PEAU_xDISPATCHER_CONTEXT@@@Z 00000001400072d0 f i libvcruntimed:frame.obj
 0001:00006300       ??0bad_exception@std@@QEAA@AEBV01@@Z 0000000140007300 f i libvcruntimed:frame.obj
 0001:00006340       ??0bad_exception@std@@QEAA@XZ 0000000140007340 f i libvcruntimed:frame.obj
 0001:00006380       ??0exception@std@@QEAA@AEBV01@@Z 0000000140007380 f i libvcruntimed:frame.obj
 0001:000063e0       ??0exception@std@@QEAA@QEBDH@Z 00000001400073e0 f i libvcruntimed:frame.obj
 0001:00006430       ??1bad_exception@std@@UEAA@XZ 0000000140007430 f i libvcruntimed:frame.obj
 0001:00006450       ??1exception@std@@UEAA@XZ  0000000140007450 f i libvcruntimed:frame.obj
 0001:00006480       ??8iterator@HandlerMap@__FrameHandler3@@QEBA_NAEBV012@@Z 0000000140007480 f i libvcruntimed:frame.obj
 0001:000064c0       ??8type_info@@QEBA_NAEBV0@@Z 00000001400074c0 f i libvcruntimed:frame.obj
 0001:00006510       ??9iterator@HandlerMap@__FrameHandler3@@QEBA_NAEBV012@@Z 0000000140007510 f i libvcruntimed:frame.obj
 0001:00006550       ??Diterator@HandlerMap@__FrameHandler3@@QEAAPEBU_s_HandlerType@@XZ 0000000140007550 f i libvcruntimed:frame.obj
 0001:00006580       ??Diterator@TryBlockMap@__FrameHandler3@@QEAAPEBU_s_TryBlockMapEntry@@XZ 0000000140007580 f i libvcruntimed:frame.obj
 0001:000065c0       ??Eiterator@TryBlockMap@__FrameHandler3@@QEAAAEAV012@XZ 00000001400075c0 f i libvcruntimed:frame.obj
 0001:000065c0       ??Eiterator@HandlerMap@__FrameHandler3@@QEAAAEAV012@XZ 00000001400075c0 f i libvcruntimed:frame.obj
 0001:000065e0       ??Miterator@TryBlockMap@__FrameHandler3@@QEBA_NAEBV012@@Z 00000001400075e0 f i libvcruntimed:frame.obj
 0001:00006620       ??_Ebad_exception@std@@UEAAPEAXI@Z 0000000140007620 f i libvcruntimed:frame.obj
 0001:00006620       ??_Gbad_exception@std@@UEAAPEAXI@Z 0000000140007620 f i libvcruntimed:frame.obj
 0001:00006660       ??_Eexception@std@@UEAAPEAXI@Z 0000000140007660 f i libvcruntimed:frame.obj
 0001:00006660       ??_Gexception@std@@UEAAPEAXI@Z 0000000140007660 f i libvcruntimed:frame.obj
 0001:000066a0       ?BuildCatchObject@__FrameHandler3@@SAXPEAUEHExceptionRecord@@PEAXPEBU_s_HandlerType@@PEBU_s_CatchableType@@@Z 00000001400076a0 f   libvcruntimed:frame.obj
 0001:000066e0       ?CxxCallCatchBlock@__FrameHandler3@@SAPEAXPEAU_EXCEPTION_RECORD@@@Z 00000001400076e0 f   libvcruntimed:frame.obj
 0001:00006a40       ?FrameUnwindToState@__FrameHandler3@@SAXPEA_KPEAU_xDISPATCHER_CONTEXT@@PEBU_s_FuncInfo@@H@Z 0000000140007a40 f   libvcruntimed:frame.obj
 0001:00006cd0       ?GetHandlerSearchState@__FrameHandler3@@SAHPEA_KPEAU_xDISPATCHER_CONTEXT@@PEBU_s_FuncInfo@@@Z 0000000140007cd0 f i libvcruntimed:frame.obj
 0001:00006d80       ?GetMaxState@__FrameHandler3@@SAHPEAU_xDISPATCHER_CONTEXT@@PEBU_s_FuncInfo@@@Z 0000000140007d80 f i libvcruntimed:frame.obj
 0001:00006fb0       ?TypeMatch@__FrameHandler3@@SAHPEBU_s_HandlerType@@PEBU_s_CatchableType@@PEBU_s_ThrowInfo@@@Z 0000000140007fb0 f   libvcruntimed:frame.obj
 0001:00006fb0       __TypeMatch                0000000140007fb0 f   libvcruntimed:frame.obj
 0001:00006fe0       ?_CallMemberFunction1@@YAXQEAX00@Z 0000000140007fe0 f i libvcruntimed:frame.obj
 0001:00007010       ?_CallMemberFunction2@@YAXQEAX00H@Z 0000000140008010 f i libvcruntimed:frame.obj
 0001:00007050       ?_ValidateExecute@@YA_NP6A_JXZ@Z 0000000140008050 f i libvcruntimed:frame.obj
 0001:00007070       ?_ValidateRead@@YA_NPEBXI@Z 0000000140008070 f i libvcruntimed:frame.obj
 0001:00007070       ?_ValidateWrite@@YA_NPEAXI@Z 0000000140008070 f i libvcruntimed:frame.obj
 0001:000070d0       ?begin@HandlerMap@__FrameHandler3@@QEAA?AViterator@12@XZ 00000001400080d0 f i libvcruntimed:frame.obj
 0001:00007100       ?end@HandlerMap@__FrameHandler3@@QEAA?AViterator@12@XZ 0000000140008100 f i libvcruntimed:frame.obj
 0001:00007130       ?getESTypes@__FrameHandler3@@SAPEBU_s_ESTypeList@@PEBU_s_FuncInfo@@@Z 0000000140008130 f i libvcruntimed:frame.obj
 0001:00007170       ?getLastEntry@HandlerMap@__FrameHandler3@@QEAAPEBU_s_HandlerType@@XZ 0000000140008170 f i libvcruntimed:frame.obj
 0001:00007190       ?getMagicNum@__FrameHandler3@@SAIPEBU_s_FuncInfo@@@Z 0000000140008190 f i libvcruntimed:frame.obj
 0001:000071b0       ?getNumTryBlocks@TryBlockMap@__FrameHandler3@@QEAAIXZ 00000001400081b0 f i libvcruntimed:frame.obj
 0001:000071d0       ?isEHs@__FrameHandler3@@SA_NPEBU_s_FuncInfo@@@Z 00000001400081d0 f i libvcruntimed:frame.obj
 0001:00007210       ?isNoExcept@__FrameHandler3@@SA_NPEBU_s_FuncInfo@@@Z 0000000140008210 f i libvcruntimed:frame.obj
 0001:00007250       ?what@exception@std@@UEBAPEBDXZ 0000000140008250 f i libvcruntimed:frame.obj
 0001:00007290       __vcrt_EncodePointer       0000000140008290 f i libvcruntimed:frame.obj
 0001:000072c0       memset_repmovs             00000001400082c0 f   libvcruntimed:memset.obj
 0001:000072e0       memset                     00000001400082e0 f   libvcruntimed:memset.obj
 0001:00007480       _CallSettingFrame          0000000140008480 f   libvcruntimed:handlers.obj
 0001:000074d0       _CallSettingFrameEncoded   00000001400084d0 f   libvcruntimed:handlers.obj
 0001:00007520       ??$?RD@__crt_public_free_policy@@QEBAXQEBD@Z 0000000140008520 f i libvcruntimed:std_exception.obj
 0001:00007540       ??1?$__crt_unique_heap_ptr@DU__crt_public_free_policy@@@@QEAA@XZ 0000000140008540 f i libvcruntimed:std_exception.obj
 0001:00007560       ?release@?$__crt_unique_heap_ptr@DU__crt_public_free_policy@@@@QEAAXXZ 0000000140008560 f i libvcruntimed:std_exception.obj
 0001:00007590       __std_exception_copy       0000000140008590 f   libvcruntimed:std_exception.obj
 0001:000076c0       __std_exception_destroy    00000001400086c0 f   libvcruntimed:std_exception.obj
 0001:00007700       _CxxThrowException         0000000140008700 f   libvcruntimed:throw.obj
 0001:000078c0       _seh_filter_exe            00000001400088c0 f   libucrtd:exception_filter.obj
 0001:00007d30       __acrt_report_runtime_error 0000000140008d30 f   libucrtd:report_runtime_error.obj
 0001:00007fb0       _invoke_watson_if_error    0000000140008fb0 f i libucrtd:report_runtime_error.obj
 0001:00008000       _query_app_type            0000000140009000 f   libucrtd:report_runtime_error.obj
 0001:00008010       _set_app_type              0000000140009010 f   libucrtd:report_runtime_error.obj
 0001:00008020       ?initialize@?$dual_state_global@P6AXH@Z@__crt_state_management@@QEAAXQ6AXH@Z@Z 0000000140009020 f i libucrtd:signal.obj
 0001:00008020       ?initialize@?$dual_state_global@P6AH_K@Z@__crt_state_management@@QEAAXQ6AH_K@Z@Z 0000000140009020 f i libucrtd:new_handler.obj
 0001:00008020       ?initialize@?$dual_state_global@P6AHPEAU_exception@@@Z@__crt_state_management@@QEAAXQ6AHPEAU_exception@@@Z@Z 0000000140009020 f i libucrtd:matherr.obj
 0001:00008020       ?initialize@?$dual_state_global@PEAU__crt_locale_data@@@__crt_state_management@@QEAAXQEAU__crt_locale_data@@@Z 0000000140009020 f i libucrtd:initialization.obj
 0001:00008020       ?initialize@?$dual_state_global@PEAU__crt_multibyte_data@@@__crt_state_management@@QEAAXQEAU__crt_multibyte_data@@@Z 0000000140009020 f i libucrtd:mbctype.obj
 0001:00008070       ?value@?$dual_state_global@P6AH_K@Z@__crt_state_management@@QEAAAEAP6AH_K@ZXZ 0000000140009070 f i libucrtd:new_handler.obj
 0001:00008070       ?value@?$dual_state_global@P6AXH@Z@__crt_state_management@@QEAAAEAP6AXH@ZXZ 0000000140009070 f i libucrtd:signal.obj
 0001:00008070       ?value@?$dual_state_global@P6AHPEAU_exception@@@Z@__crt_state_management@@QEAAAEAP6AHPEAU_exception@@@ZXZ 0000000140009070 f i libucrtd:matherr.obj
 0001:00008070       ?value@?$dual_state_global@P6AXPEB_W00I_K@Z@__crt_state_management@@QEAAAEAP6AXPEB_W00I_K@ZXZ 0000000140009070 f i libucrtd:invalid_parameter.obj
 0001:00008070       ?value@?$dual_state_global@PEAU__crt_multibyte_data@@@__crt_state_management@@QEAAAEAPEAU__crt_multibyte_data@@XZ 0000000140009070 f i libucrtd:mbctype.obj
 0001:00008070       ?value@?$dual_state_global@PEAU__crt_locale_data@@@__crt_state_management@@QEAAAEAPEAU__crt_locale_data@@XZ 0000000140009070 f i libucrtd:wsetlocale.obj
 0001:00008070       ?value@?$dual_state_global@PEAE@__crt_state_management@@QEAAAEAPEAEXZ 0000000140009070 f i libucrtd:mbctype.obj
 0001:00008090       __acrt_has_user_matherr    0000000140009090 f   libucrtd:matherr.obj
 0001:000080d0       __acrt_initialize_user_matherr 00000001400090d0 f   libucrtd:matherr.obj
 0001:000080f0       __acrt_invoke_user_matherr 00000001400090f0 f   libucrtd:matherr.obj
 0001:00008140       __setusermatherr           0000000140009140 f   libucrtd:matherr.obj
 0001:00008510       ??$get_module_file_name@$$TAEAY0BAF@DH@?$__crt_char_traits@D@@SAK$$QEA$$TAEAY0BAF@D$$QEAH@Z 0000000140009510 f i libucrtd:argv_parsing.obj
 0001:00008510       ??$get_module_file_name@AEAPEAUHINSTANCE__@@AEAY0BAF@DK@?$__crt_char_traits@D@@SAKAEAPEAUHINSTANCE__@@AEAY0BAF@D$$QEAK@Z 0000000140009510 f i libucrtd:dbgrpt.obj
 0001:000089e0       ??$set_program_name@PEAD@?$__crt_char_traits@D@@SAX$$QEAPEAD@Z 00000001400099e0 f i libucrtd:argv_parsing.obj
 0001:00008b10       __acrt_allocate_buffer_for_argv 0000000140009b10 f   libucrtd:argv_parsing.obj
 0001:00008c30       _configure_narrow_argv     0000000140009c30 f   libucrtd:argv_parsing.obj
 0001:00008c50       _set_pgmptr                0000000140009c50 f i libucrtd:argv_parsing.obj
 0001:00008e80       ??$tcslen@AEAPEAD@?$__crt_char_traits@D@@SA_KAEAPEAD@Z 0000000140009e80 f i libucrtd:environment_initialization.obj
 0001:00008ecc       ??B?$__crt_unique_heap_ptr@PEADU__crt_internal_free_policy@@@@QEBA_NXZ 0000000140009ecc f i libucrtd:environment_initialization.obj
 0001:00008ed4       ?detach@?$__crt_unique_heap_ptr@DU__crt_internal_free_policy@@@@QEAAPEADXZ 0000000140009ed4 f i libucrtd:environment_initialization.obj
 0001:00008edc       __dcrt_uninitialize_environments_nolock 0000000140009edc f   libucrtd:environment_initialization.obj
 0001:00008f14       _initialize_narrow_environment 0000000140009f14 f   libucrtd:environment_initialization.obj
 0001:00009060       _get_narrow_winmain_command_line 000000014000a060 f   libucrtd:argv_winmain.obj
 0001:00009070       _initterm                  000000014000a070 f   libucrtd:initterm.obj
 0001:000090d0       _initterm_e                000000014000a0d0 f   libucrtd:initterm.obj
 0001:000091e0       ??$__crt_get_proc_address@P6AXI@Z@@YAP6AXI@ZQEAUHINSTANCE__@@QEBD@Z 000000014000a1e0 f i libucrtd:exit.obj
 0001:00009210       ??$__crt_interlocked_read@J@@YAJPEDJ@Z 000000014000a210 f i libucrtd:exit.obj
 0001:000092a0       ??1?$__crt_unique_handle_t@U__crt_hmodule_traits@@@@QEAA@XZ 000000014000a2a0 f i libucrtd:exit.obj
 0001:00009400       ?__acrt_select_exit_lock@@YA?AW4__acrt_lock_id@@XZ 000000014000a400 f i libucrtd:exit.obj
 0001:00009410       ?__crt_interlocked_read_32@@YAHPEDH@Z 000000014000a410 f i libucrtd:exit.obj
 0001:00009450       ?close@?$__crt_unique_handle_t@U__crt_hmodule_traits@@@@QEAAXXZ 000000014000a450 f i libucrtd:exit.obj
 0001:00009490       ?close@__crt_hmodule_traits@@SA_NPEAUHINSTANCE__@@@Z 000000014000a490 f i libucrtd:exit.obj
 0001:00009750       __acrt_initialize_thread_local_exit_callback 000000014000a750 f   libucrtd:exit.obj
 0001:00009770       _c_exit                    000000014000a770 f   libucrtd:exit.obj
 0001:00009790       _cexit                     000000014000a790 f   libucrtd:exit.obj
 0001:000097b0       _exit                      000000014000a7b0 f   libucrtd:exit.obj
 0001:000097d0       _register_thread_local_exe_atexit_callback 000000014000a7d0 f   libucrtd:exit.obj
 0001:00009820       exit                       000000014000a820 f   libucrtd:exit.obj
 0001:00009840       ?value@?$dual_state_global@J@__crt_state_management@@QEAAAEAJXZ 000000014000a840 f i libucrtd:new_mode.obj
 0001:00009840       ?value@?$dual_state_global@H@__crt_state_management@@QEAAAEAHXZ 000000014000a840 f i libucrtd:setmode.obj
 0001:00009860       _set_fmode                 000000014000a860 f   libucrtd:setmode.obj
 0001:00009aa0       __acrt_disable_global_locale_sync 000000014000aaa0 f i libucrtd:wsetlocale.obj
 0001:00009ad0       __acrt_enable_global_locale_sync 000000014000aad0 f i libucrtd:wsetlocale.obj
 0001:00009b00       __acrt_set_locale_changed  000000014000ab00 f   libucrtd:wsetlocale.obj
 0001:00009b10       __acrt_uninitialize_locale 000000014000ab10 f   libucrtd:wsetlocale.obj
 0001:00009b40       __ascii_tolower            000000014000ab40 f i libucrtd:wsetlocale.obj
 0001:00009b60       __ascii_towlower           000000014000ab60 f i libucrtd:wsetlocale.obj
 0001:00009b80       _configthreadlocale        000000014000ab80 f   libucrtd:wsetlocale.obj
 0001:00009ce0       _query_new_mode            000000014000ace0 f   libucrtd:new_mode.obj
 0001:00009d00       _set_new_mode              000000014000ad00 f   libucrtd:new_mode.obj
 0001:00009dd0       __p__commode               000000014000add0 f   libucrtd:ncommode.obj
 0001:0000a460       _crt_atexit                000000014000b460 f   libucrtd:onexit.obj
 0001:0000a480       _execute_onexit_table      000000014000b480 f   libucrtd:onexit.obj
 0001:0000a4c0       _initialize_onexit_table   000000014000b4c0 f   libucrtd:onexit.obj
 0001:0000a540       _register_onexit_function  000000014000b540 f   libucrtd:onexit.obj
 0001:0000a5d0       __acrt_uninitialize_command_line 000000014000b5d0 f   libucrtd:argv_data.obj
 0001:0000a830       __acrt_initialize          000000014000b830 f   libucrtd:initialization.obj
 0001:0000a860       __acrt_uninitialize        000000014000b860 f   libucrtd:initialization.obj
 0001:0000a890       terminate                  000000014000b890 f   libucrtd:terminate.obj
 0001:0000a8d0       ??0_LocaleUpdate@@QEAA@QEAU__crt_locale_pointers@@@Z 000000014000b8d0 f i libucrtd:debug_heap.obj
 0001:0000a9f0       ??1_LocaleUpdate@@QEAA@XZ  000000014000b9f0 f i libucrtd:debug_heap.obj
 0001:0000aa20       ?GetLocaleT@_LocaleUpdate@@QEAAPEAU__crt_locale_pointers@@XZ 000000014000ba20 f i libucrtd:debug_heap.obj
 0001:0000ca00       _CrtCheckMemory            000000014000da00 f   libucrtd:debug_heap.obj
 0001:0000cb90       _CrtDumpMemoryLeaks        000000014000db90 f   libucrtd:debug_heap.obj
 0001:0000cc50       _CrtIsValidHeapPointer     000000014000dc50 f   libucrtd:debug_heap.obj
 0001:0000cc90       _CrtIsValidPointer         000000014000dc90 f   libucrtd:debug_heap.obj
 0001:0000ccd0       _CrtMemCheckpoint          000000014000dcd0 f   libucrtd:debug_heap.obj
 0001:0000cf50       _CrtMemDumpAllObjectsSince 000000014000df50 f   libucrtd:debug_heap.obj
 0001:0000cfb0       _CrtSetDbgFlag             000000014000dfb0 f   libucrtd:debug_heap.obj
 0001:0000d110       _CrtSetDumpClient          000000014000e110 f   libucrtd:debug_heap.obj
 0001:0000d140       __acrt_get_locale_data_prefix 000000014000e140 f i libucrtd:debug_heap.obj
 0001:0000d160       __acrt_locale_changed      000000014000e160 f i libucrtd:debug_heap.obj
 0001:0000d190       _calloc_dbg                000000014000e190 f   libucrtd:debug_heap.obj
 0001:0000d230       _chvalidchk_l              000000014000e230 f i libucrtd:debug_heap.obj
 0001:0000d260       _free_dbg                  000000014000e260 f   libucrtd:debug_heap.obj
 0001:0000d2d0       _invoke_watson_if_oneof    000000014000e2d0 f i libucrtd:debug_heap.obj
 0001:0000d330       _ischartype_l              000000014000e330 f i libucrtd:debug_heap.obj
 0001:0000d3c0       _malloc_dbg                000000014000e3c0 f   libucrtd:debug_heap.obj
 0001:0000d400       _msize_dbg                 000000014000e400 f   libucrtd:debug_heap.obj
 0001:0000d5a0       _realloc_dbg               000000014000e5a0 f   libucrtd:debug_heap.obj
 0001:0000d610       _recalloc_dbg              000000014000e610 f   libucrtd:debug_heap.obj
 0001:0000dbe0       strcpy_s                   000000014000ebe0 f   libucrtd:strcpy_s.obj
 0001:0000dc20       strcmp                     000000014000ec20 f   libucrtd:strcmp.obj
 0001:0000dca0       strlen                     000000014000eca0 f   libucrtd:strlen.obj
 0001:0000dd50       abort                      000000014000ed50 f   libucrtd:abort.obj
 0001:0000eb80       ??$get_module_file_name@AEAPEAUHINSTANCE__@@AEAY0BAF@_WK@?$__crt_char_traits@_W@@SAKAEAPEAUHINSTANCE__@@AEAY0BAF@_W$$QEAK@Z 000000014000fb80 f i libucrtd:dbgrpt.obj
 0001:0000ebc0       ??$tcscpy_s@AEAY0BAF@D_KPEBD@?$__crt_char_traits@D@@SAHAEAY0BAF@D$$QEA_K$$QEAPEBD@Z 000000014000fbc0 f i libucrtd:dbgrpt.obj
 0001:0000ec00       ??$tcscpy_s@AEAY0BAF@_W_KPEB_W@?$__crt_char_traits@_W@@SAHAEAY0BAF@_W$$QEA_K$$QEAPEB_W@Z 000000014000fc00 f i libucrtd:dbgrpt.obj
 0001:0000ec40       ??$tcslen@AEAY0BAF@D@?$__crt_char_traits@D@@SA_KAEAY0BAF@D@Z 000000014000fc40 f i libucrtd:dbgrpt.obj
 0001:0000ec60       ??$tcslen@AEAY0BAF@_W@?$__crt_char_traits@_W@@SA_KAEAY0BAF@_W@Z 000000014000fc60 f i libucrtd:dbgrpt.obj
 0001:0000ec80       ??$tcslen@AEBQEBD@?$__crt_char_traits@D@@SA_KAEBQEBD@Z 000000014000fc80 f i libucrtd:dbgrpt.obj
 0001:0000eca0       ??$tcslen@AEBQEB_W@?$__crt_char_traits@_W@@SA_KAEBQEB_W@Z 000000014000fca0 f i libucrtd:dbgrpt.obj
 0001:0000ed00       _CrtDbgReport              000000014000fd00 f   libucrtd:dbgrpt.obj
 0001:0000ed80       _CrtDbgReportW             000000014000fd80 f   libucrtd:dbgrpt.obj
 0001:0000ee00       __acrt_MessageWindowA      000000014000fe00 f   libucrtd:dbgrpt.obj
 0001:0000ee50       __acrt_MessageWindowW      000000014000fe50 f   libucrtd:dbgrpt.obj
 0001:0000eea0       _snwprintf_s               000000014000fea0 f i libucrtd:dbgrpt.obj
 0001:0000ef10       _vsnwprintf_s_l            000000014000ff10 f i libucrtd:dbgrpt.obj
 0001:0000ef90       wcsncmp                    000000014000ff90 f   libucrtd:wcsncmp.obj
 0001:0000f020       ??$?0AEBV?$string_output_adapter@D@__crt_stdio_output@@AEB_KAEBQEBDAEBQEAU__crt_locale_pointers@@AEBQEAD@?$format_validation_base@DV?$string_output_adapter@D@__crt_stdio_output@@@__crt_stdio_output@@IEAA@AEBV?$string_output_adapter@D@1@AEB_KAEBQEBDAEBQEAU__crt_locale_pointers@@AEBQEAD@Z 0000000140010020 f i libucrtd:output.obj
 0001:0000f070       ??$?0AEBV?$string_output_adapter@D@__crt_stdio_output@@AEB_KAEBQEBDAEBQEAU__crt_locale_pointers@@AEBQEAD@?$standard_base@DV?$string_output_adapter@D@__crt_stdio_output@@@__crt_stdio_output@@IEAA@AEBV?$string_output_adapter@D@1@AEB_KAEBQEBDAEBQEAU__crt_locale_pointers@@AEBQEAD@Z 0000000140010070 f i libucrtd:output.obj
 0001:0000f0e0       ??$?0AEBV?$string_output_adapter@_W@__crt_stdio_output@@AEB_KAEBQEB_WAEBQEAU__crt_locale_pointers@@AEBQEAD@?$format_validation_base@_WV?$string_output_adapter@_W@__crt_stdio_output@@@__crt_stdio_output@@IEAA@AEBV?$string_output_adapter@_W@1@AEB_KAEBQEB_WAEBQEAU__crt_locale_pointers@@AEBQEAD@Z 00000001400100e0 f i libucrtd:output.obj
 0001:0000f130       ??$?0AEBV?$string_output_adapter@_W@__crt_stdio_output@@AEB_KAEBQEB_WAEBQEAU__crt_locale_pointers@@AEBQEAD@?$standard_base@_WV?$string_output_adapter@_W@__crt_stdio_output@@@__crt_stdio_output@@IEAA@AEBV?$string_output_adapter@_W@1@AEB_KAEBQEB_WAEBQEAU__crt_locale_pointers@@AEBQEAD@Z 0000000140010130 f i libucrtd:output.obj
 0001:00010ab0       ??$count@D@formatting_buffer@__crt_stdio_output@@QEBA_KXZ 0000000140011ab0 f i libucrtd:output.obj
 0001:00010b00       ??$count@_W@formatting_buffer@__crt_stdio_output@@QEBA_KXZ 0000000140011b00 f i libucrtd:output.obj
 0001:00010b50       ??$data@D@formatting_buffer@__crt_stdio_output@@QEAAPEADXZ 0000000140011b50 f i libucrtd:output.obj
 0001:00010b50       ??$data@_W@formatting_buffer@__crt_stdio_output@@QEAAPEA_WXZ 0000000140011b50 f i libucrtd:output.obj
 0001:00010ba0       ??$ensure_buffer_is_big_enough@D@formatting_buffer@__crt_stdio_output@@QEAA_N_K@Z 0000000140011ba0 f i libucrtd:output.obj
 0001:00010cd0       ??$ensure_buffer_is_big_enough@_W@formatting_buffer@__crt_stdio_output@@QEAA_N_K@Z 0000000140011cd0 f i libucrtd:output.obj
 0001:00010e00       ??$extract_argument_from_va_list@C_J@?$standard_base@DV?$string_output_adapter@D@__crt_stdio_output@@@__crt_stdio_output@@IEAA_NAEA_J@Z 0000000140011e00 f i libucrtd:output.obj
 0001:00010e00       ??$extract_argument_from_va_list@C_J@?$standard_base@_WV?$string_output_adapter@_W@__crt_stdio_output@@@__crt_stdio_output@@IEAA_NAEA_J@Z 0000000140011e00 f i libucrtd:output.obj
 0001:00010e40       ??$extract_argument_from_va_list@E_J@?$standard_base@_WV?$string_output_adapter@_W@__crt_stdio_output@@@__crt_stdio_output@@IEAA_NAEA_J@Z 0000000140011e40 f i libucrtd:output.obj
 0001:00010e40       ??$extract_argument_from_va_list@E_J@?$standard_base@DV?$string_output_adapter@D@__crt_stdio_output@@@__crt_stdio_output@@IEAA_NAEA_J@Z 0000000140011e40 f i libucrtd:output.obj
 0001:00010e80       ??$extract_argument_from_va_list@F_J@?$standard_base@_WV?$string_output_adapter@_W@__crt_stdio_output@@@__crt_stdio_output@@IEAA_NAEA_J@Z 0000000140011e80 f i libucrtd:output.obj
 0001:00010e80       ??$extract_argument_from_va_list@F_J@?$standard_base@DV?$string_output_adapter@D@__crt_stdio_output@@@__crt_stdio_output@@IEAA_NAEA_J@Z 0000000140011e80 f i libucrtd:output.obj
 0001:00010ec0       ??$extract_argument_from_va_list@GD@?$standard_base@DV?$string_output_adapter@D@__crt_stdio_output@@@__crt_stdio_output@@IEAA_NAEAD@Z 0000000140011ec0 f i libucrtd:output.obj
 0001:00010ef0       ??$extract_argument_from_va_list@G_J@?$standard_base@_WV?$string_output_adapter@_W@__crt_stdio_output@@@__crt_stdio_output@@IEAA_NAEA_J@Z 0000000140011ef0 f i libucrtd:output.obj
 0001:00010ef0       ??$extract_argument_from_va_list@G_J@?$standard_base@DV?$string_output_adapter@D@__crt_stdio_output@@@__crt_stdio_output@@IEAA_NAEA_J@Z 0000000140011ef0 f i libucrtd:output.obj
 0001:00010f30       ??$extract_argument_from_va_list@H_J@?$standard_base@DV?$string_output_adapter@D@__crt_stdio_output@@@__crt_stdio_output@@IEAA_NAEA_J@Z 0000000140011f30 f i libucrtd:output.obj
 0001:00010f30       ??$extract_argument_from_va_list@H_J@?$standard_base@_WV?$string_output_adapter@_W@__crt_stdio_output@@@__crt_stdio_output@@IEAA_NAEA_J@Z 0000000140011f30 f i libucrtd:output.obj
 0001:00010f60       ??$extract_argument_from_va_list@I_J@?$standard_base@_WV?$string_output_adapter@_W@__crt_stdio_output@@@__crt_stdio_output@@IEAA_NAEA_J@Z 0000000140011f60 f i libucrtd:output.obj
 0001:00010f60       ??$extract_argument_from_va_list@I_J@?$standard_base@DV?$string_output_adapter@D@__crt_stdio_output@@@__crt_stdio_output@@IEAA_NAEA_J@Z 0000000140011f60 f i libucrtd:output.obj
 0001:00010f90       ??$extract_argument_from_va_list@PEAUansi_string@?1??type_case_Z@?$output_processor@DV?$string_output_adapter@D@__crt_stdio_output@@V?$format_validation_base@DV?$string_output_adapter@D@__crt_stdio_output@@@2@@__crt_stdio_output@@AEAA_NXZ@PEAU1?1??234@AEAA_NXZ@@?$standard_base@DV?$string_output_adapter@D@__crt_stdio_output@@@__crt_stdio_output@@IEAA_NAEAPEAUansi_string@?1??type_case_Z@?$output_processor@DV?$string_output_adapter@D@__crt_stdio_output@@V?$format_validation_base@DV?$string_output_adapter@D@__crt_stdio_output@@@2@@1@AEAA_NXZ@@Z 0000000140011f90 f i libucrtd:output.obj
 0001:00010f90       ??$extract_argument_from_va_list@_J_J@?$standard_base@DV?$string_output_adapter@D@__crt_stdio_output@@@__crt_stdio_output@@IEAA_NAEA_J@Z 0000000140011f90 f i libucrtd:output.obj
 0001:00010f90       ??$extract_argument_from_va_list@_J_J@?$standard_base@_WV?$string_output_adapter@_W@__crt_stdio_output@@@__crt_stdio_output@@IEAA_NAEA_J@Z 0000000140011f90 f i libucrtd:output.obj
 0001:00010f90       ??$extract_argument_from_va_list@PEAXPEAX@?$standard_base@_WV?$string_output_adapter@_W@__crt_stdio_output@@@__crt_stdio_output@@IEAA_NAEAPEAX@Z 0000000140011f90 f i libucrtd:output.obj
 0001:00010f90       ??$extract_argument_from_va_list@PEAUansi_string@?1??type_case_Z@?$output_processor@_WV?$string_output_adapter@_W@__crt_stdio_output@@V?$format_validation_base@_WV?$string_output_adapter@_W@__crt_stdio_output@@@2@@__crt_stdio_output@@AEAA_NXZ@PEAU1?1??234@AEAA_NXZ@@?$standard_base@_WV?$string_output_adapter@_W@__crt_stdio_output@@@__crt_stdio_output@@IEAA_NAEAPEAUansi_string@?1??type_case_Z@?$output_processor@_WV?$string_output_adapter@_W@__crt_stdio_output@@V?$format_validation_base@_WV?$string_output_adapter@_W@__crt_stdio_output@@@2@@1@AEAA_NXZ@@Z 0000000140011f90 f i libucrtd:output.obj
 0001:00010f90       ??$extract_argument_from_va_list@_K_J@?$standard_base@_WV?$string_output_adapter@_W@__crt_stdio_output@@@__crt_stdio_output@@IEAA_NAEA_J@Z 0000000140011f90 f i libucrtd:output.obj
 0001:00010f90       ??$extract_argument_from_va_list@PEADPEAD@?$standard_base@_WV?$string_output_adapter@_W@__crt_stdio_output@@@__crt_stdio_output@@IEAA_NAEAPEAD@Z 0000000140011f90 f i libucrtd:output.obj
 0001:00010f90       ??$extract_argument_from_va_list@PEAXPEAX@?$standard_base@DV?$string_output_adapter@D@__crt_stdio_output@@@__crt_stdio_output@@IEAA_NAEAPEAX@Z 0000000140011f90 f i libucrtd:output.obj
 0001:00010f90       ??$extract_argument_from_va_list@_K_J@?$standard_base@DV?$string_output_adapter@D@__crt_stdio_output@@@__crt_stdio_output@@IEAA_NAEA_J@Z 0000000140011f90 f i libucrtd:output.obj
 0001:00010f90       ??$extract_argument_from_va_list@PEADPEAD@?$standard_base@DV?$string_output_adapter@D@__crt_stdio_output@@@__crt_stdio_output@@IEAA_NAEAPEAD@Z 0000000140011f90 f i libucrtd:output.obj
 0001:00010fc0       ??$extract_argument_from_va_list@U_CRT_DOUBLE@@U1@@?$standard_base@DV?$string_output_adapter@D@__crt_stdio_output@@@__crt_stdio_output@@IEAA_NAEAU_CRT_DOUBLE@@@Z 0000000140011fc0 f i libucrtd:output.obj
 0001:00010fc0       ??$extract_argument_from_va_list@U_CRT_DOUBLE@@U1@@?$standard_base@_WV?$string_output_adapter@_W@__crt_stdio_output@@@__crt_stdio_output@@IEAA_NAEAU_CRT_DOUBLE@@@Z 0000000140011fc0 f i libucrtd:output.obj
 0001:00011010       ??$extract_argument_from_va_list@_W_W@?$standard_base@_WV?$string_output_adapter@_W@__crt_stdio_output@@@__crt_stdio_output@@IEAA_NAEA_W@Z 0000000140012010 f i libucrtd:output.obj
 0001:00011010       ??$extract_argument_from_va_list@_W_W@?$standard_base@DV?$string_output_adapter@D@__crt_stdio_output@@@__crt_stdio_output@@IEAA_NAEA_W@Z 0000000140012010 f i libucrtd:output.obj
 0001:00011040       ??$is_wide_character_specifier@D@__crt_stdio_output@@YA_N_KDW4length_modifier@0@@Z 0000000140012040 f i libucrtd:output.obj
 0001:000110e0       ??$is_wide_character_specifier@_W@__crt_stdio_output@@YA_N_K_WW4length_modifier@0@@Z 00000001400120e0 f i libucrtd:output.obj
 0001:000111b0       ??$read_va_arg@E@__crt_stdio_output@@YAEAEAPEAD@Z 00000001400121b0 f i libucrtd:output.obj
 0001:000111b0       ??$read_va_arg@C@__crt_stdio_output@@YACAEAPEAD@Z 00000001400121b0 f i libucrtd:output.obj
 0001:00011220       ??$read_va_arg@G@__crt_stdio_output@@YAGAEAPEAD@Z 0000000140012220 f i libucrtd:output.obj
 0001:00011220       ??$read_va_arg@F@__crt_stdio_output@@YAFAEAPEAD@Z 0000000140012220 f i libucrtd:output.obj
 0001:00011220       ??$read_va_arg@_W@__crt_stdio_output@@YA_WAEAPEAD@Z 0000000140012220 f i libucrtd:output.obj
 0001:00011290       ??$read_va_arg@I@__crt_stdio_output@@YAIAEAPEAD@Z 0000000140012290 f i libucrtd:output.obj
 0001:00011290       ??$read_va_arg@H@__crt_stdio_output@@YAHAEAPEAD@Z 0000000140012290 f i libucrtd:output.obj
 0001:000112f0       ??$read_va_arg@U_CRT_DOUBLE@@@__crt_stdio_output@@YA?AU_CRT_DOUBLE@@AEAPEAD@Z 00000001400122f0 f i libucrtd:output.obj
 0001:000112f0       ??$read_va_arg@PEAD@__crt_stdio_output@@YAPEADAEAPEAD@Z 00000001400122f0 f i libucrtd:output.obj
 0001:000112f0       ??$read_va_arg@_J@__crt_stdio_output@@YA_JAEAPEAD@Z 00000001400122f0 f i libucrtd:output.obj
 0001:000112f0       ??$read_va_arg@PEAUansi_string@?1??type_case_Z@?$output_processor@_WV?$string_output_adapter@_W@__crt_stdio_output@@V?$format_validation_base@_WV?$string_output_adapter@_W@__crt_stdio_output@@@2@@__crt_stdio_output@@AEAA_NXZ@@__crt_stdio_output@@YAPEAUansi_string@?1??type_case_Z@?$output_processor@_WV?$string_output_adapter@_W@__crt_stdio_output@@V?$format_validation_base@_WV?$string_output_adapter@_W@__crt_stdio_output@@@2@@0@AEAA_NXZ@AEAPEAD@Z 00000001400122f0 f i libucrtd:output.obj
 0001:000112f0       ??$read_va_arg@PEAX@__crt_stdio_output@@YAPEAXAEAPEAD@Z 00000001400122f0 f i libucrtd:output.obj
 0001:000112f0       ??$read_va_arg@PEAUansi_string@?1??type_case_Z@?$output_processor@DV?$string_output_adapter@D@__crt_stdio_output@@V?$format_validation_base@DV?$string_output_adapter@D@__crt_stdio_output@@@2@@__crt_stdio_output@@AEAA_NXZ@@__crt_stdio_output@@YAPEAUansi_string@?1??type_case_Z@?$output_processor@DV?$string_output_adapter@D@__crt_stdio_output@@V?$format_validation_base@DV?$string_output_adapter@D@__crt_stdio_output@@@2@@0@AEAA_NXZ@AEAPEAD@Z 00000001400122f0 f i libucrtd:output.obj
 0001:000112f0       ??$read_va_arg@_K@__crt_stdio_output@@YA_KAEAPEAD@Z 00000001400122f0 f i libucrtd:output.obj
 0001:00011360       ??$scratch_count@D@formatting_buffer@__crt_stdio_output@@QEBA_KXZ 0000000140012360 f i libucrtd:output.obj
 0001:00011380       ??$scratch_data@D@formatting_buffer@__crt_stdio_output@@QEAAPEADXZ 0000000140012380 f i libucrtd:output.obj
 0001:000113f0       ??$tcstol@PEBDPEAPEADH@?$__crt_char_traits@D@@SAJ$$QEAPEBD$$QEAPEAPEAD$$QEAH@Z 00000001400123f0 f i libucrtd:output.obj
 0001:00011430       ??$tcstol@PEB_WPEAPEA_WH@?$__crt_char_traits@_W@@SAJ$$QEAPEB_W$$QEAPEAPEA_W$$QEAH@Z 0000000140012430 f i libucrtd:output.obj
 0001:00011470       ??$type_case_integer_parse_into_buffer@I@?$output_processor@DV?$string_output_adapter@D@__crt_stdio_output@@V?$format_validation_base@DV?$string_output_adapter@D@__crt_stdio_output@@@2@@__crt_stdio_output@@AEAAXII_N@Z 0000000140012470 f i libucrtd:output.obj
 0001:000115a0       ??$type_case_integer_parse_into_buffer@I@?$output_processor@_WV?$string_output_adapter@_W@__crt_stdio_output@@V?$format_validation_base@_WV?$string_output_adapter@_W@__crt_stdio_output@@@2@@__crt_stdio_output@@AEAAXII_N@Z 00000001400125a0 f i libucrtd:output.obj
 0001:000116e0       ??$type_case_integer_parse_into_buffer@_K@?$output_processor@DV?$string_output_adapter@D@__crt_stdio_output@@V?$format_validation_base@DV?$string_output_adapter@D@__crt_stdio_output@@@2@@__crt_stdio_output@@AEAAX_KI_N@Z 00000001400126e0 f i libucrtd:output.obj
 0001:00011830       ??$type_case_integer_parse_into_buffer@_K@?$output_processor@_WV?$string_output_adapter@_W@__crt_stdio_output@@V?$format_validation_base@_WV?$string_output_adapter@_W@__crt_stdio_output@@@2@@__crt_stdio_output@@AEAAX_KI_N@Z 0000000140012830 f i libucrtd:output.obj
 0001:00011990       ??$write_multiple_characters@V?$string_output_adapter@D@__crt_stdio_output@@D@__crt_stdio_output@@YAXAEBV?$string_output_adapter@D@0@DHQEAH@Z 0000000140012990 f i libucrtd:output.obj
 0001:000119f0       ??$write_multiple_characters@V?$string_output_adapter@_W@__crt_stdio_output@@D@__crt_stdio_output@@YAXAEBV?$string_output_adapter@_W@0@DHQEAH@Z 00000001400129f0 f i libucrtd:output.obj
 0001:00011a50       ??0?$common_data@D@__crt_stdio_output@@IEAA@XZ 0000000140012a50 f i libucrtd:output.obj
 0001:00011b20       ??0?$common_data@_W@__crt_stdio_output@@IEAA@XZ 0000000140012b20 f i libucrtd:output.obj
 0001:00011bf0       ??0?$output_adapter_data@DV?$string_output_adapter@D@__crt_stdio_output@@@__crt_stdio_output@@IEAA@AEBV?$string_output_adapter@D@1@_KQEBDQEAU__crt_locale_pointers@@QEAD@Z 0000000140012bf0 f i libucrtd:output.obj
 0001:00011c70       ??0?$output_adapter_data@_WV?$string_output_adapter@_W@__crt_stdio_output@@@__crt_stdio_output@@IEAA@AEBV?$string_output_adapter@_W@1@_KQEB_WQEAU__crt_locale_pointers@@QEAD@Z 0000000140012c70 f i libucrtd:output.obj
 0001:00011cf0       ??0?$output_processor@DV?$string_output_adapter@D@__crt_stdio_output@@V?$format_validation_base@DV?$string_output_adapter@D@__crt_stdio_output@@@2@@__crt_stdio_output@@QEAA@AEBV?$string_output_adapter@D@1@_KQEBDQEAU__crt_locale_pointers@@QEAD@Z 0000000140012cf0 f i libucrtd:output.obj
 0001:00011d40       ??0?$output_processor@_WV?$string_output_adapter@_W@__crt_stdio_output@@V?$format_validation_base@_WV?$string_output_adapter@_W@__crt_stdio_output@@@2@@__crt_stdio_output@@QEAA@AEBV?$string_output_adapter@_W@1@_KQEB_WQEAU__crt_locale_pointers@@QEAD@Z 0000000140012d40 f i libucrtd:output.obj
 0001:00011d90       ??0__crt_deferred_errno_cache@@QEAA@XZ 0000000140012d90 f i libucrtd:output.obj
 0001:00011db0       ??0__crt_errno_guard@@QEAA@QEAH@Z 0000000140012db0 f i libucrtd:output.obj
 0001:00011df0       ??0formatting_buffer@__crt_stdio_output@@QEAA@XZ 0000000140012df0 f i libucrtd:output.obj
 0001:00011e30       ??1?$common_data@D@__crt_stdio_output@@QEAA@XZ 0000000140012e30 f i libucrtd:output.obj
 0001:00011e30       ??1?$common_data@_W@__crt_stdio_output@@QEAA@XZ 0000000140012e30 f i libucrtd:output.obj
 0001:00011e50       ??1?$format_validation_base@DV?$string_output_adapter@D@__crt_stdio_output@@@__crt_stdio_output@@QEAA@XZ 0000000140012e50 f i libucrtd:output.obj
 0001:00011e50       ??1?$format_validation_base@_WV?$string_output_adapter@_W@__crt_stdio_output@@@__crt_stdio_output@@QEAA@XZ 0000000140012e50 f i libucrtd:output.obj
 0001:00011e70       ??1?$output_adapter_data@_WV?$string_output_adapter@_W@__crt_stdio_output@@@__crt_stdio_output@@QEAA@XZ 0000000140012e70 f i libucrtd:output.obj
 0001:00011e70       ??1?$output_adapter_data@DV?$string_output_adapter@D@__crt_stdio_output@@@__crt_stdio_output@@QEAA@XZ 0000000140012e70 f i libucrtd:output.obj
 0001:00011e90       ??1?$output_processor@DV?$string_output_adapter@D@__crt_stdio_output@@V?$format_validation_base@DV?$string_output_adapter@D@__crt_stdio_output@@@2@@__crt_stdio_output@@QEAA@XZ 0000000140012e90 f i libucrtd:output.obj
 0001:00011e90       ??1?$output_processor@_WV?$string_output_adapter@_W@__crt_stdio_output@@V?$format_validation_base@_WV?$string_output_adapter@_W@__crt_stdio_output@@@2@@__crt_stdio_output@@QEAA@XZ 0000000140012e90 f i libucrtd:output.obj
 0001:00011eb0       ??1?$standard_base@_WV?$string_output_adapter@_W@__crt_stdio_output@@@__crt_stdio_output@@QEAA@XZ 0000000140012eb0 f i libucrtd:output.obj
 0001:00011eb0       ??1?$standard_base@DV?$string_output_adapter@D@__crt_stdio_output@@@__crt_stdio_output@@QEAA@XZ 0000000140012eb0 f i libucrtd:output.obj
 0001:00011ed0       ??1__crt_errno_guard@@QEAA@XZ 0000000140012ed0 f i libucrtd:output.obj
 0001:00011f00       ??1formatting_buffer@__crt_stdio_output@@QEAA@XZ 0000000140012f00 f i libucrtd:output.obj
 0001:00011f30       ??4?$__crt_unique_heap_ptr@DU__crt_internal_free_policy@@@@QEAAAEAV0@$$QEAV0@@Z 0000000140012f30 f i libucrtd:output.obj
 0001:00011f70       ??A?$spectre_mitigated_lookup_table@Ustate_transition_pair@__crt_stdio_output@@$0IA@@__crt_stdio_output@@QEBAAEBUstate_transition_pair@1@_K@Z 0000000140012f70 f i libucrtd:output.obj
 0001:00011f90       ?adjust_hexit@?$output_processor@_WV?$string_output_adapter@_W@__crt_stdio_output@@V?$format_validation_base@_WV?$string_output_adapter@_W@__crt_stdio_output@@@2@@__crt_stdio_output@@CADH_N@Z 0000000140012f90 f i libucrtd:output.obj
 0001:00011f90       ?adjust_hexit@?$output_processor@DV?$string_output_adapter@D@__crt_stdio_output@@V?$format_validation_base@DV?$string_output_adapter@D@__crt_stdio_output@@@2@@__crt_stdio_output@@CADH_N@Z 0000000140012f90 f i libucrtd:output.obj
 0001:00011fe0       ?advance_to_next_pass@?$standard_base@_WV?$string_output_adapter@_W@__crt_stdio_output@@@__crt_stdio_output@@IEAA_NXZ 0000000140012fe0 f i libucrtd:output.obj
 0001:00011fe0       ?advance_to_next_pass@?$standard_base@DV?$string_output_adapter@D@__crt_stdio_output@@@__crt_stdio_output@@IEAA_NXZ 0000000140012fe0 f i libucrtd:output.obj
 0001:00012030       ?crop_zeroes@__crt_stdio_output@@YAXPEADQEAU__crt_locale_pointers@@@Z 0000000140013030 f i libucrtd:output.obj
 0001:00012170       ?find_next_state@?$output_processor@DV?$string_output_adapter@D@__crt_stdio_output@@V?$format_validation_base@DV?$string_output_adapter@D@__crt_stdio_output@@@2@@__crt_stdio_output@@AEBA?AW4state@2@DW432@@Z 0000000140013170 f i libucrtd:output.obj
 0001:00012200       ?find_next_state@?$output_processor@_WV?$string_output_adapter@_W@__crt_stdio_output@@V?$format_validation_base@_WV?$string_output_adapter@_W@__crt_stdio_output@@@2@@__crt_stdio_output@@AEBA?AW4state@2@_WW432@@Z 0000000140013200 f i libucrtd:output.obj
 0001:00012290       ?force_decimal_point@__crt_stdio_output@@YAXPEADQEAU__crt_locale_pointers@@@Z 0000000140013290 f i libucrtd:output.obj
 0001:00012390       ?get@__crt_deferred_errno_cache@@QEAAAEAHXZ 0000000140013390 f i libucrtd:output.obj
 0001:000123c0       ?get_flags@__crt_stdio_stream@@QEBAJXZ 00000001400133c0 f i libucrtd:output.obj
 0001:000123f0       ?has_flag@?$output_processor@_WV?$string_output_adapter@_W@__crt_stdio_output@@V?$format_validation_base@_WV?$string_output_adapter@_W@__crt_stdio_output@@@2@@__crt_stdio_output@@AEBA_NI@Z 00000001400133f0 f i libucrtd:output.obj
 0001:000123f0       ?has_flag@?$output_processor@DV?$string_output_adapter@D@__crt_stdio_output@@V?$format_validation_base@DV?$string_output_adapter@D@__crt_stdio_output@@@2@@__crt_stdio_output@@AEBA_NI@Z 00000001400133f0 f i libucrtd:output.obj
 0001:00012430       ?is_string_backed@__crt_stdio_stream@@QEBA_NXZ 0000000140013430 f i libucrtd:output.obj
 0001:00012470       ?narrow_null_string@?$output_processor@DV?$string_output_adapter@D@__crt_stdio_output@@V?$format_validation_base@DV?$string_output_adapter@D@__crt_stdio_output@@@2@@__crt_stdio_output@@CAPEADXZ 0000000140013470 f i libucrtd:output.obj
 0001:00012470       ?narrow_null_string@?$output_processor@_WV?$string_output_adapter@_W@__crt_stdio_output@@V?$format_validation_base@_WV?$string_output_adapter@_W@__crt_stdio_output@@@2@@__crt_stdio_output@@CAPEADXZ 0000000140013470 f i libucrtd:output.obj
 0001:00012480       ?parse_int_from_format_string@?$output_processor@DV?$string_output_adapter@D@__crt_stdio_output@@V?$format_validation_base@DV?$string_output_adapter@D@__crt_stdio_output@@@2@@__crt_stdio_output@@AEAA_NQEAH@Z 0000000140013480 f i libucrtd:output.obj
 0001:00012570       ?parse_int_from_format_string@?$output_processor@_WV?$string_output_adapter@_W@__crt_stdio_output@@V?$format_validation_base@_WV?$string_output_adapter@_W@__crt_stdio_output@@@2@@__crt_stdio_output@@AEAA_NQEAH@Z 0000000140013570 f i libucrtd:output.obj
 0001:00012660       ?process@?$output_processor@DV?$string_output_adapter@D@__crt_stdio_output@@V?$format_validation_base@DV?$string_output_adapter@D@__crt_stdio_output@@@2@@__crt_stdio_output@@QEAAHXZ 0000000140013660 f i libucrtd:output.obj
 0001:000129c0       ?process@?$output_processor@_WV?$string_output_adapter@_W@__crt_stdio_output@@V?$format_validation_base@_WV?$string_output_adapter@_W@__crt_stdio_output@@@2@@__crt_stdio_output@@QEAAHXZ 00000001400139c0 f i libucrtd:output.obj
 0001:00012d20       ?set_flag@?$output_processor@_WV?$string_output_adapter@_W@__crt_stdio_output@@V?$format_validation_base@_WV?$string_output_adapter@_W@__crt_stdio_output@@@2@@__crt_stdio_output@@AEAAXI@Z 0000000140013d20 f i libucrtd:output.obj
 0001:00012d20       ?set_flag@?$output_processor@DV?$string_output_adapter@D@__crt_stdio_output@@V?$format_validation_base@DV?$string_output_adapter@D@__crt_stdio_output@@@2@@__crt_stdio_output@@AEAAXI@Z 0000000140013d20 f i libucrtd:output.obj
 0001:00012d40       ?validate_and_update_state_at_beginning_of_format_character@?$standard_base@DV?$string_output_adapter@D@__crt_stdio_output@@@__crt_stdio_output@@IEAA_NXZ 0000000140013d40 f i libucrtd:output.obj
 0001:00012d40       ?validate_state_for_type_case_a@?$standard_base@_WV?$string_output_adapter@_W@__crt_stdio_output@@@__crt_stdio_output@@IEBA_NXZ 0000000140013d40 f i libucrtd:output.obj
 0001:00012d40       ?should_format@?$standard_base@_WV?$string_output_adapter@_W@__crt_stdio_output@@@__crt_stdio_output@@IEAA_NXZ 0000000140013d40 f i libucrtd:output.obj
 0001:00012d40       ?validate_state_for_type_case_a@?$standard_base@DV?$string_output_adapter@D@__crt_stdio_output@@@__crt_stdio_output@@IEBA_NXZ 0000000140013d40 f i libucrtd:output.obj
 0001:00012d40       ?validate_and_update_state_at_beginning_of_format_character@?$standard_base@_WV?$string_output_adapter@_W@__crt_stdio_output@@@__crt_stdio_output@@IEAA_NXZ 0000000140013d40 f i libucrtd:output.obj
 0001:00012d40       ?should_format@?$standard_base@DV?$string_output_adapter@D@__crt_stdio_output@@@__crt_stdio_output@@IEAA_NXZ 0000000140013d40 f i libucrtd:output.obj
 0001:00012d50       ?should_skip_type_state_output@?$standard_base@DV?$string_output_adapter@D@__crt_stdio_output@@@__crt_stdio_output@@IEBA_NXZ 0000000140013d50 f i libucrtd:output.obj
 0001:00012d50       ?should_skip_normal_state_processing@?$standard_base@DV?$string_output_adapter@D@__crt_stdio_output@@@__crt_stdio_output@@IEAA_NXZ 0000000140013d50 f i libucrtd:output.obj
 0001:00012d50       ?should_skip_normal_state_processing@?$standard_base@_WV?$string_output_adapter@_W@__crt_stdio_output@@@__crt_stdio_output@@IEAA_NXZ 0000000140013d50 f i libucrtd:output.obj
 0001:00012d50       ?should_skip_type_state_output@?$standard_base@_WV?$string_output_adapter@_W@__crt_stdio_output@@@__crt_stdio_output@@IEBA_NXZ 0000000140013d50 f i libucrtd:output.obj
 0001:00012d60       ?state_case_dot@?$output_processor@DV?$string_output_adapter@D@__crt_stdio_output@@V?$format_validation_base@DV?$string_output_adapter@D@__crt_stdio_output@@@2@@__crt_stdio_output@@AEAA_NXZ 0000000140013d60 f i libucrtd:output.obj
 0001:00012d60       ?state_case_dot@?$output_processor@_WV?$string_output_adapter@_W@__crt_stdio_output@@V?$format_validation_base@_WV?$string_output_adapter@_W@__crt_stdio_output@@@2@@__crt_stdio_output@@AEAA_NXZ 0000000140013d60 f i libucrtd:output.obj
 0001:00012d80       ?state_case_flag@?$output_processor@DV?$string_output_adapter@D@__crt_stdio_output@@V?$format_validation_base@DV?$string_output_adapter@D@__crt_stdio_output@@@2@@__crt_stdio_output@@AEAA_NXZ 0000000140013d80 f i libucrtd:output.obj
 0001:00012e20       ?state_case_flag@?$output_processor@_WV?$string_output_adapter@_W@__crt_stdio_output@@V?$format_validation_base@_WV?$string_output_adapter@_W@__crt_stdio_output@@@2@@__crt_stdio_output@@AEAA_NXZ 0000000140013e20 f i libucrtd:output.obj
 0001:00012ec0       ?state_case_normal@?$output_processor@DV?$string_output_adapter@D@__crt_stdio_output@@V?$format_validation_base@DV?$string_output_adapter@D@__crt_stdio_output@@@2@@__crt_stdio_output@@AEAA_NXZ 0000000140013ec0 f i libucrtd:output.obj
 0001:00012fa0       ?state_case_normal@?$output_processor@_WV?$string_output_adapter@_W@__crt_stdio_output@@V?$format_validation_base@_WV?$string_output_adapter@_W@__crt_stdio_output@@@2@@__crt_stdio_output@@AEAA_NXZ 0000000140013fa0 f i libucrtd:output.obj
 0001:00013080       ?state_case_normal_common@?$output_processor@DV?$string_output_adapter@D@__crt_stdio_output@@V?$format_validation_base@DV?$string_output_adapter@D@__crt_stdio_output@@@2@@__crt_stdio_output@@AEAA_NXZ 0000000140014080 f i libucrtd:output.obj
 0001:000130d0       ?state_case_normal_common@?$output_processor@_WV?$string_output_adapter@_W@__crt_stdio_output@@V?$format_validation_base@_WV?$string_output_adapter@_W@__crt_stdio_output@@@2@@__crt_stdio_output@@AEAA_NXZ 00000001400140d0 f i libucrtd:output.obj
 0001:00013120       ?state_case_normal_tchar@?$output_processor@DV?$string_output_adapter@D@__crt_stdio_output@@V?$format_validation_base@DV?$string_output_adapter@D@__crt_stdio_output@@@2@@__crt_stdio_output@@AEAA_ND@Z 0000000140014120 f i libucrtd:output.obj
 0001:00013260       ?state_case_normal_tchar@?$output_processor@_WV?$string_output_adapter@_W@__crt_stdio_output@@V?$format_validation_base@_WV?$string_output_adapter@_W@__crt_stdio_output@@@2@@__crt_stdio_output@@AEAA_N_W@Z 0000000140014260 f i libucrtd:output.obj
 0001:00013280       ?state_case_percent@?$output_processor@DV?$string_output_adapter@D@__crt_stdio_output@@V?$format_validation_base@DV?$string_output_adapter@D@__crt_stdio_output@@@2@@__crt_stdio_output@@AEAA_NXZ 0000000140014280 f i libucrtd:output.obj
 0001:00013280       ?state_case_percent@?$output_processor@_WV?$string_output_adapter@_W@__crt_stdio_output@@V?$format_validation_base@_WV?$string_output_adapter@_W@__crt_stdio_output@@@2@@__crt_stdio_output@@AEAA_NXZ 0000000140014280 f i libucrtd:output.obj
 0001:000132d0       ?state_case_precision@?$output_processor@DV?$string_output_adapter@D@__crt_stdio_output@@V?$format_validation_base@DV?$string_output_adapter@D@__crt_stdio_output@@@2@@__crt_stdio_output@@AEAA_NXZ 00000001400142d0 f i libucrtd:output.obj
 0001:00013350       ?state_case_precision@?$output_processor@_WV?$string_output_adapter@_W@__crt_stdio_output@@V?$format_validation_base@_WV?$string_output_adapter@_W@__crt_stdio_output@@@2@@__crt_stdio_output@@AEAA_NXZ 0000000140014350 f i libucrtd:output.obj
 0001:000133d0       ?state_case_size@?$output_processor@DV?$string_output_adapter@D@__crt_stdio_output@@V?$format_validation_base@DV?$string_output_adapter@D@__crt_stdio_output@@@2@@__crt_stdio_output@@AEAA_NXZ 00000001400143d0 f i libucrtd:output.obj
 0001:00013850       ?state_case_size@?$output_processor@_WV?$string_output_adapter@_W@__crt_stdio_output@@V?$format_validation_base@_WV?$string_output_adapter@_W@__crt_stdio_output@@@2@@__crt_stdio_output@@AEAA_NXZ 0000000140014850 f i libucrtd:output.obj
 0001:00013cd0       ?state_case_type@?$output_processor@DV?$string_output_adapter@D@__crt_stdio_output@@V?$format_validation_base@DV?$string_output_adapter@D@__crt_stdio_output@@@2@@__crt_stdio_output@@AEAA_NXZ 0000000140014cd0 f i libucrtd:output.obj
 0001:00014170       ?state_case_type@?$output_processor@_WV?$string_output_adapter@_W@__crt_stdio_output@@V?$format_validation_base@_WV?$string_output_adapter@_W@__crt_stdio_output@@@2@@__crt_stdio_output@@AEAA_NXZ 0000000140015170 f i libucrtd:output.obj
 0001:000146d0       ?state_case_width@?$output_processor@DV?$string_output_adapter@D@__crt_stdio_output@@V?$format_validation_base@DV?$string_output_adapter@D@__crt_stdio_output@@@2@@__crt_stdio_output@@AEAA_NXZ 00000001400156d0 f i libucrtd:output.obj
 0001:00014760       ?state_case_width@?$output_processor@_WV?$string_output_adapter@_W@__crt_stdio_output@@V?$format_validation_base@_WV?$string_output_adapter@_W@__crt_stdio_output@@@2@@__crt_stdio_output@@AEAA_NXZ 0000000140015760 f i libucrtd:output.obj
 0001:000147f0       ?state_count@?$format_validation_base@_WV?$string_output_adapter@_W@__crt_stdio_output@@@__crt_stdio_output@@KAIXZ 00000001400157f0 f i libucrtd:output.obj
 0001:000147f0       ?state_count@?$format_validation_base@DV?$string_output_adapter@D@__crt_stdio_output@@@__crt_stdio_output@@KAIXZ 00000001400157f0 f i libucrtd:output.obj
 0001:00014800       ?state_transition_table@?$format_validation_base@DV?$string_output_adapter@D@__crt_stdio_output@@@__crt_stdio_output@@KAAEBV?$spectre_mitigated_lookup_table@Ustate_transition_pair@__crt_stdio_output@@$0IA@@2@XZ 0000000140015800 f i libucrtd:output.obj
 0001:00014800       ?state_transition_table@?$format_validation_base@_WV?$string_output_adapter@_W@__crt_stdio_output@@@__crt_stdio_output@@KAAEBV?$spectre_mitigated_lookup_table@Ustate_transition_pair@__crt_stdio_output@@$0IA@@2@XZ 0000000140015800 f i libucrtd:output.obj
 0001:00014810       ?tchar_string@?$common_data@D@__crt_stdio_output@@IEAAAEAPEADD@Z 0000000140015810 f i libucrtd:output.obj
 0001:00014830       ?tchar_string@?$common_data@D@__crt_stdio_output@@IEAAAEAPEADXZ 0000000140015830 f i libucrtd:output.obj
 0001:00014850       ?tchar_string@?$common_data@_W@__crt_stdio_output@@IEAAAEAPEA_WXZ 0000000140015850 f i libucrtd:output.obj
 0001:00014870       ?tchar_string@?$common_data@_W@__crt_stdio_output@@IEAAAEAPEA_W_W@Z 0000000140015870 f i libucrtd:output.obj
 0001:00014890       ?to_integer_size@__crt_stdio_output@@YA_KW4length_modifier@1@@Z 0000000140015890 f i libucrtd:output.obj
 0001:00014940       ?type_case_X@?$output_processor@DV?$string_output_adapter@D@__crt_stdio_output@@V?$format_validation_base@DV?$string_output_adapter@D@__crt_stdio_output@@@2@@__crt_stdio_output@@AEAA_NXZ 0000000140015940 f i libucrtd:output.obj
 0001:00014960       ?type_case_X@?$output_processor@_WV?$string_output_adapter@_W@__crt_stdio_output@@V?$format_validation_base@_WV?$string_output_adapter@_W@__crt_stdio_output@@@2@@__crt_stdio_output@@AEAA_NXZ 0000000140015960 f i libucrtd:output.obj
 0001:00014980       ?type_case_Z@?$output_processor@DV?$string_output_adapter@D@__crt_stdio_output@@V?$format_validation_base@DV?$string_output_adapter@D@__crt_stdio_output@@@2@@__crt_stdio_output@@AEAA_NXZ 0000000140015980 f i libucrtd:output.obj
 0001:00014aa0       ?type_case_Z@?$output_processor@_WV?$string_output_adapter@_W@__crt_stdio_output@@V?$format_validation_base@_WV?$string_output_adapter@_W@__crt_stdio_output@@@2@@__crt_stdio_output@@AEAA_NXZ 0000000140015aa0 f i libucrtd:output.obj
 0001:00014bc0       ?type_case_a@?$output_processor@DV?$string_output_adapter@D@__crt_stdio_output@@V?$format_validation_base@DV?$string_output_adapter@D@__crt_stdio_output@@@2@@__crt_stdio_output@@AEAA_NXZ 0000000140015bc0 f i libucrtd:output.obj
 0001:00014f90       ?type_case_a@?$output_processor@_WV?$string_output_adapter@_W@__crt_stdio_output@@V?$format_validation_base@_WV?$string_output_adapter@_W@__crt_stdio_output@@@2@@__crt_stdio_output@@AEAA_NXZ 0000000140015f90 f i libucrtd:output.obj
 0001:00015360       ?type_case_c@?$output_processor@DV?$string_output_adapter@D@__crt_stdio_output@@V?$format_validation_base@DV?$string_output_adapter@D@__crt_stdio_output@@@2@@__crt_stdio_output@@AEAA_NXZ 0000000140016360 f i libucrtd:output.obj
 0001:00015380       ?type_case_c@?$output_processor@_WV?$string_output_adapter@_W@__crt_stdio_output@@V?$format_validation_base@_WV?$string_output_adapter@_W@__crt_stdio_output@@@2@@__crt_stdio_output@@AEAA_NXZ 0000000140016380 f i libucrtd:output.obj
 0001:000153a0       ?type_case_c_tchar@?$output_processor@DV?$string_output_adapter@D@__crt_stdio_output@@V?$format_validation_base@DV?$string_output_adapter@D@__crt_stdio_output@@@2@@__crt_stdio_output@@AEAA_ND@Z 00000001400163a0 f i libucrtd:output.obj
 0001:00015500       ?type_case_c_tchar@?$output_processor@_WV?$string_output_adapter@_W@__crt_stdio_output@@V?$format_validation_base@_WV?$string_output_adapter@_W@__crt_stdio_output@@@2@@__crt_stdio_output@@AEAA_N_W@Z 0000000140016500 f i libucrtd:output.obj
 0001:00015630       ?type_case_d@?$output_processor@DV?$string_output_adapter@D@__crt_stdio_output@@V?$format_validation_base@DV?$string_output_adapter@D@__crt_stdio_output@@@2@@__crt_stdio_output@@AEAA_NXZ 0000000140016630 f i libucrtd:output.obj
 0001:00015660       ?type_case_d@?$output_processor@_WV?$string_output_adapter@_W@__crt_stdio_output@@V?$format_validation_base@_WV?$string_output_adapter@_W@__crt_stdio_output@@@2@@__crt_stdio_output@@AEAA_NXZ 0000000140016660 f i libucrtd:output.obj
 0001:00015690       ?type_case_integer@?$output_processor@DV?$string_output_adapter@D@__crt_stdio_output@@V?$format_validation_base@DV?$string_output_adapter@D@__crt_stdio_output@@@2@@__crt_stdio_output@@AEAA_NI_N@Z 0000000140016690 f i libucrtd:output.obj
 0001:00015ae0       ?type_case_integer@?$output_processor@_WV?$string_output_adapter@_W@__crt_stdio_output@@V?$format_validation_base@_WV?$string_output_adapter@_W@__crt_stdio_output@@@2@@__crt_stdio_output@@AEAA_NI_N@Z 0000000140016ae0 f i libucrtd:output.obj
 0001:00015f30       ?type_case_n@?$output_processor@DV?$string_output_adapter@D@__crt_stdio_output@@V?$format_validation_base@DV?$string_output_adapter@D@__crt_stdio_output@@@2@@__crt_stdio_output@@AEAA_NXZ 0000000140016f30 f i libucrtd:output.obj
 0001:00016170       ?type_case_n@?$output_processor@_WV?$string_output_adapter@_W@__crt_stdio_output@@V?$format_validation_base@_WV?$string_output_adapter@_W@__crt_stdio_output@@@2@@__crt_stdio_output@@AEAA_NXZ 0000000140017170 f i libucrtd:output.obj
 0001:000163b0       ?type_case_o@?$output_processor@DV?$string_output_adapter@D@__crt_stdio_output@@V?$format_validation_base@DV?$string_output_adapter@D@__crt_stdio_output@@@2@@__crt_stdio_output@@AEAA_NXZ 00000001400173b0 f i libucrtd:output.obj
 0001:00016400       ?type_case_o@?$output_processor@_WV?$string_output_adapter@_W@__crt_stdio_output@@V?$format_validation_base@_WV?$string_output_adapter@_W@__crt_stdio_output@@@2@@__crt_stdio_output@@AEAA_NXZ 0000000140017400 f i libucrtd:output.obj
 0001:00016450       ?type_case_p@?$output_processor@DV?$string_output_adapter@D@__crt_stdio_output@@V?$format_validation_base@DV?$string_output_adapter@D@__crt_stdio_output@@@2@@__crt_stdio_output@@AEAA_NXZ 0000000140017450 f i libucrtd:output.obj
 0001:00016490       ?type_case_p@?$output_processor@_WV?$string_output_adapter@_W@__crt_stdio_output@@V?$format_validation_base@_WV?$string_output_adapter@_W@__crt_stdio_output@@@2@@__crt_stdio_output@@AEAA_NXZ 0000000140017490 f i libucrtd:output.obj
 0001:000164d0       ?type_case_s@?$output_processor@DV?$string_output_adapter@D@__crt_stdio_output@@V?$format_validation_base@DV?$string_output_adapter@D@__crt_stdio_output@@@2@@__crt_stdio_output@@AEAA_NXZ 00000001400174d0 f i libucrtd:output.obj
 0001:000165f0       ?type_case_s@?$output_processor@_WV?$string_output_adapter@_W@__crt_stdio_output@@V?$format_validation_base@_WV?$string_output_adapter@_W@__crt_stdio_output@@@2@@__crt_stdio_output@@AEAA_NXZ 00000001400175f0 f i libucrtd:output.obj
 0001:00016710       ?type_case_s_compute_narrow_string_length@?$output_processor@DV?$string_output_adapter@D@__crt_stdio_output@@V?$format_validation_base@DV?$string_output_adapter@D@__crt_stdio_output@@@2@@__crt_stdio_output@@AEBAHHD@Z 0000000140017710 f i libucrtd:output.obj
 0001:00016740       ?type_case_s_compute_narrow_string_length@?$output_processor@_WV?$string_output_adapter@_W@__crt_stdio_output@@V?$format_validation_base@_WV?$string_output_adapter@_W@__crt_stdio_output@@@2@@__crt_stdio_output@@AEBAHH_W@Z 0000000140017740 f i libucrtd:output.obj
 0001:000167d0       ?type_case_u@?$output_processor@DV?$string_output_adapter@D@__crt_stdio_output@@V?$format_validation_base@DV?$string_output_adapter@D@__crt_stdio_output@@@2@@__crt_stdio_output@@AEAA_NXZ 00000001400177d0 f i libucrtd:output.obj
 0001:000167f0       ?type_case_u@?$output_processor@_WV?$string_output_adapter@_W@__crt_stdio_output@@V?$format_validation_base@_WV?$string_output_adapter@_W@__crt_stdio_output@@@2@@__crt_stdio_output@@AEAA_NXZ 00000001400177f0 f i libucrtd:output.obj
 0001:00016810       ?type_case_x@?$output_processor@DV?$string_output_adapter@D@__crt_stdio_output@@V?$format_validation_base@DV?$string_output_adapter@D@__crt_stdio_output@@@2@@__crt_stdio_output@@AEAA_NXZ 0000000140017810 f i libucrtd:output.obj
 0001:00016830       ?type_case_x@?$output_processor@_WV?$string_output_adapter@_W@__crt_stdio_output@@V?$format_validation_base@_WV?$string_output_adapter@_W@__crt_stdio_output@@@2@@__crt_stdio_output@@AEAA_NXZ 0000000140017830 f i libucrtd:output.obj
 0001:00016850       ?unset_flag@?$output_processor@_WV?$string_output_adapter@_W@__crt_stdio_output@@V?$format_validation_base@_WV?$string_output_adapter@_W@__crt_stdio_output@@@2@@__crt_stdio_output@@AEAAXI@Z 0000000140017850 f i libucrtd:output.obj
 0001:00016850       ?unset_flag@?$output_processor@DV?$string_output_adapter@D@__crt_stdio_output@@V?$format_validation_base@DV?$string_output_adapter@D@__crt_stdio_output@@@2@@__crt_stdio_output@@AEAAXI@Z 0000000140017850 f i libucrtd:output.obj
 0001:00016880       ?update_field_width@?$standard_base@DV?$string_output_adapter@D@__crt_stdio_output@@@__crt_stdio_output@@IEAA_NXZ 0000000140017880 f i libucrtd:output.obj
 0001:00016880       ?update_field_width@?$standard_base@_WV?$string_output_adapter@_W@__crt_stdio_output@@@__crt_stdio_output@@IEAA_NXZ 0000000140017880 f i libucrtd:output.obj
 0001:000168b0       ?update_precision@?$standard_base@DV?$string_output_adapter@D@__crt_stdio_output@@@__crt_stdio_output@@IEAA_NXZ 00000001400178b0 f i libucrtd:output.obj
 0001:000168b0       ?update_precision@?$standard_base@_WV?$string_output_adapter@_W@__crt_stdio_output@@@__crt_stdio_output@@IEAA_NXZ 00000001400178b0 f i libucrtd:output.obj
 0001:000168e0       ?validate@?$string_output_adapter@D@__crt_stdio_output@@QEBA_NXZ 00000001400178e0 f i libucrtd:output.obj
 0001:000169a0       ?validate@?$string_output_adapter@_W@__crt_stdio_output@@QEBA_NXZ 00000001400179a0 f i libucrtd:output.obj
 0001:00016a60       ?validate_and_update_state_at_end_of_format_string@?$format_validation_base@DV?$string_output_adapter@D@__crt_stdio_output@@@__crt_stdio_output@@IEBA_NXZ 0000000140017a60 f i libucrtd:output.obj
 0001:00016b20       ?validate_and_update_state_at_end_of_format_string@?$format_validation_base@_WV?$string_output_adapter@_W@__crt_stdio_output@@@__crt_stdio_output@@IEBA_NXZ 0000000140017b20 f i libucrtd:output.obj
 0001:00016be0       ?wide_null_string@?$output_processor@DV?$string_output_adapter@D@__crt_stdio_output@@V?$format_validation_base@DV?$string_output_adapter@D@__crt_stdio_output@@@2@@__crt_stdio_output@@CAPEA_WXZ 0000000140017be0 f i libucrtd:output.obj
 0001:00016be0       ?wide_null_string@?$output_processor@_WV?$string_output_adapter@_W@__crt_stdio_output@@V?$format_validation_base@_WV?$string_output_adapter@_W@__crt_stdio_output@@@2@@__crt_stdio_output@@CAPEA_WXZ 0000000140017be0 f i libucrtd:output.obj
 0001:00016bf0       ?write_character@?$string_output_adapter@D@__crt_stdio_output@@QEBA_NDQEAH@Z 0000000140017bf0 f i libucrtd:output.obj
 0001:00016cb0       ?write_character@?$string_output_adapter@_W@__crt_stdio_output@@QEBA_N_WQEAH@Z 0000000140017cb0 f i libucrtd:output.obj
 0001:00016d70       ?write_stored_string_tchar@?$output_processor@DV?$string_output_adapter@D@__crt_stdio_output@@V?$format_validation_base@DV?$string_output_adapter@D@__crt_stdio_output@@@2@@__crt_stdio_output@@AEAA_ND@Z 0000000140017d70 f i libucrtd:output.obj
 0001:00016f30       ?write_stored_string_tchar@?$output_processor@_WV?$string_output_adapter@_W@__crt_stdio_output@@V?$format_validation_base@_WV?$string_output_adapter@_W@__crt_stdio_output@@@2@@__crt_stdio_output@@AEAA_N_W@Z 0000000140017f30 f i libucrtd:output.obj
 0001:00017080       ?write_string@?$string_output_adapter@D@__crt_stdio_output@@QEBAXQEBDHQEAHAEAV__crt_deferred_errno_cache@@@Z 0000000140018080 f i libucrtd:output.obj
 0001:000171f0       ?write_string@?$string_output_adapter@_W@__crt_stdio_output@@QEBAXQEB_WHQEAHAEAV__crt_deferred_errno_cache@@@Z 00000001400181f0 f i libucrtd:output.obj
 0001:00017360       __acrt_isleadbyte_l_noupdate 0000000140018360 f i libucrtd:output.obj
 0001:00017390       __acrt_locale_get_ctype_array_value 0000000140018390 f i libucrtd:output.obj
 0001:000173d0       __stdio_common_vsnprintf_s 00000001400183d0 f   libucrtd:output.obj
 0001:00017430       __stdio_common_vsnwprintf_s 0000000140018430 f   libucrtd:output.obj
 0001:00017490       __stdio_common_vsprintf_s  0000000140018490 f   libucrtd:output.obj
 0001:000174e0       _ctype_fast_check_internal 00000001400184e0 f i libucrtd:output.obj
 0001:00017510       _isdigit_fast_internal     0000000140018510 f i libucrtd:output.obj
 0001:00017540       _tolower_fast_internal     0000000140018540 f i libucrtd:output.obj
 0001:00017570       ??$is_overflow_condition@K@__crt_strtox@@YA_NIK@Z 0000000140018570 f i libucrtd:atox.obj
 0001:000175e0       ??$parse_integer@KV?$c_string_character_source@D@__crt_strtox@@@__crt_strtox@@YAKQEAU__crt_locale_pointers@@V?$c_string_character_source@D@0@H_N@Z 00000001400185e0 f i libucrtd:atox.obj
 0001:00017a70       ??$parse_integer@KV?$c_string_character_source@_W@__crt_strtox@@@__crt_strtox@@YAKQEAU__crt_locale_pointers@@V?$c_string_character_source@_W@0@H_N@Z 0000000140018a70 f i libucrtd:atox.obj
 0001:00017f20       ??0?$c_string_character_source@D@__crt_strtox@@QEAA@QEBDQEAPEBD@Z 0000000140018f20 f i libucrtd:atox.obj
 0001:00017f20       ??0?$c_string_character_source@_W@__crt_strtox@@QEAA@QEB_WQEAPEB_W@Z 0000000140018f20 f i libucrtd:atox.obj
 0001:00017f70       ??1?$c_string_character_source@D@__crt_strtox@@QEAA@XZ 0000000140018f70 f i libucrtd:atox.obj
 0001:00017f70       ??1?$c_string_character_source@_W@__crt_strtox@@QEAA@XZ 0000000140018f70 f i libucrtd:atox.obj
 0001:00017fa0       ?get@?$c_string_character_source@D@__crt_strtox@@QEAADXZ 0000000140018fa0 f i libucrtd:atox.obj
 0001:00017fe0       ?get@?$c_string_character_source@_W@__crt_strtox@@QEAA_WXZ 0000000140018fe0 f i libucrtd:atox.obj
 0001:00018020       ?is_space@__crt_strtox@@YA_NDQEAU__crt_locale_pointers@@@Z 0000000140019020 f i libucrtd:atox.obj
 0001:00018070       ?is_space@__crt_strtox@@YA_N_WPEAU__crt_locale_pointers@@@Z 0000000140019070 f i libucrtd:atox.obj
 0001:000180b0       ?maximum_signed_value@__crt_strtox@@YAJK@Z 00000001400190b0 f i libucrtd:atox.obj
 0001:000180c0       ?minimum_signed_value@__crt_strtox@@YAJK@Z 00000001400190c0 f i libucrtd:atox.obj
 0001:000180d0       ?parse_digit@__crt_strtox@@YAID@Z 00000001400190d0 f i libucrtd:atox.obj
 0001:00018140       ?parse_digit@__crt_strtox@@YAI_W@Z 0000000140019140 f i libucrtd:atox.obj
 0001:00018190       ?restore_state@?$c_string_character_source@_W@__crt_strtox@@QEAA_NQEB_W@Z 0000000140019190 f i libucrtd:atox.obj
 0001:00018190       ?restore_state@?$c_string_character_source@D@__crt_strtox@@QEAA_NQEBD@Z 0000000140019190 f i libucrtd:atox.obj
 0001:000181b0       ?unget@?$c_string_character_source@D@__crt_strtox@@QEAAXD@Z 00000001400191b0 f i libucrtd:atox.obj
 0001:00018290       ?unget@?$c_string_character_source@_W@__crt_strtox@@QEAAX_W@Z 0000000140019290 f i libucrtd:atox.obj
 0001:00018370       ?validate@?$c_string_character_source@D@__crt_strtox@@QEBA_NXZ 0000000140019370 f i libucrtd:atox.obj
 0001:00018430       ?validate@?$c_string_character_source@_W@__crt_strtox@@QEBA_NXZ 0000000140019430 f i libucrtd:atox.obj
 0001:000184f0       ?wide_character_to_digit@__crt_strtox@@YAH_W@Z 00000001400194f0 f i libucrtd:atox.obj
 0001:00018860       __ascii_iswalpha           0000000140019860 f i libucrtd:atox.obj
 0001:000188a0       __ascii_toupper            00000001400198a0 f i libucrtd:atox.obj
 0001:000188c0       __ascii_towupper           00000001400198c0 f i libucrtd:atox.obj
 0001:000188f0       strncmp                    00000001400198f0 f   libucrtd:strncmp.obj
 0001:00018970       free                       0000000140019970 f   libucrtd:free.obj
 0001:000189a0       malloc                     00000001400199a0 f   libucrtd:malloc.obj
 0001:00018c10       ??0__crt_scoped_get_last_error_reset@@QEAA@XZ 0000000140019c10 f i libucrtd:per_thread_data.obj
 0001:00018c30       ??1__crt_scoped_get_last_error_reset@@QEAA@XZ 0000000140019c30 f i libucrtd:per_thread_data.obj
 0001:000192d0       __acrt_getptd              000000014001a2d0 f   libucrtd:per_thread_data.obj
 0001:00019300       __acrt_getptd_head         000000014001a300 f   libucrtd:per_thread_data.obj
 0001:00019330       __acrt_getptd_noexit       000000014001a330 f   libucrtd:per_thread_data.obj
 0001:00019340       __acrt_initialize_ptd      000000014001a340 f   libucrtd:per_thread_data.obj
 0001:00019380       __acrt_uninitialize_ptd    000000014001a380 f   libucrtd:per_thread_data.obj
 0001:000193b0       ??$initialize_from_array@$$BY00Q6AXPEB_W00I_K@Z@?$dual_state_global@P6AXPEB_W00I_K@Z@__crt_state_management@@QEAAXAEAY00Q6AXPEB_W00I_K@Z@Z 000000014001a3b0 f i libucrtd:invalid_parameter.obj
 0001:00019410       __acrt_call_reportfault    000000014001a410 f   libucrtd:invalid_parameter.obj
 0001:00019540       __acrt_initialize_invalid_parameter_handler 000000014001a540 f   libucrtd:invalid_parameter.obj
 0001:00019570       _invalid_parameter         000000014001a570 f   libucrtd:invalid_parameter.obj
 0001:00019670       _invalid_parameter_noinfo  000000014001a670 f   libucrtd:invalid_parameter.obj
 0001:000196a0       _invoke_watson             000000014001a6a0 f   libucrtd:invalid_parameter.obj
 0001:00019700       _set_error_mode            000000014001a700 f   libucrtd:set_error_mode.obj
 0001:00019e80       wcscat_s                   000000014001ae80 f   libucrtd:wcscat_s.obj
 0001:0001a390       wcscpy_s                   000000014001b390 f   libucrtd:wcscpy_s.obj
 0001:0001aa60       wcsncpy_s                  000000014001ba60 f   libucrtd:wcsncpy_s.obj
 0001:0001be00       ??1?$__crt_simd_cleanup_guard@$00@@QEAA@XZ 000000014001ce00 f i libucrtd:strnlen.obj
 0001:0001be10       ?compare_equals@?$__crt_simd_traits@$00E@@SA?AT__m256i@@T2@0@Z 000000014001ce10 f i libucrtd:strnlen.obj
 0001:0001be50       ?compare_equals@?$__crt_simd_traits@$00G@@SA?AT__m256i@@T2@0@Z 000000014001ce50 f i libucrtd:strnlen.obj
 0001:0001be90       ?compare_equals@?$__crt_simd_traits@$0A@E@@SA?AT__m128i@@T2@0@Z 000000014001ce90 f i libucrtd:strnlen.obj
 0001:0001bec0       ?compare_equals@?$__crt_simd_traits@$0A@G@@SA?AT__m128i@@T2@0@Z 000000014001cec0 f i libucrtd:strnlen.obj
 0001:0001bef0       ?compute_byte_mask@?$__crt_simd_pack_traits@$00@@SAHT__m256i@@@Z 000000014001cef0 f i libucrtd:strnlen.obj
 0001:0001bf10       ?compute_byte_mask@?$__crt_simd_pack_traits@$0A@@@SAHT__m128i@@@Z 000000014001cf10 f i libucrtd:strnlen.obj
 0001:0001bf30       ?get_zero_pack@?$__crt_simd_pack_traits@$00@@SA?AT__m256i@@XZ 000000014001cf30 f i libucrtd:strnlen.obj
 0001:0001bf60       ?get_zero_pack@?$__crt_simd_pack_traits@$0A@@@SA?AT__m128i@@XZ 000000014001cf60 f i libucrtd:strnlen.obj
 0001:0001bf80       strnlen                    000000014001cf80 f   libucrtd:strnlen.obj
 0001:0001bfb0       wcslen                     000000014001cfb0 f   libucrtd:strnlen.obj
 0001:0001bfd0       wcsnlen                    000000014001cfd0 f   libucrtd:strnlen.obj
 0001:0001c140       ??$message_box@$$TAEBQEB_WAEBQEB_WK@?$__crt_char_traits@_W@@SAH$$QEA$$TAEBQEB_W1$$QEAK@Z 000000014001d140 f i libucrtd:crtmbox.obj
 0001:0001c140       ??$message_box@PEAUHWND__@@AEBQEB_WAEBQEB_WAEBI@?$__crt_char_traits@_W@@SAH$$QEAPEAUHWND__@@AEBQEB_W1AEBI@Z 000000014001d140 f i libucrtd:crtmbox.obj
 0001:0001c190       ??$output_debug_string@AEBQEB_W@?$__crt_char_traits@_W@@SAXAEBQEB_W@Z 000000014001d190 f i libucrtd:crtmbox.obj
 0001:0001c1b0       __acrt_show_wide_message_box 000000014001d1b0 f   libucrtd:crtmbox.obj
 0001:0001c1e0       __acrt_errno_from_os_error 000000014001d1e0 f   libucrtd:errno.obj
 0001:0001c270       __acrt_errno_map_os_error  000000014001d270 f   libucrtd:errno.obj
 0001:0001c2a0       __doserrno                 000000014001d2a0 f   libucrtd:errno.obj
 0001:0001c2d0       _errno                     000000014001d2d0 f   libucrtd:errno.obj
 0001:0001c670       ??$__acrt_mbs_to_wcs_cp@U__crt_win32_buffer_internal_dynamic_resizing@@@@YAHQEBDAEAV?$__crt_win32_buffer@_WU__crt_win32_buffer_internal_dynamic_resizing@@@@I@Z 000000014001d670 f i libucrtd:argv_wildcards.obj
 0001:0001c6c0       ??$__acrt_wcs_to_mbs_cp@U__crt_win32_buffer_internal_dynamic_resizing@@@@YAHQEB_WAEAV?$__crt_win32_buffer@DU__crt_win32_buffer_internal_dynamic_resizing@@@@I@Z 000000014001d6c0 f i libucrtd:argv_wildcards.obj
 0001:0001d110       ??$tcsncpy_s@PEAD_KAEBQEBDAEB_K@?$__crt_char_traits@D@@SAH$$QEAPEAD$$QEA_KAEBQEBDAEB_K@Z 000000014001e110 f i libucrtd:argv_wildcards.obj
 0001:0001d110       ??$tcsncpy_s@PEADAEB_KAEBQEBDAEB_K@?$__crt_char_traits@D@@SAH$$QEAPEADAEB_KAEBQEBD1@Z 000000014001e110 f i libucrtd:argv_wildcards.obj
 0001:0001d110       ??$tcsncpy_s@AEAPEAD_KAEAPEADAEB_K@?$__crt_char_traits@D@@SAHAEAPEAD$$QEA_K0AEB_K@Z 000000014001e110 f i libucrtd:argv_wildcards.obj
 0001:0001d160       ??$tcspbrk@AEAPEADAEAY02$$CBD@?$__crt_char_traits@D@@SAPEADAEAPEADAEAY02$$CBD@Z 000000014001e160 f i libucrtd:argv_wildcards.obj
 0001:0001d190       ??0?$__crt_win32_buffer@DU__crt_win32_buffer_internal_dynamic_resizing@@@@QEAA@XZ 000000014001e190 f i libucrtd:argv_wildcards.obj
 0001:0001d190       ??0?$__crt_win32_buffer@_WU__crt_win32_buffer_internal_dynamic_resizing@@@@QEAA@XZ 000000014001e190 f i libucrtd:argv_wildcards.obj
 0001:0001d230       ??1?$__crt_unique_handle_t@U__crt_findfile_traits@@@@QEAA@XZ 000000014001e230 f i libucrtd:argv_wildcards.obj
 0001:0001d250       ??1?$__crt_win32_buffer@_WU__crt_win32_buffer_internal_dynamic_resizing@@@@QEAA@XZ 000000014001e250 f i libucrtd:argv_wildcards.obj
 0001:0001d250       ??1?$__crt_win32_buffer@DU__crt_win32_buffer_internal_dynamic_resizing@@@@QEAA@XZ 000000014001e250 f i libucrtd:argv_wildcards.obj
 0001:0001d440       ?__acrt_get_utf8_acp_compatibility_codepage@@YAIXZ 000000014001e440 f i libucrtd:argv_wildcards.obj
 0001:0001d4e0       ?_deallocate@?$__crt_win32_buffer@DU__crt_win32_buffer_internal_dynamic_resizing@@@@AEAAXXZ 000000014001e4e0 f i libucrtd:argv_wildcards.obj
 0001:0001d4e0       ?_deallocate@?$__crt_win32_buffer@_WU__crt_win32_buffer_internal_dynamic_resizing@@@@AEAAXXZ 000000014001e4e0 f i libucrtd:argv_wildcards.obj
 0001:0001d520       ?allocate@?$__crt_win32_buffer@DU__crt_win32_buffer_internal_dynamic_resizing@@@@QEAAH_K@Z 000000014001e520 f i libucrtd:argv_wildcards.obj
 0001:0001d5a0       ?allocate@?$__crt_win32_buffer@_WU__crt_win32_buffer_internal_dynamic_resizing@@@@QEAAH_K@Z 000000014001e5a0 f i libucrtd:argv_wildcards.obj
 0001:0001d630       ?allocate@__crt_win32_buffer_internal_dynamic_resizing@@SAHQEAPEAX_KAEBV__crt_win32_buffer_empty_debug_info@@@Z 000000014001e630 f i libucrtd:argv_wildcards.obj
 0001:0001d700       ?capacity@?$__crt_win32_buffer@DU__crt_win32_buffer_internal_dynamic_resizing@@@@QEBA_KXZ 000000014001e700 f i libucrtd:argv_wildcards.obj
 0001:0001d700       ?capacity@?$__crt_win32_buffer@_WU__crt_win32_buffer_internal_dynamic_resizing@@@@QEBA_KXZ 000000014001e700 f i libucrtd:argv_wildcards.obj
 0001:0001d700       ?capacity@?$__crt_win32_buffer@DU__crt_win32_buffer_no_resizing@@@@QEBA_KXZ 000000014001e700 f i libucrtd:getmodulefilenamea.obj
 0001:0001d710       ?close@?$__crt_unique_handle_t@U__crt_findfile_traits@@@@QEAAXXZ 000000014001e710 f i libucrtd:argv_wildcards.obj
 0001:0001d750       ?close@__crt_findfile_traits@@SA_NPEAX@Z 000000014001e750 f i libucrtd:argv_wildcards.obj
 0001:0001d790       ?data@?$__crt_win32_buffer@DU__crt_win32_buffer_no_resizing@@@@QEAAPEADXZ 000000014001e790 f i libucrtd:getmodulefilenamea.obj
 0001:0001d790       ?data@?$__crt_win32_buffer@_WU__crt_win32_buffer_internal_dynamic_resizing@@@@QEAAPEA_WXZ 000000014001e790 f i libucrtd:argv_wildcards.obj
 0001:0001d790       ?data@?$__crt_win32_buffer@DU__crt_win32_buffer_internal_dynamic_resizing@@@@QEAAPEADXZ 000000014001e790 f i libucrtd:argv_wildcards.obj
 0001:0001d7a0       ?deallocate@__crt_win32_buffer_internal_dynamic_resizing@@SAXQEAXAEBV__crt_win32_buffer_empty_debug_info@@@Z 000000014001e7a0 f i libucrtd:argv_wildcards.obj
 0001:0001da80       ?set_to_nullptr@?$__crt_win32_buffer@DU__crt_win32_buffer_internal_dynamic_resizing@@@@QEAAXXZ 000000014001ea80 f i libucrtd:argv_wildcards.obj
 0001:0001da80       ?set_to_nullptr@?$__crt_win32_buffer@_WU__crt_win32_buffer_internal_dynamic_resizing@@@@QEAAXXZ 000000014001ea80 f i libucrtd:argv_wildcards.obj
 0001:0001dac0       ?size@?$__crt_win32_buffer@DU__crt_win32_buffer_no_resizing@@@@QEAAX_K@Z 000000014001eac0 f i libucrtd:getmodulefilenamea.obj
 0001:0001dac0       ?size@?$__crt_win32_buffer@_WU__crt_win32_buffer_internal_dynamic_resizing@@@@QEAAX_K@Z 000000014001eac0 f i libucrtd:argv_wildcards.obj
 0001:0001dac0       ?size@?$__crt_win32_buffer@DU__crt_win32_buffer_internal_dynamic_resizing@@@@QEAAX_K@Z 000000014001eac0 f i libucrtd:argv_wildcards.obj
 0001:0001db00       ?strpbrk@@YAPEADQEADQEBD@Z 000000014001eb00 f i libucrtd:argv_wildcards.obj
 0001:0001db30       __acrt_expand_narrow_argv_wildcards 000000014001eb30 f   libucrtd:argv_wildcards.obj
 0001:0001dd00       ??$__acrt_wcs_to_mbs_cp@U__crt_win32_buffer_no_resizing@@@@YAHQEB_WAEAV?$__crt_win32_buffer@DU__crt_win32_buffer_no_resizing@@@@I@Z 000000014001ed00 f i libucrtd:getmodulefilenamea.obj
 0001:0001dd50       ??0?$__crt_win32_buffer@DU__crt_win32_buffer_no_resizing@@@@QEAA@QEAD_K@Z 000000014001ed50 f i libucrtd:getmodulefilenamea.obj
 0001:0001ddc0       ??1?$__crt_win32_buffer@DU__crt_win32_buffer_no_resizing@@@@QEAA@XZ 000000014001edc0 f i libucrtd:getmodulefilenamea.obj
 0001:0001ddf0       ?_deallocate@?$__crt_win32_buffer@DU__crt_win32_buffer_no_resizing@@@@AEAAXXZ 000000014001edf0 f i libucrtd:getmodulefilenamea.obj
 0001:0001de30       ?allocate@?$__crt_win32_buffer@DU__crt_win32_buffer_no_resizing@@@@QEAAH_K@Z 000000014001ee30 f i libucrtd:getmodulefilenamea.obj
 0001:0001deb0       ?allocate@__crt_win32_buffer_no_resizing@@SAHQEAPEAX_KAEBV__crt_win32_buffer_empty_debug_info@@@Z 000000014001eeb0 f i libucrtd:getmodulefilenamea.obj
 0001:0001dee0       ?deallocate@__crt_win32_buffer_no_resizing@@SAXQEAXAEBV__crt_win32_buffer_empty_debug_info@@@Z 000000014001eee0 f i libucrtd:getmodulefilenamea.obj
 0001:0001def0       ?set_to_nullptr@?$__crt_win32_buffer@DU__crt_win32_buffer_no_resizing@@@@QEAAXXZ 000000014001eef0 f i libucrtd:getmodulefilenamea.obj
 0001:0001df30       ?size@?$__crt_win32_buffer@DU__crt_win32_buffer_no_resizing@@@@QEBA_KXZ 000000014001ef30 f i libucrtd:getmodulefilenamea.obj
 0001:0001df40       __acrt_GetModuleFileNameA  000000014001ef40 f   libucrtd:getmodulefilenamea.obj
 0001:0001e0b0       ??$initialize_from_array@$$BY10BAA@E@?$dual_state_global@PEAE@__crt_state_management@@QEAAXAEAY10BAA@E@Z 000000014001f0b0 f i libucrtd:mbctype.obj
 0001:0001e120       ??$initialize_from_array@$$BY10BAB@E@?$dual_state_global@PEAE@__crt_state_management@@QEAAXAEAY10BAB@E@Z 000000014001f120 f i libucrtd:mbctype.obj
 0001:0001ec90       __acrt_initialize_multibyte 000000014001fc90 f   libucrtd:mbctype.obj
 0001:0001ed60       __acrt_should_sync_with_global_locale 000000014001fd60 f i libucrtd:mbctype.obj
 0001:0001eda0       __acrt_update_thread_multibyte_data 000000014001fda0 f   libucrtd:mbctype.obj
 0001:0001edd0       _setmbcp_nolock            000000014001fdd0 f   libucrtd:mbctype.obj
 0001:0001f474       _ismbblead                 0000000140020474 f   libucrtd:ismbbyte.obj
 0001:0001f490       __acrt_initialize_command_line 0000000140020490 f   libucrtd:argv_data.obj
 0001:0001f560       __acrt_MultiByteToWideChar 0000000140020560 f   libucrtd:multibytetowidechar.obj
 0001:0001f660       __acrt_WideCharToMultiByte 0000000140020660 f   libucrtd:widechartomultibyte.obj
 0001:0001f790       __dcrt_get_narrow_environment_from_os 0000000140020790 f   libucrtd:get_environment_from_os.obj
 0001:0001f8b0       __acrt_initialize_locks    00000001400208b0 f   libucrtd:locks.obj
 0001:0001f920       __acrt_lock                0000000140020920 f   libucrtd:locks.obj
 0001:0001f950       __acrt_uninitialize_locks  0000000140020950 f   libucrtd:locks.obj
 0001:0001f9b0       __acrt_unlock              00000001400209b0 f   libucrtd:locks.obj
 0001:0001fcc0       __acrt_get_developer_information_policy 0000000140020cc0 f   libucrtd:win_policies.obj
 0001:0001fce0       __acrt_get_process_end_policy 0000000140020ce0 f   libucrtd:win_policies.obj
 0001:0001fcf0       __acrt_get_windowing_model_policy 0000000140020cf0 f   libucrtd:win_policies.obj
 0001:0001fd10       __acrt_lowio_create_handle_array 0000000140020d10 f   libucrtd:osfinfo.obj
 0001:0001fed0       __acrt_lowio_destroy_handle_array 0000000140020ed0 f   libucrtd:osfinfo.obj
 0001:0001ff50       __acrt_lowio_ensure_fh_exists 0000000140020f50 f   libucrtd:osfinfo.obj
 0001:000200b0       __acrt_lowio_lock_fh       00000001400210b0 f   libucrtd:osfinfo.obj
 0001:000200f0       __acrt_lowio_unlock_fh     00000001400210f0 f   libucrtd:osfinfo.obj
 0001:00020130       _free_osfhnd               0000000140021130 f   libucrtd:osfinfo.obj
 0001:00020260       _get_osfhandle             0000000140021260 f   libucrtd:osfinfo.obj
 0001:00020460       __acrt_initialize_fmode    0000000140021460 f   libucrtd:txtmode.obj
 0001:00020860       __acrt_initialize_lowio    0000000140021860 f   libucrtd:ioinit.obj
 0001:000208b0       __acrt_uninitialize_lowio  00000001400218b0 f   libucrtd:ioinit.obj
 0001:00020930       __acrt_locale_free_monetary 0000000140021930 f   libucrtd:initmon.obj
 0001:00020b40       __acrt_locale_free_numeric 0000000140021b40 f   libucrtd:initnum.obj
 0001:00020ce0       __acrt_locale_free_time    0000000140021ce0 f   libucrtd:inittime.obj
 0001:00020e50       __pctype_func              0000000140021e50 f   libucrtd:ctype.obj
 0001:00020e90       _chvalidator_l             0000000140021e90 f   libucrtd:isctype.obj
 0001:00020f40       _isctype_l                 0000000140021f40 f   libucrtd:isctype.obj
 0001:00021170       _isleadbyte_fast_internal  0000000140022170 f i libucrtd:isctype.obj
 0001:000211a0       ??1?$__crt_scoped_stack_ptr@_W@@QEAA@XZ 00000001400221a0 f i libucrtd:getstringtypea.obj
 0001:000211c0       _MallocaComputeSize        00000001400221c0 f i libucrtd:getstringtypea.obj
 0001:00021200       _MarkAllocaS               0000000140022200 f i libucrtd:getstringtypea.obj
 0001:00021230       __acrt_GetStringTypeA      0000000140022230 f   libucrtd:getstringtypea.obj
 0001:00021490       _freea_crt                 0000000140022490 f i libucrtd:getstringtypea.obj
 0001:00021530       __acrt_add_locale_ref      0000000140022530 f   libucrtd:locale_refcounting.obj
 0001:00021690       __acrt_free_locale         0000000140022690 f   libucrtd:locale_refcounting.obj
 0001:00021a10       __acrt_locale_add_lc_time_reference 0000000140022a10 f   libucrtd:locale_refcounting.obj
 0001:00021a50       __acrt_locale_free_lc_time_if_unreferenced 0000000140022a50 f   libucrtd:locale_refcounting.obj
 0001:00021ab0       __acrt_locale_release_lc_time_reference 0000000140022ab0 f   libucrtd:locale_refcounting.obj
 0001:00021af0       __acrt_release_locale_ref  0000000140022af0 f   libucrtd:locale_refcounting.obj
 0001:00021c60       __acrt_update_thread_locale_data 0000000140022c60 f   libucrtd:locale_refcounting.obj
 0001:00021d00       _updatetlocinfoEx_nolock   0000000140022d00 f   libucrtd:locale_refcounting.obj
 0001:00022480       GetCurrentThreadEffectiveToken 0000000140023480 f i libucrtd:winapi_thunks.obj
 0001:00022490       __acrt_AppPolicyGetProcessTerminationMethodInternal 0000000140023490 f   libucrtd:winapi_thunks.obj
 0001:000224e0       __acrt_AppPolicyGetShowDeveloperDiagnosticInternal 00000001400234e0 f   libucrtd:winapi_thunks.obj
 0001:00022530       __acrt_AppPolicyGetWindowingModelInternal 0000000140023530 f   libucrtd:winapi_thunks.obj
 0001:00022580       __acrt_AreFileApisANSI     0000000140023580 f   libucrtd:winapi_thunks.obj
 0001:000225c0       __acrt_FlsAlloc            00000001400235c0 f   libucrtd:winapi_thunks.obj
 0001:00022610       __acrt_FlsFree             0000000140023610 f   libucrtd:winapi_thunks.obj
 0001:00022660       __acrt_FlsGetValue         0000000140023660 f   libucrtd:winapi_thunks.obj
 0001:000226b0       __acrt_FlsSetValue         00000001400236b0 f   libucrtd:winapi_thunks.obj
 0001:00022710       __acrt_InitializeCriticalSectionEx 0000000140023710 f   libucrtd:winapi_thunks.obj
 0001:00022770       __acrt_LCMapStringEx       0000000140023770 f   libucrtd:winapi_thunks.obj
 0001:00022850       __acrt_LocaleNameToLCID    0000000140023850 f   libucrtd:winapi_thunks.obj
 0001:000228a0       __acrt_MessageBoxW         00000001400238a0 f   libucrtd:winapi_thunks.obj
 0001:00022900       __acrt_can_show_message_box 0000000140023900 f   libucrtd:winapi_thunks.obj
 0001:00022940       __acrt_get_parent_window   0000000140023940 f   libucrtd:winapi_thunks.obj
 0001:000229c0       __acrt_initialize_winapi_thunks 00000001400239c0 f   libucrtd:winapi_thunks.obj
 0001:00022a40       __acrt_is_interactive      0000000140023a40 f   libucrtd:winapi_thunks.obj
 0001:00022b20       __acrt_uninitialize_winapi_thunks 0000000140023b20 f   libucrtd:winapi_thunks.obj
 0001:00022bc0       __acrt_initialize_heap     0000000140023bc0 f   libucrtd:heap_handle.obj
 0001:00022bf0       __acrt_uninitialize_heap   0000000140023bf0 f   libucrtd:heap_handle.obj
 0001:00022c10       __acrt_execute_initializers 0000000140023c10 f   libucrtd:shared_initialization.obj
 0001:00022d00       __acrt_execute_uninitializers 0000000140023d00 f   libucrtd:shared_initialization.obj
 0001:00022d80       __acrt_initialize_new_handler 0000000140023d80 f   libucrtd:new_handler.obj
 0001:00022da0       _callnewh                  0000000140023da0 f   libucrtd:new_handler.obj
 0001:00022df0       _query_new_handler         0000000140023df0 f   libucrtd:new_handler.obj
 0001:00022ff0       __acrt_get_sigabrt_handler 0000000140023ff0 f   libucrtd:signal.obj
 0001:00023020       __acrt_initialize_signal_handlers 0000000140024020 f   libucrtd:signal.obj
 0001:00023080       __fpecode                  0000000140024080 f   libucrtd:signal.obj
 0001:000230a0       raise                      00000001400240a0 f   libucrtd:signal.obj
 0001:00023560       ?has_any_of@__crt_stdio_stream@@QEBA_NJ@Z 0000000140024560 f i libucrtd:_sftbuf.obj
 0001:000235a0       ?set_flags@__crt_stdio_stream@@QEBA_NJ@Z 00000001400245a0 f i libucrtd:_sftbuf.obj
 0001:00023610       ?unset_flags@__crt_stdio_stream@@QEBA_NJ@Z 0000000140024610 f i libucrtd:_sftbuf.obj
 0001:00023680       _free_base                 0000000140024680 f   libucrtd:free_base.obj
 0001:000236e0       _realloc_base              00000001400246e0 f   libucrtd:realloc_base.obj
 0001:00023800       _expand_base               0000000140024800 f   libucrtd:expand.obj
 0001:00023990       __acrt_update_locale_info  0000000140024990 f   libucrtd:locale_update.obj
 0001:000239e0       __acrt_update_multibyte_info 00000001400249e0 f   libucrtd:locale_update.obj
 0001:00023a30       _CrtDefaultAllocHook       0000000140024a30 f   libucrtd:debug_heap_hook.obj
 0001:00023a50       _CrtGetDebugFillThreshold  0000000140024a50 f   libucrtd:debug_fill_threshold.obj
 0001:00023a60       _VCrtDbgReportA            0000000140024a60 f   libucrtd:dbgrptt.obj
 0001:00024440       _VCrtDbgReportW            0000000140025440 f   libucrtd:dbgrptt.obj
 0001:00024fc0       _snprintf_s                0000000140025fc0 f i libucrtd:dbgrptt.obj
 0001:00025030       _vsnprintf_s               0000000140026030 f i libucrtd:dbgrptt.obj
 0001:00025080       _vsnprintf_s_l             0000000140026080 f i libucrtd:dbgrptt.obj
 0001:00025100       ??$make_c_string_character_source@_WPEAPEA_W@__crt_strtox@@YA?AV?$c_string_character_source@_W@0@QEB_WQEAPEA_W@Z 0000000140026100 f i libucrtd:strtox.obj
 0001:00025100       ??$make_c_string_character_source@DPEAPEAD@__crt_strtox@@YA?AV?$c_string_character_source@D@0@QEBDQEAPEAD@Z 0000000140026100 f i libucrtd:strtox.obj
 0001:00025140       ??$parse_integer_from_string@JDPEAPEAD@__crt_strtox@@YAJQEBDQEAPEADHQEAU__crt_locale_pointers@@@Z 0000000140026140 f i libucrtd:strtox.obj
 0001:00025190       ??$parse_integer_from_string@J_WPEAPEA_W@__crt_strtox@@YAJQEB_WQEAPEA_WHQEAU__crt_locale_pointers@@@Z 0000000140026190 f i libucrtd:strtox.obj
 0001:000251e0       strtol                     00000001400261e0 f   libucrtd:strtox.obj
 0001:00025210       wcstol                     0000000140026210 f   libucrtd:strtox.obj
 0001:00025240       _mbtowc_l                  0000000140026240 f   libucrtd:mbtowc.obj
 0001:000256a0       mbtowc                     00000001400266a0 f   libucrtd:mbtowc.obj
 0001:000256d0       _wctomb_s_l                00000001400266d0 f   libucrtd:wctomb.obj
 0001:00025c50       ?__acrt_fp_classify@@YA?AW4__acrt_fp_class@@AEBN@Z 0000000140026c50 f i libucrtd:cvt.obj
 0001:00025d50       ?__acrt_fp_is_negative@@YA_NAEBN@Z 0000000140026d50 f i libucrtd:cvt.obj
 0001:00027710       ?strrchr@@YAPEADQEADH@Z    0000000140028710 f i libucrtd:cvt.obj
 0001:00027730       __acrt_fp_format           0000000140028730 f   libucrtd:cvt.obj
 0001:00027d40       ?lowio_handle@__crt_stdio_stream@@QEBAHXZ 0000000140028d40 f i libucrtd:fileno.obj
 0001:00027d70       _fileno                    0000000140028d70 f   libucrtd:fileno.obj
 0001:00027e50       __acrt_initialize_stdio    0000000140028e50 f   libucrtd:_file.obj
 0001:00028040       __acrt_uninitialize_stdio  0000000140029040 f   libucrtd:_file.obj
 0001:000280d0       _lock_file                 00000001400290d0 f   libucrtd:_file.obj
 0001:00028110       _unlock_file               0000000140029110 f   libucrtd:_file.obj
 0001:00028150       _get_printf_count_output   0000000140029150 f   libucrtd:printf_count_output.obj
 0001:00028180       iswctype                   0000000140029180 f   libucrtd:iswctype.obj
 0001:00028210       __acrt_OutputDebugStringA  0000000140029210 f   libucrtd:outputdebugstringa.obj
 0001:00028440       qsort                      0000000140029440 f   libucrtd:qsort.obj
 0001:000291d0       strncpy_s                  000000014002a1d0 f   libucrtd:strncpy_s.obj
 0001:00029340       strpbrk                    000000014002a340 f   libucrtd:strpbrk.obj
 0001:00029c30       _mbsdec                    000000014002ac30 f   libucrtd:mbsdec.obj
 0001:00029c38       _mbsdec_l                  000000014002ac38 f   libucrtd:mbsdec.obj
 0001:0002a320       __acrt_LCMapStringA        000000014002b320 f   libucrtd:lcmapstringa.obj
 0001:0002aff0       _itoa_s                    000000014002bff0 f   libucrtd:xtoa.obj
 0001:0002b050       _itow_s                    000000014002c050 f   libucrtd:xtoa.obj
 0001:0002b0b0       __ascii_wcsnicmp           000000014002c0b0 f   libucrtd:wcsnicmp.obj
 0001:0002b230       __acrt_DownlevelLocaleNameToLCID 000000014002c230 f   libucrtd:lcidtoname_downlevel.obj
 0001:0002b290       _isatty                    000000014002c290 f   libucrtd:isatty.obj
 0001:0002b710       ?__acrt_stdio_reset_buffer@@YAXV__crt_stdio_stream@@@Z 000000014002c710 f i libucrtd:fflush.obj
 0001:0002b840       ?has_all_of@__crt_stdio_stream@@QEBA_NJ@Z 000000014002c840 f i libucrtd:fflush.obj
 0001:0002b920       __acrt_stdio_flush_nolock  000000014002c920 f   libucrtd:fflush.obj
 0001:0002ba30       _fflush_nolock             000000014002ca30 f   libucrtd:fflush.obj
 0001:0002bac0       _flushall                  000000014002cac0 f   libucrtd:fflush.obj
 0001:0002bad0       _malloc_base               000000014002cad0 f   libucrtd:malloc_base.obj
 0001:0002c150       _mbstowcs_s_l              000000014002d150 f   libucrtd:mbstowcs.obj
 0001:0002c720       mbstowcs_s                 000000014002d720 f   libucrtd:mbstowcs.obj
 0001:0002d0b0       _wcstombs_s_l              000000014002e0b0 f   libucrtd:wcstombs.obj
 0001:0002d5f0       wcstombs_s                 000000014002e5f0 f   libucrtd:wcstombs.obj
 0001:0002dcb0       strcat_s                   000000014002ecb0 f   libucrtd:strcat_s.obj
 0001:0002dce0       _isleadbyte_l              000000014002ece0 f i libucrtd:_wctype.obj
 0001:0002ddb0       ?__mbrtowc_utf8@__crt_mbstring@@YA_KPEA_WPEBD_KPEAU_Mbstatet@@@Z 000000014002edb0 f   libucrtd:mbrtowc.obj
 0001:0002de20       ?__mbsrtowcs_utf8@__crt_mbstring@@YA_KPEA_WPEAPEBD_KPEAU_Mbstatet@@@Z 000000014002ee20 f   libucrtd:mbrtowc.obj
 0001:0002e120       ?__c32rtomb_utf8@__crt_mbstring@@YA_KPEAD_UPEAU_Mbstatet@@@Z 000000014002f120 f   libucrtd:c32rtomb.obj
 0001:0002e3a0       ?reset_and_return@__crt_mbstring@@YA_K_KPEAU_Mbstatet@@@Z 000000014002f3a0 f i libucrtd:c32rtomb.obj
 0001:0002e3e0       ?return_illegal_sequence@__crt_mbstring@@YA_KPEAU_Mbstatet@@@Z 000000014002f3e0 f i libucrtd:c32rtomb.obj
 0001:0002e420       c32rtomb                   000000014002f420 f   libucrtd:c32rtomb.obj
 0001:0002e580       __acrt_fp_strflt_to_string 000000014002f580 f   libucrtd:_fptostr.obj
 0001:0002f080       ??0big_integer@__crt_strtox@@QEAA@AEBU01@@Z 0000000140030080 f i libucrtd:cfout.obj
 0001:0002f080       ??4big_integer@__crt_strtox@@QEAAAEAU01@AEBU01@@Z 0000000140030080 f i libucrtd:cfout.obj
 0001:0002f0e0       ??0big_integer@__crt_strtox@@QEAA@XZ 00000001400300e0 f i libucrtd:cfout.obj
 0001:0002f1a0       ??8__crt_strtox@@YA_NAEBUbig_integer@0@0@Z 00000001400301a0 f i libucrtd:cfout.obj
 0001:0002f210       ??9__crt_strtox@@YA_NAEBUbig_integer@0@0@Z 0000000140030210 f i libucrtd:cfout.obj
 0001:0002f250       ?add_carry@__crt_strtox@@YAIAEAIII@Z 0000000140030250 f i libucrtd:cfout.obj
 0001:0002f2a0       ?add_multiply_carry@__crt_strtox@@YAIAEAIIII@Z 00000001400302a0 f i libucrtd:cfout.obj
 0001:0002f300       ?bit_scan_reverse@__crt_strtox@@YAII@Z 0000000140030300 f i libucrtd:cfout.obj
 0001:0002f340       ?count_sequential_high_zeroes@__crt_strtox@@YAII@Z 0000000140030340 f i libucrtd:cfout.obj
 0001:0002f380       ?divide@__crt_strtox@@YA_KAEAUbig_integer@1@AEBU21@@Z 0000000140030380 f i libucrtd:cfout.obj
 0001:0002fd50       ?is_zero@__crt_strtox@@YA_NAEBUbig_integer@1@@Z 0000000140030d50 f i libucrtd:cfout.obj
 0001:0002fd80       ?make_big_integer@__crt_strtox@@YA?AUbig_integer@1@_K@Z 0000000140030d80 f i libucrtd:cfout.obj
 0001:0002fe50       ?make_big_integer_power_of_two@__crt_strtox@@YA?AUbig_integer@1@I@Z 0000000140030e50 f i libucrtd:cfout.obj
 0001:0002ff20       ?multiply@__crt_strtox@@YA_NAEAUbig_integer@1@AEBU21@@Z 0000000140030f20 f i libucrtd:cfout.obj
 0001:000302a0       ?multiply@__crt_strtox@@YA_NAEAUbig_integer@1@I@Z 00000001400312a0 f i libucrtd:cfout.obj
 0001:000303c0       ?multiply_64_32@__crt_strtox@@YA_K_KI@Z 00000001400313c0 f i libucrtd:cfout.obj
 0001:000303e0       ?multiply_by_power_of_ten@__crt_strtox@@YA_NAEAUbig_integer@1@I@Z 00000001400313e0 f i libucrtd:cfout.obj
 0001:00030590       ?multiply_core@__crt_strtox@@YAIQEAIII@Z 0000000140031590 f i libucrtd:cfout.obj
 0001:00030610       ?shift_left@__crt_strtox@@YA_NAEAUbig_integer@1@I@Z 0000000140031610 f i libucrtd:cfout.obj
 0001:000308f0       __acrt_fltout              00000001400318f0 f   libucrtd:cfout.obj
 0001:00030ca0       fegetround                 0000000140031ca0 f   libucrtd:fegetround.obj
 0001:00030cc0       ?is_in_use@__crt_stdio_stream@@QEBA_NXZ 0000000140031cc0 f i libucrtd:closeall.obj
 0001:00030d00       _fcloseall                 0000000140031d00 f   libucrtd:closeall.obj
 0001:00030e10       ?has_crt_buffer@__crt_stdio_stream@@QEBA_NXZ 0000000140031e10 f i libucrtd:_freebuf.obj
 0001:00030e30       __acrt_stdio_free_buffer_nolock 0000000140031e30 f   libucrtd:_freebuf.obj
 0001:00030f10       __acrt_GetStringTypeW      0000000140031f10 f   libucrtd:getstringtypew.obj
 0001:00030f50       __strncnt                  0000000140031f50 f   libucrtd:strncnt.obj
 0001:00031160       _commit                    0000000140032160 f   libucrtd:commit.obj
 0001:00032d40       _utf8_no_of_trailbytes     0000000140033d40 f i libucrtd:write.obj
 0001:00032d60       _write                     0000000140033d60 f   libucrtd:write.obj
 0001:00033000       _write_nolock              0000000140034000 f   libucrtd:write.obj
 0001:000335d0       ?__wcsrtombs_utf8@__crt_mbstring@@YA_KPEADPEAPEB_W_KPEAU_Mbstatet@@@Z 00000001400345d0 f   libucrtd:wcrtomb.obj
 0001:00033840       ?__mbrtoc32_utf8@__crt_mbstring@@YA_KPEA_UPEBD_KPEAU_Mbstatet@@@Z 0000000140034840 f   libucrtd:mbrtoc32.obj
 0001:00033c00       log10                      0000000140034c00 f   libucrtd:log10.obj
 0001:000341b0       ceil                       00000001400351b0 f   libucrtd:ceil.obj
 0001:00034380       _controlfp_s               0000000140035380 f   libucrtd:contrlfp.obj
 0001:000344b0       fegetenv                   00000001400354b0 f   libucrtd:fegetenv.obj
 0001:000344e0       fesetenv                   00000001400354e0 f   libucrtd:fesetenv.obj
 0001:00034560       feholdexcept               0000000140035560 f   libucrtd:feholdexcept.obj
 0001:000345d0       ??$__acrt_fenv_shift_bits@W4__acrt_fenv_abstract_control@@@@YA?AW4__acrt_fenv_abstract_control@@W40@0I@Z 00000001400355d0 f i libucrtd:_fenvutils.obj
 0001:000345d0       ??$__acrt_fenv_shift_bits@W4__acrt_fenv_abstract_status@@@@YA?AW4__acrt_fenv_abstract_status@@W40@0I@Z 00000001400355d0 f i libucrtd:_fenvutils.obj
 0001:00034600       ??$__acrt_fenv_translate_bit@W4__acrt_fenv_abstract_control@@W4__acrt_fenv_machine_sse_control@@@@YA?AW4__acrt_fenv_abstract_control@@W4__acrt_fenv_machine_sse_control@@0W40@1@Z 0000000140035600 f i libucrtd:_fenvutils.obj
 0001:00034660       ??$__acrt_fenv_translate_bit@W4__acrt_fenv_machine_sse_status@@W4__acrt_fenv_abstract_status@@@@YA?AW4__acrt_fenv_machine_sse_status@@W4__acrt_fenv_abstract_status@@0W40@1@Z 0000000140035660 f i libucrtd:_fenvutils.obj
 0001:00034660       ??$__acrt_fenv_translate_bit@W4__acrt_fenv_abstract_status@@W4__acrt_fenv_machine_sse_status@@@@YA?AW4__acrt_fenv_abstract_status@@W4__acrt_fenv_machine_sse_status@@0W40@1@Z 0000000140035660 f i libucrtd:_fenvutils.obj
 0001:000346b0       ??$__acrt_fenv_translate_bit@W4__acrt_fenv_machine_sse_control@@W4__acrt_fenv_abstract_control@@@@YA?AW4__acrt_fenv_machine_sse_control@@W4__acrt_fenv_abstract_control@@0W40@1@Z 00000001400356b0 f i libucrtd:_fenvutils.obj
 0001:00034710       ??$__acrt_fenv_unshift_bits@W4__acrt_fenv_abstract_control@@@@YA?AW4__acrt_fenv_abstract_control@@W40@0I@Z 0000000140035710 f i libucrtd:_fenvutils.obj
 0001:00034710       ??$__acrt_fenv_unshift_bits@W4__acrt_fenv_abstract_status@@@@YA?AW4__acrt_fenv_abstract_status@@W40@0I@Z 0000000140035710 f i libucrtd:_fenvutils.obj
 0001:00034c00       ??I@YA?AW4__acrt_fenv_machine_sse_status@@W40@0@Z 0000000140035c00 f i libucrtd:_fenvutils.obj
 0001:00034c00       ??I@YA?AW4__acrt_fenv_abstract_status@@W40@0@Z 0000000140035c00 f i libucrtd:_fenvutils.obj
 0001:00034c00       ??I@YA?AW4__acrt_fenv_abstract_control@@W40@0@Z 0000000140035c00 f i libucrtd:_fenvutils.obj
 0001:00034c20       ??I@YA?AW4__acrt_fenv_machine_sse_control@@W40@0@Z 0000000140035c20 f i libucrtd:_fenvutils.obj
 0001:00034c40       ??U@YA?AW4__acrt_fenv_abstract_control@@W40@0@Z 0000000140035c40 f i libucrtd:_fenvutils.obj
 0001:00034c40       ??U@YA?AW4__acrt_fenv_abstract_status@@W40@0@Z 0000000140035c40 f i libucrtd:_fenvutils.obj
 0001:00034c60       ??U@YA?AW4__acrt_fenv_machine_sse_control@@W40@0@Z 0000000140035c60 f i libucrtd:_fenvutils.obj
 0001:00034c80       ??_5@YAAEAW4__acrt_fenv_machine_sse_status@@AEAW40@W40@@Z 0000000140035c80 f i libucrtd:_fenvutils.obj
 0001:00034c80       ??_5@YAAEAW4__acrt_fenv_abstract_control@@AEAW40@W40@@Z 0000000140035c80 f i libucrtd:_fenvutils.obj
 0001:00034c80       ??_5@YAAEAW4__acrt_fenv_abstract_status@@AEAW40@W40@@Z 0000000140035c80 f i libucrtd:_fenvutils.obj
 0001:00034cb0       ??_5@YAAEAW4__acrt_fenv_machine_sse_control@@AEAW40@W40@@Z 0000000140035cb0 f i libucrtd:_fenvutils.obj
 0001:00034ce0       ?__acrt_fenv_shift_abstract_sse_control@@YA?AW4__acrt_fenv_abstract_control@@W41@@Z 0000000140035ce0 f i libucrtd:_fenvutils.obj
 0001:00034d30       ?__acrt_fenv_shift_abstract_sse_status@@YA?AW4__acrt_fenv_abstract_status@@W41@@Z 0000000140035d30 f i libucrtd:_fenvutils.obj
 0001:00034d60       ?__acrt_fenv_unshift_abstract_sse_control@@YA?AW4__acrt_fenv_abstract_control@@W41@@Z 0000000140035d60 f i libucrtd:_fenvutils.obj
 0001:00034db0       ?__acrt_fenv_unshift_abstract_sse_status@@YA?AW4__acrt_fenv_abstract_status@@W41@@Z 0000000140035db0 f i libucrtd:_fenvutils.obj
 0001:00035080       __acrt_fenv_get_common_round_control 0000000140036080 f   libucrtd:_fenvutils.obj
 0001:000350a0       __acrt_fenv_get_control    00000001400360a0 f   libucrtd:_fenvutils.obj
 0001:000350d0       __acrt_fenv_get_status     00000001400360d0 f   libucrtd:_fenvutils.obj
 0001:00035100       __acrt_fenv_set_control    0000000140036100 f   libucrtd:_fenvutils.obj
 0001:00035120       __acrt_fenv_set_status     0000000140036120 f   libucrtd:_fenvutils.obj
 0001:000352b0       _lseeki64_nolock           00000001400362b0 f   libucrtd:lseek.obj
 0001:000352e0       _fclose_nolock             00000001400362e0 f   libucrtd:fclose.obj
 0001:00035470       fclose                     0000000140036470 f   libucrtd:fclose.obj
 0001:000355a4       _putwch_nolock             00000001400365a4 f   libucrtd:putwch.obj
 0001:000355e0       ?__c16rtomb_utf8@__crt_mbstring@@YA_KPEAD_SPEAU_Mbstatet@@@Z 00000001400365e0 f   libucrtd:c16rtomb.obj
 0001:00035800       __acrt_initialize_fma3     0000000140036800 f   libucrtd:fma3_available.obj
 0001:000358b0       _log10_special             00000001400368b0 f   libucrtd:log_special.obj
 0001:00035bf0       _handle_error              0000000140036bf0 f   libucrtd:libm_error.obj
 0001:00035d80       _handle_nan                0000000140036d80 f   libucrtd:libm_error.obj
 0001:00035fc0       _clearfp                   0000000140036fc0 f   libucrtd:ieee.obj
 0001:00035fe0       _control87                 0000000140036fe0 f   libucrtd:ieee.obj
 0001:000364a0       _close                     00000001400374a0 f   libucrtd:close.obj
 0001:00036690       _close_nolock              0000000140037690 f   libucrtd:close.obj
 0001:00036700       ?__acrt_stdio_free_stream@@YAXV__crt_stdio_stream@@@Z 0000000140037700 f   libucrtd:stream.obj
 0001:000367a0       ?deallocate@__crt_stdio_stream@@QEAAXXZ 00000001400377a0 f i libucrtd:stream.obj
 0001:000367b8       __dcrt_lowio_ensure_console_output_initialized 00000001400377b8 f   libucrtd:initcon.obj
 0001:0003680c       __dcrt_terminate_console_output 000000014003780c f   libucrtd:initcon.obj
 0001:00036828       __dcrt_write_console       0000000140037828 f   libucrtd:initcon.obj
 0001:000368f0       _raise_exc                 00000001400378f0 f   libucrtd:fpexcept.obj
 0001:00036950       _raise_exc_ex              0000000140037950 f   libucrtd:fpexcept.obj
 0001:00036fd0       _set_errno_from_matherr    0000000140037fd0 f   libucrtd:fpexcept.obj
 0001:00037020       _clrfp                     0000000140038020 f   libucrtd:fpctrl.obj
 0001:00037050       _ctrlfp                    0000000140038050 f   libucrtd:fpctrl.obj
 0001:00037100       _set_statfp                0000000140038100 f   libucrtd:fpctrl.obj
 0001:00037140       _statfp                    0000000140038140 f   libucrtd:fpctrl.obj
 0001:00037180       _get_fpsr                  0000000140038180 f   libucrtd:fpsr.obj
 0001:00037190       _set_fpsr                  0000000140038190 f   libucrtd:fpsr.obj
 0001:0003719a       _fclrf                     000000014003819a f   libucrtd:fpsr.obj
 0001:000371ae       _frnd                      00000001400381ae f   libucrtd:fpsr.obj
 0001:000371d0       _FindPESection             00000001400381d0 f   LIBCMTD:pesect.obj
 0001:00037280       _IsNonwritableInCurrentImage 0000000140038280 f   LIBCMTD:pesect.obj
 0001:00037310       _ValidateImageBase         0000000140038310 f   LIBCMTD:pesect.obj
 0001:00037390       ??1type_info@@UEAA@XZ      0000000140038390 f   LIBCMTD:std_type_info_static.obj
 0001:000373b0       ??_Etype_info@@UEAAPEAXI@Z 00000001400383b0 f i LIBCMTD:std_type_info_static.obj
 0001:000373b0       ??_Gtype_info@@UEAAPEAXI@Z 00000001400383b0 f i LIBCMTD:std_type_info_static.obj
 0001:000373f0       ??3@YAXPEAX_K@Z            00000001400383f0 f   LIBCMTD:delete_scalar_size.obj
 0001:00037410       __GSHandlerCheck_SEH       0000000140038410 f   LIBCMTD:gshandlerseh.obj
 0001:000374e0       __chkstk                   00000001400384e0 f   LIBCMTD:chkstk.obj
 0001:000374e0       _alloca_probe              00000001400384e0 f   LIBCMTD:chkstk.obj
 0001:00037540       __GSHandlerCheck_EH        0000000140038540 f   LIBCMTD:gshandlereh.obj
 0001:000375f0       ??3@YAXPEAX@Z              00000001400385f0 f   LIBCMTD:delete_scalar.obj
 0001:00037620       memcmp                     0000000140038620 f   libvcruntimed:memcmp.obj
 0001:000376f0       strrchr                    00000001400386f0 f   libvcruntimed:strrchr.obj
 0001:00037b20       _guard_dispatch_icall_nop  0000000140038b20 f   LIBCMTD:guard_dispatch.obj
 0002:00000000       __imp_RaiseException       000000014003a000     kernel32:KERNEL32.dll
 0002:00000008       __imp_CreateFileW          000000014003a008     kernel32:KERNEL32.dll
 0002:00000010       __imp_CloseHandle          000000014003a010     kernel32:KERNEL32.dll
 0002:00000018       __imp_GetConsoleMode       000000014003a018     kernel32:KERNEL32.dll
 0002:00000020       __imp_GetConsoleOutputCP   000000014003a020     kernel32:KERNEL32.dll
 0002:00000028       __imp_FlushFileBuffers     000000014003a028     kernel32:KERNEL32.dll
 0002:00000030       __imp_SetFilePointerEx     000000014003a030     kernel32:KERNEL32.dll
 0002:00000038       __imp_WriteConsoleW        000000014003a038     kernel32:KERNEL32.dll
 0002:00000040       __imp_HeapQueryInformation 000000014003a040     kernel32:KERNEL32.dll
 0002:00000048       __imp_HeapReAlloc          000000014003a048     kernel32:KERNEL32.dll
 0002:00000050       __imp_CompareFileTime      000000014003a050     kernel32:KERNEL32.dll
 0002:00000058       __imp_GetFileAttributesExA 000000014003a058     kernel32:KERNEL32.dll
 0002:00000060       __imp_QueryPerformanceCounter 000000014003a060     kernel32:KERNEL32.dll
 0002:00000068       __imp_QueryPerformanceFrequency 000000014003a068     kernel32:KERNEL32.dll
 0002:00000070       __imp_Sleep                000000014003a070     kernel32:KERNEL32.dll
 0002:00000078       __imp_VirtualAlloc         000000014003a078     kernel32:KERNEL32.dll
 0002:00000080       __imp_FreeLibrary          000000014003a080     kernel32:KERNEL32.dll
 0002:00000088       __imp_GetProcAddress       000000014003a088     kernel32:KERNEL32.dll
 0002:00000090       __imp_LoadLibraryA         000000014003a090     kernel32:KERNEL32.dll
 0002:00000098       __imp_CopyFileA            000000014003a098     kernel32:KERNEL32.dll
 0002:000000a0       __imp_RtlCaptureContext    000000014003a0a0     kernel32:KERNEL32.dll
 0002:000000a8       __imp_RtlLookupFunctionEntry 000000014003a0a8     kernel32:KERNEL32.dll
 0002:000000b0       __imp_RtlVirtualUnwind     000000014003a0b0     kernel32:KERNEL32.dll
 0002:000000b8       __imp_UnhandledExceptionFilter 000000014003a0b8     kernel32:KERNEL32.dll
 0002:000000c0       __imp_SetUnhandledExceptionFilter 000000014003a0c0     kernel32:KERNEL32.dll
 0002:000000c8       __imp_GetCurrentProcess    000000014003a0c8     kernel32:KERNEL32.dll
 0002:000000d0       __imp_TerminateProcess     000000014003a0d0     kernel32:KERNEL32.dll
 0002:000000d8       __imp_IsProcessorFeaturePresent 000000014003a0d8     kernel32:KERNEL32.dll
 0002:000000e0       __imp_GetCurrentProcessId  000000014003a0e0     kernel32:KERNEL32.dll
 0002:000000e8       __imp_GetCurrentThreadId   000000014003a0e8     kernel32:KERNEL32.dll
 0002:000000f0       __imp_GetSystemTimeAsFileTime 000000014003a0f0     kernel32:KERNEL32.dll
 0002:000000f8       __imp_InitializeSListHead  000000014003a0f8     kernel32:KERNEL32.dll
 0002:00000100       __imp_IsDebuggerPresent    000000014003a100     kernel32:KERNEL32.dll
 0002:00000108       __imp_GetStartupInfoW      000000014003a108     kernel32:KERNEL32.dll
 0002:00000110       __imp_GetModuleHandleW     000000014003a110     kernel32:KERNEL32.dll
 0002:00000118       __imp_HeapFree             000000014003a118     kernel32:KERNEL32.dll
 0002:00000120       __imp_RtlUnwindEx          000000014003a120     kernel32:KERNEL32.dll
 0002:00000128       __imp_GetLastError         000000014003a128     kernel32:KERNEL32.dll
 0002:00000130       __imp_SetLastError         000000014003a130     kernel32:KERNEL32.dll
 0002:00000138       __imp_EnterCriticalSection 000000014003a138     kernel32:KERNEL32.dll
 0002:00000140       __imp_LeaveCriticalSection 000000014003a140     kernel32:KERNEL32.dll
 0002:00000148       __imp_DeleteCriticalSection 000000014003a148     kernel32:KERNEL32.dll
 0002:00000150       __imp_InitializeCriticalSectionAndSpinCount 000000014003a150     kernel32:KERNEL32.dll
 0002:00000158       __imp_TlsAlloc             000000014003a158     kernel32:KERNEL32.dll
 0002:00000160       __imp_TlsGetValue          000000014003a160     kernel32:KERNEL32.dll
 0002:00000168       __imp_TlsSetValue          000000014003a168     kernel32:KERNEL32.dll
 0002:00000170       __imp_TlsFree              000000014003a170     kernel32:KERNEL32.dll
 0002:00000178       __imp_LoadLibraryExW       000000014003a178     kernel32:KERNEL32.dll
 0002:00000180       __imp_EncodePointer        000000014003a180     kernel32:KERNEL32.dll
 0002:00000188       __imp_RtlPcToFileHeader    000000014003a188     kernel32:KERNEL32.dll
 0002:00000190       __imp_GetStdHandle         000000014003a190     kernel32:KERNEL32.dll
 0002:00000198       __imp_WriteFile            000000014003a198     kernel32:KERNEL32.dll
 0002:000001a0       __imp_GetModuleFileNameW   000000014003a1a0     kernel32:KERNEL32.dll
 0002:000001a8       __imp_ExitProcess          000000014003a1a8     kernel32:KERNEL32.dll
 0002:000001b0       __imp_GetModuleHandleExW   000000014003a1b0     kernel32:KERNEL32.dll
 0002:000001b8       __imp_HeapAlloc            000000014003a1b8     kernel32:KERNEL32.dll
 0002:000001c0       __imp_HeapSize             000000014003a1c0     kernel32:KERNEL32.dll
 0002:000001c8       __imp_HeapValidate         000000014003a1c8     kernel32:KERNEL32.dll
 0002:000001d0       __imp_GetSystemInfo        000000014003a1d0     kernel32:KERNEL32.dll
 0002:000001d8       __imp_OutputDebugStringW   000000014003a1d8     kernel32:KERNEL32.dll
 0002:000001e0       __imp_FindClose            000000014003a1e0     kernel32:KERNEL32.dll
 0002:000001e8       __imp_FindFirstFileExW     000000014003a1e8     kernel32:KERNEL32.dll
 0002:000001f0       __imp_FindNextFileW        000000014003a1f0     kernel32:KERNEL32.dll
 0002:000001f8       __imp_IsValidCodePage      000000014003a1f8     kernel32:KERNEL32.dll
 0002:00000200       __imp_GetACP               000000014003a200     kernel32:KERNEL32.dll
 0002:00000208       __imp_GetOEMCP             000000014003a208     kernel32:KERNEL32.dll
 0002:00000210       __imp_GetCPInfo            000000014003a210     kernel32:KERNEL32.dll
 0002:00000218       __imp_GetCommandLineA      000000014003a218     kernel32:KERNEL32.dll
 0002:00000220       __imp_GetCommandLineW      000000014003a220     kernel32:KERNEL32.dll
 0002:00000228       __imp_MultiByteToWideChar  000000014003a228     kernel32:KERNEL32.dll
 0002:00000230       __imp_WideCharToMultiByte  000000014003a230     kernel32:KERNEL32.dll
 0002:00000238       __imp_GetEnvironmentStringsW 000000014003a238     kernel32:KERNEL32.dll
 0002:00000240       __imp_FreeEnvironmentStringsW 000000014003a240     kernel32:KERNEL32.dll
 0002:00000248       __imp_SetStdHandle         000000014003a248     kernel32:KERNEL32.dll
 0002:00000250       __imp_GetFileType          000000014003a250     kernel32:KERNEL32.dll
 0002:00000258       __imp_GetStringTypeW       000000014003a258     kernel32:KERNEL32.dll
 0002:00000260       __imp_LCMapStringW         000000014003a260     kernel32:KERNEL32.dll
 0002:00000268       __imp_GetProcessHeap       000000014003a268     kernel32:KERNEL32.dll
 0002:00000270       \177KERNEL32_NULL_THUNK_DATA 000000014003a270     kernel32:KERNEL32.dll
 0002:00000278       __imp_DispatchMessageA     000000014003a278     user32:USER32.dll
 0002:00000280       __imp_LoadCursorA          000000014003a280     user32:USER32.dll
 0002:00000288       __imp_ScreenToClient       000000014003a288     user32:USER32.dll
 0002:00000290       __imp_GetCursorPos         000000014003a290     user32:USER32.dll
 0002:00000298       __imp_GetClientRect        000000014003a298     user32:USER32.dll
 0002:000002a0       __imp_GetDC                000000014003a2a0     user32:USER32.dll
 0002:000002a8       __imp_GetKeyState          000000014003a2a8     user32:USER32.dll
 0002:000002b0       __imp_CreateWindowExA      000000014003a2b0     user32:USER32.dll
 0002:000002b8       __imp_RegisterClassA       000000014003a2b8     user32:USER32.dll
 0002:000002c0       __imp_DefWindowProcA       000000014003a2c0     user32:USER32.dll
 0002:000002c8       __imp_PeekMessageA         000000014003a2c8     user32:USER32.dll
 0002:000002d0       __imp_TranslateMessage     000000014003a2d0     user32:USER32.dll
 0002:000002d8       \177USER32_NULL_THUNK_DATA 000000014003a2d8     user32:USER32.dll
 0002:000002e0       __guard_check_icall_fptr   000000014003a2e0     LIBCMTD:guard_support.obj
 0002:000002e8       __guard_dispatch_icall_fptr 000000014003a2e8     LIBCMTD:guard_support.obj
 0002:000002f0       __xc_a                     000000014003a2f0     LIBCMTD:initializers.obj
 0002:00000300       __xc_z                     000000014003a300     LIBCMTD:initializers.obj
 0002:00000308       __xi_a                     000000014003a308     LIBCMTD:initializers.obj
 0002:00000320       __acrt_multibyte_initializer 000000014003a320     libucrtd:multibyte_initializer.obj
 0002:00000328       __acrt_fmode_initializer   000000014003a328     libucrtd:fmode_initializer.obj
 0002:00000330       __acrt_stdio_initializer   000000014003a330     libucrtd:stdio_initializer.obj
 0002:00000338       __acrt_tran_fma3_initializer 000000014003a338     libucrtd:fma3_initializer.obj
 0002:00000340       __xi_z                     000000014003a340     LIBCMTD:initializers.obj
 0002:00000348       __xp_a                     000000014003a348     LIBCMTD:initializers.obj
 0002:00000350       __acrt_locale_terminator   000000014003a350     libucrtd:locale_initializer.obj
 0002:00000358       __dcrt_console_output_terminator 000000014003a358     libucrtd:console_output_initializer.obj
 0002:00000360       __acrt_stdio_terminator    000000014003a360     libucrtd:stdio_initializer.obj
 0002:00000368       __xp_z                     000000014003a368     LIBCMTD:initializers.obj
 0002:00000370       __xt_a                     000000014003a370     LIBCMTD:initializers.obj
 0002:00000378       __xt_z                     000000014003a378     LIBCMTD:initializers.obj
 0002:00000410       ??_C@_04LLJCPOLH@Init@     000000014003a410     win32_main.obj
 0002:00000418       ??_C@_07BDCAJABG@Destroy@  000000014003a418     win32_main.obj
 0002:00000420       ??_C@_0BA@NJDNIJEN@SwapChainChange@ 000000014003a420     win32_main.obj
 0002:00000430       ??_C@_0L@PJMKAEKN@CodeReload@ 000000014003a430     win32_main.obj
 0002:00000440       ??_C@_08JEEIGPMO@MainLoop@ 000000014003a440     win32_main.obj
 0002:0000044c       __real@3c888889            000000014003a44c     win32_main.obj
 0002:00000460       _pDestructExceptionObject  000000014003a460     libvcruntimed:ehhelpers.obj
 0002:00000470       ??_C@_0EO@EFANHAJD@d?3?2agent?2_work?21?2s?2src?2vctools?2@ 000000014003a470     libvcruntimed:per_thread_data.obj
 0002:000004d8       ??_C@_1DM@KHCHBNEB@?$AAa?$AAp?$AAi?$AA?9?$AAm?$AAs?$AA?9?$AAw?$AAi?$AAn?$AA?9?$AAc?$AAo?$AAr?$AAe@ 000000014003a4d8     libvcruntimed:winapi_downlevel.obj
 0002:00000518       ??_C@_1DK@LPPGFMPP@?$AAa?$AAp?$AAi?$AA?9?$AAm?$AAs?$AA?9?$AAw?$AAi?$AAn?$AA?9?$AAc?$AAo?$AAr?$AAe@ 000000014003a518     libvcruntimed:winapi_downlevel.obj
 0002:00000558       ??_C@_1BC@GDMECMAK@?$AAk?$AAe?$AAr?$AAn?$AAe?$AAl?$AA3?$AA2@ 000000014003a558     libvcruntimed:winapi_downlevel.obj
 0002:00000570       ??_C@_17CNPHIMPH@?$AA?$CF?$AAl?$AAs@ 000000014003a570     libvcruntimed:winapi_downlevel.obj
 0002:00000578       ??_C@_1BA@PFFKHIOG@?$AAa?$AAp?$AAi?$AA?9?$AAm?$AAs?$AA?9@ 000000014003a578     libvcruntimed:winapi_downlevel.obj
 0002:00000588       ??_C@_1BA@IAIFMGEF@?$AAe?$AAx?$AAt?$AA?9?$AAm?$AAs?$AA?9@ 000000014003a588     libvcruntimed:winapi_downlevel.obj
 0002:000005a0       ??_C@_1EM@LBIFGLGH@?$AAc?$AAa?$AAc?$AAh?$AAe?$AAd?$AA_?$AAh?$AAa?$AAn?$AAd?$AAl?$AAe?$AA?5?$AA?$DN@ 000000014003a5a0     libvcruntimed:winapi_downlevel.obj
 0002:000005f0       ??_C@_1JO@HGCMALOH@?$AAd?$AA?3?$AA?2?$AAa?$AAg?$AAe?$AAn?$AAt?$AA?2?$AA_?$AAw?$AAo?$AAr?$AAk?$AA?2@ 000000014003a5f0     libvcruntimed:winapi_downlevel.obj
 0002:00000690       ??_C@_1DI@MAHEDLDB@?$AAc?$AAa?$AAc?$AAh?$AAe?$AAd?$AA_?$AAh?$AAa?$AAn?$AAd?$AAl?$AAe?$AA?5?$AA?$DN@ 000000014003a690     libvcruntimed:winapi_downlevel.obj
 0002:000006d0       ??_C@_1FC@IBNCGNKL@?$AAc?$AAa?$AAc?$AAh?$AAe?$AAd?$AA_?$AAf?$AAp?$AA?5?$AA?$DN?$AA?$DN?$AA?5?$AAi?$AAn@ 000000014003a6d0     libvcruntimed:winapi_downlevel.obj
 0002:00000728       ??_C@_1CI@GDJBAGLP@?$AAc?$AAa?$AAc?$AAh?$AAe?$AAd?$AA_?$AAf?$AAp?$AA?5?$AA?$DN?$AA?$DN?$AA?5?$AAn?$AAe@ 000000014003a728     libvcruntimed:winapi_downlevel.obj
 0002:00000758       ??_C@_08KNHFBNJ@FlsAlloc@  000000014003a758     libvcruntimed:winapi_downlevel.obj
 0002:00000770       ??_C@_07PEJMOBNF@FlsFree@  000000014003a770     libvcruntimed:winapi_downlevel.obj
 0002:00000780       ??_C@_0M@GDNOONDI@FlsGetValue@ 000000014003a780     libvcruntimed:winapi_downlevel.obj
 0002:00000798       ??_C@_0M@JCPCPOEF@FlsSetValue@ 000000014003a798     libvcruntimed:winapi_downlevel.obj
 0002:000007b0       ??_C@_0BM@HCFOFFN@InitializeCriticalSectionEx@ 000000014003a7b0     libvcruntimed:winapi_downlevel.obj
 0002:00000b08       ??_C@_08EHJDFFNH@__based?$CI@ 000000014003ab08     libvcruntimed:undname.obj
 0002:00000b18       ??_C@_07KOLFKCDI@__cdecl@  000000014003ab18     libvcruntimed:undname.obj
 0002:00000b20       ??_C@_08GHMPAG@__pascal@   000000014003ab20     libvcruntimed:undname.obj
 0002:00000b30       ??_C@_09IFJBGAPI@__stdcall@ 000000014003ab30     libvcruntimed:undname.obj
 0002:00000b40       ??_C@_0L@NPHFGOKO@__thiscall@ 000000014003ab40     libvcruntimed:undname.obj
 0002:00000b50       ??_C@_0L@JMKHOMEK@__fastcall@ 000000014003ab50     libvcruntimed:undname.obj
 0002:00000b60       ??_C@_0N@BCKKPABJ@__vectorcall@ 000000014003ab60     libvcruntimed:undname.obj
 0002:00000b70       ??_C@_09HIJEGCPM@__clrcall@ 000000014003ab70     libvcruntimed:undname.obj
 0002:00000b7c       ??_C@_06GHPCKEAG@__eabi@   000000014003ab7c     libvcruntimed:undname.obj
 0002:00000b88       ??_C@_09IOPIDJLG@__swift_1@ 000000014003ab88     libvcruntimed:undname.obj
 0002:00000b98       ??_C@_09KFNFGKHF@__swift_2@ 000000014003ab98     libvcruntimed:undname.obj
 0002:00000ba8       ??_C@_07JOMMBBKO@__ptr64@  000000014003aba8     libvcruntimed:undname.obj
 0002:00000bb0       ??_C@_0L@PILCLIHE@__restrict@ 000000014003abb0     libvcruntimed:undname.obj
 0002:00000bc0       ??_C@_0M@GFIIJFMG@__unaligned@ 000000014003abc0     libvcruntimed:undname.obj
 0002:00000bd0       ??_C@_09DHDLOLLB@restrict?$CI@ 000000014003abd0     libvcruntimed:undname.obj
 0002:00000bda       ??_C@_00CNPNBAHC@@         000000014003abda     libvcruntimed:undname.obj
 0002:00000bdc       ??_C@_04NIHEBCM@?5new@     000000014003abdc     libvcruntimed:undname.obj
 0002:00000be8       ??_C@_07FPCDHGMM@?5delete@ 000000014003abe8     libvcruntimed:undname.obj
 0002:00000bf0       ??_C@_01NEMOKFLO@?$DN@     000000014003abf0     libvcruntimed:undname.obj
 0002:00000bf4       ??_C@_02GPIOPFAK@?$DO?$DO@ 000000014003abf4     libvcruntimed:undname.obj
 0002:00000bf8       ??_C@_02FODMEDOG@?$DM?$DM@ 000000014003abf8     libvcruntimed:undname.obj
 0002:00000bfc       ??_C@_01DCLJPIOD@?$CB@     000000014003abfc     libvcruntimed:undname.obj
 0002:00000c00       ??_C@_02EGOFBIJA@?$DN?$DN@ 000000014003ac00     libvcruntimed:undname.obj
 0002:00000c04       ??_C@_02FDNJECIE@?$CB?$DN@ 000000014003ac04     libvcruntimed:undname.obj
 0002:00000c08       ??_C@_02GPECMEKF@?$FL?$FN@ 000000014003ac08     libvcruntimed:undname.obj
 0002:00000c10       ??_C@_08LHJFAFGD@operator@ 000000014003ac10     libvcruntimed:undname.obj
 0002:00000c1c       ??_C@_02HBOOOICD@?9?$DO@   000000014003ac1c     libvcruntimed:undname.obj
 0002:00000c20       ??_C@_01NBENCBCI@?$CK@     000000014003ac20     libvcruntimed:undname.obj
 0002:00000c24       ??_C@_02ECNGHCIF@?$CL?$CL@ 000000014003ac24     libvcruntimed:undname.obj
 0002:00000c28       ??_C@_02BAABKJLB@?9?9@     000000014003ac28     libvcruntimed:undname.obj
 0002:00000c2c       ??_C@_01JOAMLHOP@?9@       000000014003ac2c     libvcruntimed:undname.obj
 0002:00000c30       ??_C@_01MIFGBAGJ@?$CL@     000000014003ac30     libvcruntimed:undname.obj
 0002:00000c34       ??_C@_01HNPIGOCE@?$CG@     000000014003ac34     libvcruntimed:undname.obj
 0002:00000c38       ??_C@_03MNHNFDLC@?9?$DO?$CK@ 000000014003ac38     libvcruntimed:undname.obj
 0002:00000c3c       ??_C@_01KMDKNFGN@?1@       000000014003ac3c     libvcruntimed:undname.obj
 0002:00000c40       ??_C@_01FGNFDNOH@?$CF@     000000014003ac40     libvcruntimed:undname.obj
 0002:00000c44       ??_C@_01MNNFJEPP@?$DM@     000000014003ac44     libvcruntimed:undname.obj
 0002:00000c48       ??_C@_02EHCHHCKH@?$DM?$DN@ 000000014003ac48     libvcruntimed:undname.obj
 0002:00000c4c       ??_C@_01PPODPGHN@?$DO@     000000014003ac4c     libvcruntimed:undname.obj
 0002:00000c50       ??_C@_02EEKDKGMJ@?$DO?$DN@ 000000014003ac50     libvcruntimed:undname.obj
 0002:00000c54       ??_C@_01IHBHIGKO@?0@       000000014003ac54     libvcruntimed:undname.obj
 0002:00000c58       ??_C@_02HCKGKOFO@?$CI?$CJ@ 000000014003ac58     libvcruntimed:undname.obj
 0002:00000c5c       ??_C@_01PJKLJHI@?$HO@      000000014003ac5c     libvcruntimed:undname.obj
 0002:00000c60       ??_C@_01JKBOJNNK@?$FO@     000000014003ac60     libvcruntimed:undname.obj
 0002:00000c64       ??_C@_01DNKMNLPK@?$HM@     000000014003ac64     libvcruntimed:undname.obj
 0002:00000c68       ??_C@_02PPKAJPJL@?$CG?$CG@ 000000014003ac68     libvcruntimed:undname.obj
 0002:00000c6c       ??_C@_02NONPIBCD@?$HM?$HM@ 000000014003ac6c     libvcruntimed:undname.obj
 0002:00000c70       ??_C@_02FPIMKNGF@?$CK?$DN@ 000000014003ac70     libvcruntimed:undname.obj
 0002:00000c74       ??_C@_02FOEOMHFC@?$CL?$DN@ 000000014003ac74     libvcruntimed:undname.obj
 0002:00000c78       ??_C@_02FKMDLLOA@?9?$DN@   000000014003ac78     libvcruntimed:undname.obj
 0002:00000c7c       ??_C@_02FJEHGPIO@?1?$DN@   000000014003ac7c     libvcruntimed:undname.obj
 0002:00000c80       ??_C@_02FENAOKFI@?$CF?$DN@ 000000014003ac80     libvcruntimed:undname.obj
 0002:00000c84       ??_C@_03IKFCCPFF@?$DO?$DO?$DN@ 000000014003ac84     libvcruntimed:undname.obj
 0002:00000c88       ??_C@_03CDNPDDLA@?$DM?$DM?$DN@ 000000014003ac88     libvcruntimed:undname.obj
 0002:00000c8c       ??_C@_02FGJGFEAB@?$CG?$DN@ 000000014003ac8c     libvcruntimed:undname.obj
 0002:00000c90       ??_C@_02DHLNPPGH@?$HM?$DN@ 000000014003ac90     libvcruntimed:undname.obj
 0002:00000c94       ??_C@_02MHEGNOJ@?$FO?$DN@  000000014003ac94     libvcruntimed:undname.obj
 0002:00000c98       ??_C@_09IFPLHPGF@?$GAvftable?8@ 000000014003ac98     libvcruntimed:undname.obj
 0002:00000ca8       ??_C@_09BLBHBJP@?$GAvbtable?8@ 000000014003aca8     libvcruntimed:undname.obj
 0002:00000cb8       ??_C@_07FEEIOKP@?$GAvcall?8@ 000000014003acb8     libvcruntimed:undname.obj
 0002:00000cc0       ??_C@_08LLFFHHDJ@?$GAtypeof?8@ 000000014003acc0     libvcruntimed:undname.obj
 0002:00000cd0       ??_C@_0BF@KDPPACIK@?$GAlocal?5static?5guard?8@ 000000014003acd0     libvcruntimed:undname.obj
 0002:00000ce8       ??_C@_08OBABFOLI@?$GAstring?8@ 000000014003ace8     libvcruntimed:undname.obj
 0002:00000cf8       ??_C@_0BD@JDLKDPAB@?$GAvbase?5destructor?8@ 000000014003acf8     libvcruntimed:undname.obj
 0002:00000d10       ??_C@_0BN@DEGPLNFK@?$GAvector?5deleting?5destructor?8@ 000000014003ad10     libvcruntimed:undname.obj
 0002:00000d30       ??_C@_0BO@OBMKPJIG@?$GAdefault?5constructor?5closure?8@ 000000014003ad30     libvcruntimed:undname.obj
 0002:00000d50       ??_C@_0BN@IMDCHIKM@?$GAscalar?5deleting?5destructor?8@ 000000014003ad50     libvcruntimed:undname.obj
 0002:00000d70       ??_C@_0BO@PFGOCPJJ@?$GAvector?5constructor?5iterator?8@ 000000014003ad70     libvcruntimed:undname.obj
 0002:00000d90       ??_C@_0BN@LFPFMEDL@?$GAvector?5destructor?5iterator?8@ 000000014003ad90     libvcruntimed:undname.obj
 0002:00000db0       ??_C@_0CE@IKBNEHA@?$GAvector?5vbase?5constructor?5itera@ 000000014003adb0     libvcruntimed:undname.obj
 0002:00000dd8       ??_C@_0BL@NILFHHPC@?$GAvirtual?5displacement?5map?8@ 000000014003add8     libvcruntimed:undname.obj
 0002:00000df8       ??_C@_0CB@JONCMFFK@?$GAeh?5vector?5constructor?5iterator@ 000000014003adf8     libvcruntimed:undname.obj
 0002:00000e20       ??_C@_0CA@GCEOPDGL@?$GAeh?5vector?5destructor?5iterator?8@ 000000014003ae20     libvcruntimed:undname.obj
 0002:00000e40       ??_C@_0CH@OOJPLCPH@?$GAeh?5vector?5vbase?5constructor?5it@ 000000014003ae40     libvcruntimed:undname.obj
 0002:00000e68       ??_C@_0BL@LLKPOHJI@?$GAcopy?5constructor?5closure?8@ 000000014003ae68     libvcruntimed:undname.obj
 0002:00000e88       ??_C@_0BA@KBCDOMBN@?$GAudt?5returning?8@ 000000014003ae88     libvcruntimed:undname.obj
 0002:00000e98       ??_C@_03KLGMFNMG@?$GAEH@   000000014003ae98     libvcruntimed:undname.obj
 0002:00000e9c       ??_C@_05KHLCHHI@?$GARTTI@  000000014003ae9c     libvcruntimed:undname.obj
 0002:00000ea8       ??_C@_0BA@KKLDJDLB@?$GAlocal?5vftable?8@ 000000014003aea8     libvcruntimed:undname.obj
 0002:00000eb8       ??_C@_0CE@IIHCMGGL@?$GAlocal?5vftable?5constructor?5clos@ 000000014003aeb8     libvcruntimed:undname.obj
 0002:00000edc       ??_C@_06FHBGPFGH@?5new?$FL?$FN@ 000000014003aedc     libvcruntimed:undname.obj
 0002:00000ee8       ??_C@_09LBNFPBCA@?5delete?$FL?$FN@ 000000014003aee8     libvcruntimed:undname.obj
 0002:00000ef8       ??_C@_0P@HJKNJFNN@?$GAomni?5callsig?8@ 000000014003aef8     libvcruntimed:undname.obj
 0002:00000f08       ??_C@_0BL@CNOONJFP@?$GAplacement?5delete?5closure?8@ 000000014003af08     libvcruntimed:undname.obj
 0002:00000f28       ??_C@_0BN@CKNJLHMB@?$GAplacement?5delete?$FL?$FN?5closure?8@ 000000014003af28     libvcruntimed:undname.obj
 0002:00000f48       ??_C@_0CG@CFDHKGGD@?$GAmanaged?5vector?5constructor?5ite@ 000000014003af48     libvcruntimed:undname.obj
 0002:00000f70       ??_C@_0CF@IMGKMJNO@?$GAmanaged?5vector?5destructor?5iter@ 000000014003af70     libvcruntimed:undname.obj
 0002:00000f98       ??_C@_0CG@HLDDJMAG@?$GAeh?5vector?5copy?5constructor?5ite@ 000000014003af98     libvcruntimed:undname.obj
 0002:00000fc0       ??_C@_0CM@FCBBDIGB@?$GAeh?5vector?5vbase?5copy?5construct@ 000000014003afc0     libvcruntimed:undname.obj
 0002:00000ff0       ??_C@_0BL@CLIPGLGB@?$GAdynamic?5initializer?5for?5?8@ 000000014003aff0     libvcruntimed:undname.obj
 0002:00001010       ??_C@_0CB@PDBIFEP@?$GAdynamic?5atexit?5destructor?5for?5@ 000000014003b010     libvcruntimed:undname.obj
 0002:00001038       ??_C@_0CD@CGAJBKEJ@?$GAvector?5copy?5constructor?5iterat@ 000000014003b038     libvcruntimed:undname.obj
 0002:00001060       ??_C@_0CJ@GJELGAMM@?$GAvector?5vbase?5copy?5constructor?5@ 000000014003b060     libvcruntimed:undname.obj
 0002:00001090       ??_C@_0CL@FGIJHLCE@?$GAmanaged?5vector?5copy?5constructo@ 000000014003b090     libvcruntimed:undname.obj
 0002:000010c0       ??_C@_0BM@PMGGMLDN@?$GAlocal?5static?5thread?5guard?8@ 000000014003b0c0     libvcruntimed:undname.obj
 0002:000010e0       ??_C@_0N@BDNMDMOL@operator?5?$CC?$CC?5@ 000000014003b0e0     libvcruntimed:undname.obj
 0002:000010f0       ??_C@_0BC@GGEBGALA@operator?5co_await@ 000000014003b0f0     libvcruntimed:undname.obj
 0002:00001108       ??_C@_0BC@DAFEJGAK@?5Type?5Descriptor?8@ 000000014003b108     libvcruntimed:undname.obj
 0002:00001120       ??_C@_0BM@LDKODKLH@?5Base?5Class?5Descriptor?5at?5?$CI@ 000000014003b120     libvcruntimed:undname.obj
 0002:00001140       ??_C@_0BD@LGICGFMM@?5Base?5Class?5Array?8@ 000000014003b140     libvcruntimed:undname.obj
 0002:00001158       ??_C@_0BN@MECKDCOJ@?5Class?5Hierarchy?5Descriptor?8@ 000000014003b158     libvcruntimed:undname.obj
 0002:00001178       ??_C@_0BK@CFCOFLF@?5Complete?5Object?5Locator?8@ 000000014003b178     libvcruntimed:undname.obj
 0002:00001240       ??_7exception@std@@6B@     000000014003b240     libvcruntimed:frame.obj
 0002:00001250       ??_C@_0BC@EOODALEL@Unknown?5exception@ 000000014003b250     libvcruntimed:frame.obj
 0002:00001270       ??_7bad_exception@std@@6B@ 000000014003b270     libvcruntimed:frame.obj
 0002:00001280       ??_C@_0O@DPKOEFFH@bad?5exception@ 000000014003b280     libvcruntimed:frame.obj
 0002:00001290       ??_C@_1FK@OACNEHHA@?$AAt?$AAo?$AA?9?$AA?$DO?$AA_?$AAW?$AAh?$AAa?$AAt?$AA?5?$AA?$DN?$AA?$DN?$AA?5?$AAn?$AAu@ 000000014003b290     libvcruntimed:std_exception.obj
 0002:000012f0       ??_C@_1IM@CGBJDMAM@?$AAd?$AA?3?$AA?2?$AAa?$AAg?$AAe?$AAn?$AAt?$AA?2?$AA_?$AAw?$AAo?$AAr?$AAk?$AA?2@ 000000014003b2f0     libvcruntimed:std_exception.obj
 0002:000013c0       __acrt_exception_action_table 000000014003b3c0     libucrtd:exception_filter.obj
 0002:00001480       __acrt_signal_action_table_count 000000014003b480     libucrtd:exception_filter.obj
 0002:00001488       __acrt_signal_action_first_fpe_index 000000014003b488     libucrtd:exception_filter.obj
 0002:00001490       __acrt_signal_action_fpe_count 000000014003b490     libucrtd:exception_filter.obj
 0002:000014a0       ??_C@_1IC@DCNEKBE@?$AAm?$AAi?$AAn?$AAk?$AAe?$AAr?$AAn?$AAe?$AAl?$AA?2?$AAc?$AAr?$AAt?$AAs?$AA?2@ 000000014003b4a0     libucrtd:report_runtime_error.obj
 0002:00001528       ??_C@_1DI@BLFJHKKP@?$AA_?$AA_?$AAa?$AAc?$AAr?$AAt?$AA_?$AAr?$AAe?$AAp?$AAo?$AAr?$AAt?$AA_?$AAr@ 000000014003b528     libucrtd:report_runtime_error.obj
 0002:00001560       ??_C@_1LE@MHPGJGKE@?$AAw?$AAc?$AAs?$AAc?$AAp?$AAy?$AA_?$AAs?$AA?$CI?$AAo?$AAu?$AAt?$AAm?$AAs?$AAg@ 000000014003b560     libucrtd:report_runtime_error.obj
 0002:00001618       ??_C@_1DE@JNGNBFGO@?$AAR?$AAu?$AAn?$AAt?$AAi?$AAm?$AAe?$AA?5?$AAE?$AAr?$AAr?$AAo?$AAr?$AA?$CB?$AA?6@ 000000014003b618     libucrtd:report_runtime_error.obj
 0002:00001650       ??_C@_1HK@FJJNAABO@?$AAw?$AAc?$AAs?$AAc?$AAp?$AAy?$AA_?$AAs?$AA?$CI?$AAp?$AAr?$AAo?$AAg?$AAn?$AAa@ 000000014003b650     libucrtd:report_runtime_error.obj
 0002:000016d0       ??_C@_1CO@EAEJAADC@?$AA?$DM?$AAp?$AAr?$AAo?$AAg?$AAr?$AAa?$AAm?$AA?5?$AAn?$AAa?$AAm?$AAe?$AA?5?$AAu@ 000000014003b6d0     libucrtd:report_runtime_error.obj
 0002:00001700       ??_C@_1HI@FLHKGEBE@?$AAw?$AAc?$AAs?$AAn?$AAc?$AAp?$AAy?$AA_?$AAs?$AA?$CI?$AAp?$AAc?$AAh?$AA?0?$AA?5@ 000000014003b700     libucrtd:report_runtime_error.obj
 0002:00001778       ??_C@_17LGKOMLJ@?$AA?4?$AA?4?$AA?4@ 000000014003b778     libucrtd:report_runtime_error.obj
 0002:00001780       ??_C@_1IG@MNNKBLBI@?$AAw?$AAc?$AAs?$AAc?$AAa?$AAt?$AA_?$AAs?$AA?$CI?$AAo?$AAu?$AAt?$AAm?$AAs?$AAg@ 000000014003b780     libucrtd:report_runtime_error.obj
 0002:00001808       ??_C@_15IABLJNFO@?$AA?6?$AA?6@ 000000014003b808     libucrtd:report_runtime_error.obj
 0002:00001810       ??_C@_1IG@DFBBBDAN@?$AAw?$AAc?$AAs?$AAc?$AAa?$AAt?$AA_?$AAs?$AA?$CI?$AAo?$AAu?$AAt?$AAm?$AAs?$AAg@ 000000014003b810     libucrtd:report_runtime_error.obj
 0002:000018a0       ??_C@_1EK@MBDPDCGA@?$AAM?$AAi?$AAc?$AAr?$AAo?$AAs?$AAo?$AAf?$AAt?$AA?5?$AAV?$AAi?$AAs?$AAu?$AAa@ 000000014003b8a0     libucrtd:report_runtime_error.obj
 0002:000018f0       ??_C@_0DI@KNDIGDEP@minkernel?2crts?2ucrt?2src?2appcrt?2@ 000000014003b8f0     libucrtd:argv_parsing.obj
 0002:00001930       ??_C@_1JO@PGBIJBAM@?$AAm?$AAo?$AAd?$AAe?$AA?5?$AA?$DN?$AA?$DN?$AA?5?$AA_?$AAc?$AAr?$AAt?$AA_?$AAa?$AAr@ 000000014003b930     libucrtd:argv_parsing.obj
 0002:000019d0       ??_C@_1HA@JMLCANEE@?$AAm?$AAi?$AAn?$AAk?$AAe?$AAr?$AAn?$AAe?$AAl?$AA?2?$AAc?$AAr?$AAt?$AAs?$AA?2@ 000000014003b9d0     libucrtd:argv_parsing.obj
 0002:00001a40       ??_C@_1CM@LHOJELIC@?$AAc?$AAo?$AAm?$AAm?$AAo?$AAn?$AA_?$AAc?$AAo?$AAn?$AAf?$AAi?$AAg?$AAu?$AAr@ 000000014003ba40     libucrtd:argv_parsing.obj
 0002:00001a70       ??_C@_0EG@LEHKHOEH@minkernel?2crts?2ucrt?2src?2desktop@ 000000014003ba70     libucrtd:environment_initialization.obj
 0002:00001ac0       ??_C@_1IM@IMOFFPLG@?$AAm?$AAi?$AAn?$AAk?$AAe?$AAr?$AAn?$AAe?$AAl?$AA?2?$AAc?$AAr?$AAt?$AAs?$AA?2@ 000000014003bac0     libucrtd:environment_initialization.obj
 0002:00001b50       ??_C@_1CG@MNNNBNAK@?$AAc?$AAr?$AAe?$AAa?$AAt?$AAe?$AA_?$AAe?$AAn?$AAv?$AAi?$AAr?$AAo?$AAn?$AAm@ 000000014003bb50     libucrtd:environment_initialization.obj
 0002:00001b80       ??_C@_1HI@OOPIFFGA@?$AAt?$AAr?$AAa?$AAi?$AAt?$AAs?$AA?3?$AA?3?$AAt?$AAc?$AAs?$AAc?$AAp?$AAy?$AA_@ 000000014003bb80     libucrtd:environment_initialization.obj
 0002:00001bf8       ??_C@_1BI@BGOHAHKC@?$AAm?$AAs?$AAc?$AAo?$AAr?$AAe?$AAe?$AA?4?$AAd?$AAl?$AAl@ 000000014003bbf8     libucrtd:exit.obj
 0002:00001c10       ??_C@_0P@MIGLKIOC@CorExitProcess@ 000000014003bc10     libucrtd:exit.obj
 0002:00001c20       ??_C@_1GC@CIJNGKLD@?$AAm?$AAi?$AAn?$AAk?$AAe?$AAr?$AAn?$AAe?$AAl?$AA?2?$AAc?$AAr?$AAt?$AAs?$AA?2@ 000000014003bc20     libucrtd:setmode.obj
 0002:00001c90       ??_C@_1FO@LPCLHKGE@?$AA?$CI?$AAf?$AAh?$AA?5?$AA?$DO?$AA?$DN?$AA?5?$AA0?$AA?5?$AA?$CG?$AA?$CG?$AA?5?$AA?$CI?$AAu?$AAn@ 000000014003bc90     libucrtd:setmode.obj
 0002:00001cf0       ??_C@_1CM@OKGMMMDH@?$AA?$CI?$AA_?$AAo?$AAs?$AAf?$AAi?$AAl?$AAe?$AA?$CI?$AAf?$AAh?$AA?$CJ?$AA?5?$AA?$CG?$AA?5@ 000000014003bcf0     libucrtd:setmode.obj
 0002:00001d20       ??_C@_1JE@ECKHFIFP@?$AA?$CI?$AA?$CC?$AAI?$AAn?$AAv?$AAa?$AAl?$AAi?$AAd?$AA?5?$AAf?$AAi?$AAl?$AAe?$AA?5@ 000000014003bd20     libucrtd:setmode.obj
 0002:00001dc0       ??_C@_1HC@GNDCDMJL@?$AAm?$AAo?$AAd?$AAe?$AA?5?$AA?$DN?$AA?$DN?$AA?5?$AA_?$AAO?$AA_?$AAT?$AAE?$AAX?$AAT@ 000000014003bdc0     libucrtd:setmode.obj
 0002:00001e38       ??_C@_1BG@IEEHLOCL@?$AA_?$AAs?$AAe?$AAt?$AA_?$AAf?$AAm?$AAo?$AAd?$AAe@ 000000014003be38     libucrtd:setmode.obj
 0002:00001e50       ??_C@_1GA@LDEGDKD@?$AA?$CI?$AA?$CC?$AAI?$AAn?$AAv?$AAa?$AAl?$AAi?$AAd?$AA?5?$AAp?$AAa?$AAr?$AAa?$AAm@ 000000014003be50     libucrtd:wsetlocale.obj
 0002:00001eb0       ??_C@_1GK@DPKNLBIE@?$AAm?$AAi?$AAn?$AAk?$AAe?$AAr?$AAn?$AAe?$AAl?$AA?2?$AAc?$AAr?$AAt?$AAs?$AA?2@ 000000014003beb0     libucrtd:wsetlocale.obj
 0002:00001f20       ??_C@_1CI@FGIONOJM@?$AA_?$AAc?$AAo?$AAn?$AAf?$AAi?$AAg?$AAt?$AAh?$AAr?$AAe?$AAa?$AAd?$AAl?$AAo@ 000000014003bf20     libucrtd:wsetlocale.obj
 0002:00001f48       ??_C@_1CO@JKFLNGDK@?$AAm?$AAo?$AAd?$AAe?$AA?5?$AA?$DN?$AA?$DN?$AA?5?$AA0?$AA?5?$AA?$HM?$AA?$HM?$AA?5?$AAm?$AAo@ 000000014003bf48     libucrtd:new_mode.obj
 0002:00001f80       ??_C@_1GC@PJMKBHEK@?$AAm?$AAi?$AAn?$AAk?$AAe?$AAr?$AAn?$AAe?$AAl?$AA?2?$AAc?$AAr?$AAt?$AAs?$AA?2@ 000000014003bf80     libucrtd:new_mode.obj
 0002:00001fe8       ??_C@_1BM@PDPAKJNF@?$AA_?$AAs?$AAe?$AAt?$AA_?$AAn?$AAe?$AAw?$AA_?$AAm?$AAo?$AAd?$AAe@ 000000014003bfe8     libucrtd:new_mode.obj
 0002:00002030       ??_C@_0DC@NBHMIIKL@minkernel?2crts?2ucrt?2src?2appcrt?2@ 000000014003c030     libucrtd:onexit.obj
 0002:00002198       ??_C@_04HJMOFLDF@Free@     000000014003c198     libucrtd:debug_heap.obj
 0002:000021a0       ??_C@_06EFAGIKOH@Normal@   000000014003c1a0     libucrtd:debug_heap.obj
 0002:000021a8       ??_C@_03OGPFLFLO@CRT@      000000014003c1a8     libucrtd:debug_heap.obj
 0002:000021ac       ??_C@_06KMEJCCGM@Ignore@   000000014003c1ac     libucrtd:debug_heap.obj
 0002:000021b4       ??_C@_06PJIGMIJB@Client@   000000014003c1b4     libucrtd:debug_heap.obj
 0002:000021c0       ??_C@_1CE@LJFEPPMP@?$AA_?$AAC?$AAr?$AAt?$AAC?$AAh?$AAe?$AAc?$AAk?$AAM?$AAe?$AAm?$AAo?$AAr?$AAy@ 000000014003c1c0     libucrtd:debug_heap.obj
 0002:000021f0       ??_C@_1GG@OCLHPJPK@?$AAm?$AAi?$AAn?$AAk?$AAe?$AAr?$AAn?$AAe?$AAl?$AA?2?$AAc?$AAr?$AAt?$AAs?$AA?2@ 000000014003c1f0     libucrtd:debug_heap.obj
 0002:00002258       ??_C@_0DF@BBEGIFEK@Client?5hook?5allocation?5failure?5@ 000000014003c258     libucrtd:debug_heap.obj
 0002:00002290       ??_C@_0CB@CCLOLAHO@Client?5hook?5allocation?5failure?4@ 000000014003c290     libucrtd:debug_heap.obj
 0002:000022b4       ??_C@_02DKCKIIND@?$CFs@    000000014003c2b4     libucrtd:debug_heap.obj
 0002:000022b8       ??_C@_0DC@JEMAGEKG@Error?3?5memory?5allocation?3?5bad?5m@ 000000014003c2b8     libucrtd:debug_heap.obj
 0002:000022f0       ??_C@_0DI@KKJPDPGM@Client?5hook?5re?9allocation?5failu@ 000000014003c2f0     libucrtd:debug_heap.obj
 0002:00002328       ??_C@_0CE@DOFMDOL@Client?5hook?5re?9allocation?5failu@ 000000014003c328     libucrtd:debug_heap.obj
 0002:00002350       ??_C@_0FA@EFEIGJKG@Error?3?5memory?5allocation?3?5bad?5m@ 000000014003c350     libucrtd:debug_heap.obj
 0002:000023a0       ??_C@_0EM@LGFLMAGJ@The?5Block?5at?50x?$CFp?5was?5allocated@ 000000014003c3a0     libucrtd:debug_heap.obj
 0002:000023f0       ??_C@_1DM@DEDLGNML@?$AA_?$AAC?$AAr?$AAt?$AAI?$AAs?$AAV?$AAa?$AAl?$AAi?$AAd?$AAH?$AAe?$AAa?$AAp@ 000000014003c3f0     libucrtd:debug_heap.obj
 0002:00002430       ??_C@_1PC@MCGKJLN@?$AAo?$AAl?$AAd?$AA_?$AAh?$AAe?$AAa?$AAd?$AA?9?$AA?$DO?$AA_?$AAl?$AAi?$AAn?$AAe@ 000000014003c430     libucrtd:debug_heap.obj
 0002:00002528       ??_C@_0DA@HFBKENN@Error?3?5possible?5heap?5corruption@ 000000014003c528     libucrtd:debug_heap.obj
 0002:00002560       ??_C@_1JM@MCMEPJEP@?$AAr?$AAe?$AAa?$AAl?$AAl?$AAo?$AAc?$AAa?$AAt?$AAi?$AAo?$AAn?$AA_?$AAi?$AAs@ 000000014003c560     libucrtd:debug_heap.obj
 0002:00002600       ??_C@_1DM@LNOPKAIJ@?$AA_?$AA_?$AAa?$AAc?$AAr?$AAt?$AA_?$AAl?$AAa?$AAs?$AAt?$AA_?$AAb?$AAl?$AAo@ 000000014003c600     libucrtd:debug_heap.obj
 0002:00002640       ??_C@_1DO@HABCJBHO@?$AA_?$AA_?$AAa?$AAc?$AAr?$AAt?$AA_?$AAf?$AAi?$AAr?$AAs?$AAt?$AA_?$AAb?$AAl@ 000000014003c640     libucrtd:debug_heap.obj
 0002:00002680       ??_C@_1CC@CKEAHJPH@?$AAb?$AAl?$AAo?$AAc?$AAk?$AA?5?$AA?$CB?$AA?$DN?$AA?5?$AAn?$AAu?$AAl?$AAl?$AAp?$AAt@ 000000014003c680     libucrtd:debug_heap.obj
 0002:000026b0       ??_C@_0EJ@HEIBCIMJ@The?5Block?5at?50x?$CFp?5was?5allocated@ 000000014003c6b0     libucrtd:debug_heap.obj
 0002:00002700       ??_C@_0BL@KEIPLFAC@Client?5hook?5free?5failure?4?6@ 000000014003c700     libucrtd:debug_heap.obj
 0002:00002720       ??_C@_1FA@KDNEBILF@?$AAi?$AAs?$AA_?$AAb?$AAl?$AAo?$AAc?$AAk?$AA_?$AAt?$AAy?$AAp?$AAe?$AA_?$AAv@ 000000014003c720     libucrtd:debug_heap.obj
 0002:00002770       ??_C@_0KI@JGFOHMEB@HEAP?5CORRUPTION?5DETECTED?3?5befor@ 000000014003c770     libucrtd:debug_heap.obj
 0002:00002820       ??_C@_0IK@PJCGLBOB@HEAP?5CORRUPTION?5DETECTED?3?5befor@ 000000014003c820     libucrtd:debug_heap.obj
 0002:000028b0       ??_C@_0KE@MBMNHHHN@HEAP?5CORRUPTION?5DETECTED?3?5after@ 000000014003c8b0     libucrtd:debug_heap.obj
 0002:00002960       ??_C@_0IG@LEMBDCJK@HEAP?5CORRUPTION?5DETECTED?3?5after@ 000000014003c960     libucrtd:debug_heap.obj
 0002:000029f0       ??_C@_1OK@GFEOEJAF@?$AAh?$AAe?$AAa?$AAd?$AAe?$AAr?$AA?9?$AA?$DO?$AA_?$AAl?$AAi?$AAn?$AAe?$AA_?$AAn@ 000000014003c9f0     libucrtd:debug_heap.obj
 0002:00002ae0       ??_C@_1ME@GFALMLNA@?$AAh?$AAe?$AAa?$AAd?$AAe?$AAr?$AA?9?$AA?$DO?$AA_?$AAb?$AAl?$AAo?$AAc?$AAk?$AA_@ 000000014003cae0     libucrtd:debug_heap.obj
 0002:00002ba8       ??_C@_1DI@ILNOPEPI@?$AA_?$AA_?$AAa?$AAc?$AAr?$AAt?$AA_?$AAl?$AAa?$AAs?$AAt?$AA_?$AAb?$AAl?$AAo@ 000000014003cba8     libucrtd:debug_heap.obj
 0002:00002be0       ??_C@_1DK@KEHFGDIJ@?$AA_?$AA_?$AAa?$AAc?$AAr?$AAt?$AA_?$AAf?$AAi?$AAr?$AAs?$AAt?$AA_?$AAb?$AAl@ 000000014003cbe0     libucrtd:debug_heap.obj
 0002:00002c20       ??_C@_1BG@MBKOGDLD@?$AA_?$AAm?$AAs?$AAi?$AAz?$AAe?$AA_?$AAd?$AAb?$AAg@ 000000014003cc20     libucrtd:debug_heap.obj
 0002:00002c38       ??_C@_07OHKEFPKJ@DAMAGED@  000000014003cc38     libucrtd:debug_heap.obj
 0002:00002c40       ??_C@_0KA@IHNJJKPL@HEAP?5CORRUPTION?5DETECTED?3?5on?5to@ 000000014003cc40     libucrtd:debug_heap.obj
 0002:00002ce0       ??_C@_0IC@BBJIOOJH@HEAP?5CORRUPTION?5DETECTED?3?5on?5to@ 000000014003cce0     libucrtd:debug_heap.obj
 0002:00002d70       ??_C@_0EG@DGJMPDBH@?$CFhs?5located?5at?50x?$CFp?5is?5?$CFIu?5byte@ 000000014003cd70     libucrtd:debug_heap.obj
 0002:00002db8       ??_C@_0CI@JMLBEDHJ@?$CFhs?5located?5at?50x?$CFp?5is?5?$CFIu?5byte@ 000000014003cdb8     libucrtd:debug_heap.obj
 0002:00002de0       ??_C@_0EG@GPFHANHO@Cycle?5in?5block?5list?5detected?5wh@ 000000014003cde0     libucrtd:debug_heap.obj
 0002:00002e28       ??_C@_0BJ@ELMAOCAJ@Heap?5validation?5failed?4?6@ 000000014003ce28     libucrtd:debug_heap.obj
 0002:00002e50       ??_C@_1IE@BBIFDGEB@?$AAn?$AAe?$AAw?$AA_?$AAb?$AAi?$AAt?$AAs?$AA?5?$AA?$DN?$AA?$DN?$AA?5?$AA_?$AAC?$AAR@ 000000014003ce50     libucrtd:debug_heap.obj
 0002:00002ed8       ??_C@_1BO@GJFDNMNF@?$AA_?$AAC?$AAr?$AAt?$AAS?$AAe?$AAt?$AAD?$AAb?$AAg?$AAF?$AAl?$AAa?$AAg@ 000000014003ced8     libucrtd:debug_heap.obj
 0002:00002ef8       ??_C@_1CC@BBKMONGA@?$AAs?$AAt?$AAa?$AAt?$AAe?$AA?5?$AA?$CB?$AA?$DN?$AA?5?$AAn?$AAu?$AAl?$AAl?$AAp?$AAt@ 000000014003cef8     libucrtd:debug_heap.obj
 0002:00002f20       ??_C@_1CE@NJJKELF@?$AA_?$AAC?$AAr?$AAt?$AAM?$AAe?$AAm?$AAC?$AAh?$AAe?$AAc?$AAk?$AAp?$AAo?$AAi@ 000000014003cf20     libucrtd:debug_heap.obj
 0002:00002f48       ??_C@_0DP@LEFMFBOD@Bad?5memory?5block?5found?5at?50x?$CFp?4@ 000000014003cf48     libucrtd:debug_heap.obj
 0002:00002f88       ??_C@_0CB@EAAIGELO@Bad?5memory?5block?5found?5at?50x?$CFp?4@ 000000014003cf88     libucrtd:debug_heap.obj
 0002:00002fac       ??_C@_05MKKEDADM@?$CF?42X?5@ 000000014003cfac     libucrtd:debug_heap.obj
 0002:00002fb8       ??_C@_1CC@DIJAHFFJ@?$AAp?$AAr?$AAi?$AAn?$AAt?$AA_?$AAb?$AAl?$AAo?$AAc?$AAk?$AA_?$AAd?$AAa?$AAt@ 000000014003cfb8     libucrtd:debug_heap.obj
 0002:00002fe0       ??_C@_1BI@KALLJECN@?$AA?$CI?$AA?$CK?$AA_?$AAe?$AAr?$AAr?$AAn?$AAo?$AA?$CI?$AA?$CJ?$AA?$CJ@ 000000014003cfe0     libucrtd:debug_heap.obj
 0002:00002ff8       ??_C@_0BA@HJBKCELP@?5Data?3?5?$DM?$CFs?$DO?5?$CFs?6@ 000000014003cff8     libucrtd:debug_heap.obj
 0002:00003008       ??_C@_0BE@KCIPKCIA@Dumping?5objects?5?9?$DO?6@ 000000014003d008     libucrtd:debug_heap.obj
 0002:00003020       ??_C@_0BE@OIEFNFL@?$CDFile?5Error?$CD?$CI?$CFd?$CJ?5?3?5@ 000000014003d020     libucrtd:debug_heap.obj
 0002:00003038       ??_C@_0L@JMEFFCCJ@?$CFhs?$CI?$CFd?$CJ?5?3?5@ 000000014003d038     libucrtd:debug_heap.obj
 0002:00003044       ??_C@_06PKLGBFGM@?$HL?$CFld?$HN?5@ 000000014003d044     libucrtd:debug_heap.obj
 0002:00003050       ??_C@_0DD@GHNAAKBB@client?5block?5at?50x?$CFp?0?5subtype?5?$CF@ 000000014003d050     libucrtd:debug_heap.obj
 0002:00003088       ??_C@_0CH@FAGDDGPN@normal?5block?5at?50x?$CFp?0?5?$CFIu?5bytes@ 000000014003d088     libucrtd:debug_heap.obj
 0002:000030b0       ??_C@_0DA@MDLBNIBM@crt?5block?5at?50x?$CFp?0?5subtype?5?$CFx?0?5@ 000000014003d0b0     libucrtd:debug_heap.obj
 0002:000030e0       ??_C@_0BH@GFGKJDCO@Object?5dump?5complete?4?6@ 000000014003d0e0     libucrtd:debug_heap.obj
 0002:000030f8       ??_C@_0BI@JBFPOEJA@Detected?5memory?5leaks?$CB?6@ 000000014003d0f8     libucrtd:debug_heap.obj
 0002:00003110       ??_C@_1GI@BBAEIKL@?$AA?$CI?$AA?$CI?$AAd?$AAe?$AAs?$AAt?$AAi?$AAn?$AAa?$AAt?$AAi?$AAo?$AAn?$AA?$CJ?$AA?$CJ@ 000000014003d110     libucrtd:strcpy_s.obj
 0002:00003180       ??_C@_1HI@PBJPCEBC@?$AAm?$AAi?$AAn?$AAk?$AAe?$AAr?$AAn?$AAe?$AAl?$AA?2?$AAc?$AAr?$AAt?$AAs?$AA?2@ 000000014003d180     libucrtd:strcpy_s.obj
 0002:000031f8       ??_C@_1CA@FHIAGDFH@?$AAc?$AAo?$AAm?$AAm?$AAo?$AAn?$AA_?$AAt?$AAc?$AAs?$AAc?$AAp?$AAy?$AA_?$AAs@ 000000014003d1f8     libucrtd:strcpy_s.obj
 0002:00003218       ??_C@_1CK@EIOKGPJL@?$AA?$CI?$AA?$CI?$AA?$CI?$AAs?$AAo?$AAu?$AAr?$AAc?$AAe?$AA?$CJ?$AA?$CJ?$AA?$CJ?$AA?5?$AA?$CB?$AA?$DN@ 000000014003d218     libucrtd:strcpy_s.obj
 0002:00003248       ??_C@_1CI@HCPHDDLE@?$AAB?$AAu?$AAf?$AAf?$AAe?$AAr?$AA?5?$AAi?$AAs?$AA?5?$AAt?$AAo?$AAo?$AA?5?$AAs@ 000000014003d248     libucrtd:strcpy_s.obj
 0002:00003270       ??_C@_1DM@MADKGDLO@?$AA?$CI?$AAL?$AA?$CC?$AAB?$AAu?$AAf?$AAf?$AAe?$AAr?$AA?5?$AAi?$AAs?$AA?5?$AAt?$AAo@ 000000014003d270     libucrtd:strcpy_s.obj
 0002:000032b0       ??_C@_1DA@LLLMNMKI@?$AAa?$AAb?$AAo?$AAr?$AAt?$AA?$CI?$AA?$CJ?$AA?5?$AAh?$AAa?$AAs?$AA?5?$AAb?$AAe?$AAe@ 000000014003d2b0     libucrtd:abort.obj
 0002:000032f8       ??_C@_1BA@GLMCNLEM@?$AAW?$AAa?$AAr?$AAn?$AAi?$AAn?$AAg@ 000000014003d2f8     libucrtd:dbgrpt.obj
 0002:00003308       ??_C@_1M@ILHOPKA@?$AAE?$AAr?$AAr?$AAo?$AAr@ 000000014003d308     libucrtd:dbgrpt.obj
 0002:00003318       ??_C@_1CC@CGHMNGDG@?$AAA?$AAs?$AAs?$AAe?$AAr?$AAt?$AAi?$AAo?$AAn?$AA?5?$AAF?$AAa?$AAi?$AAl?$AAe@ 000000014003d318     libucrtd:dbgrpt.obj
 0002:00003350       ??_C@_1OG@PMPPFHAF@?$AA?6?$AA?6?$AAF?$AAo?$AAr?$AA?5?$AAi?$AAn?$AAf?$AAo?$AAr?$AAm?$AAa?$AAt?$AAi@ 000000014003d350     libucrtd:dbgrpt.obj
 0002:00003440       ??_C@_1MG@LJLILFFD@?$AAD?$AAe?$AAb?$AAu?$AAg?$AA?5?$AA?$CF?$AAl?$AAs?$AA?$CB?$AA?6?$AA?6?$AAP?$AAr?$AAo@ 000000014003d440     libucrtd:dbgrpt.obj
 0002:00003510       ??_C@_1MG@OODCADGL@?$AAD?$AAe?$AAb?$AAu?$AAg?$AA?5?$AA?$CF?$AAl?$AAs?$AA?$CB?$AA?6?$AA?6?$AAP?$AAr?$AAo@ 000000014003d510     libucrtd:dbgrpt.obj
 0002:000035d8       ??_C@_0BH@DNAGHKFM@?$DMprogram?5name?5unknown?$DO@ 000000014003d5d8     libucrtd:dbgrpt.obj
 0002:000035f0       ??_C@_1FO@GMJDLAJD@?$AAm?$AAi?$AAn?$AAk?$AAe?$AAr?$AAn?$AAe?$AAl?$AA?2?$AAc?$AAr?$AAt?$AAs?$AA?2@ 000000014003d5f0     libucrtd:dbgrpt.obj
 0002:00003650       ??_C@_1CM@EHMOGBJJ@?$AAc?$AAo?$AAm?$AAm?$AAo?$AAn?$AA_?$AAm?$AAe?$AAs?$AAs?$AAa?$AAg?$AAe?$AA_@ 000000014003d650     libucrtd:dbgrpt.obj
 0002:00003680       ??_C@_1PE@ECNALGCA@?$AAt?$AAr?$AAa?$AAi?$AAt?$AAs?$AA?3?$AA?3?$AAt?$AAc?$AAs?$AAc?$AAp?$AAy?$AA_@ 000000014003d680     libucrtd:dbgrpt.obj
 0002:00003774       ??_C@_11LOCGONAA@@         000000014003d774     libucrtd:dbgrpt.obj
 0002:00003778       ??_C@_1BK@PEDCIPMA@?$AAE?$AAx?$AAp?$AAr?$AAe?$AAs?$AAs?$AAi?$AAo?$AAn?$AA?3?$AA?5@ 000000014003d778     libucrtd:dbgrpt.obj
 0002:00003798       ??_C@_1BA@GLLGCPCK@?$AA?6?$AAL?$AAi?$AAn?$AAe?$AA?3?$AA?5@ 000000014003d798     libucrtd:dbgrpt.obj
 0002:000037a8       ??_C@_1BA@LNHECFIM@?$AA?6?$AAF?$AAi?$AAl?$AAe?$AA?3?$AA?5@ 000000014003d7a8     libucrtd:dbgrpt.obj
 0002:000037b8       ??_C@_1BE@CGCJKGHI@?$AA?6?$AAM?$AAo?$AAd?$AAu?$AAl?$AAe?$AA?3?$AA?5@ 000000014003d7b8     libucrtd:dbgrpt.obj
 0002:000037d0       ??_C@_1JM@IBOIJEOO@?$AAw?$AAc?$AAs?$AAc?$AAp?$AAy?$AA_?$AAs?$AA?$CI?$AAm?$AAe?$AAs?$AAs?$AAa?$AAg@ 000000014003d7d0     libucrtd:dbgrpt.obj
 0002:00003870       ??_C@_1FG@BBOLDHGF@?$AA_?$AAC?$AAr?$AAt?$AAD?$AAb?$AAg?$AAR?$AAe?$AAp?$AAo?$AAr?$AAt?$AA?3?$AA?5@ 000000014003d870     libucrtd:dbgrpt.obj
 0002:000038d0       ?format_validation_lookup_table_spectre@__crt_stdio_output@@3V?$spectre_mitigated_lookup_table@Ustate_transition_pair@__crt_stdio_output@@$0IA@@1@B 000000014003d8d0     libucrtd:output.obj
 0002:00003cd0       ??_C@_1GA@MOBAPGIO@?$AAm?$AAi?$AAn?$AAk?$AAe?$AAr?$AAn?$AAe?$AAl?$AA?2?$AAc?$AAr?$AAt?$AAs?$AA?2@ 000000014003dcd0     libucrtd:output.obj
 0002:00003d30       ??_C@_1CE@EAKLPBKK@?$AAf?$AAo?$AAr?$AAm?$AAa?$AAt?$AA?5?$AA?$CB?$AA?$DN?$AA?5?$AAn?$AAu?$AAl?$AAl?$AAp@ 000000014003dd30     libucrtd:output.obj
 0002:00003d58       ??_C@_1CA@PIMGHCEK@?$AAc?$AAo?$AAm?$AAm?$AAo?$AAn?$AA_?$AAv?$AAs?$AAp?$AAr?$AAi?$AAn?$AAt?$AAf@ 000000014003dd58     libucrtd:output.obj
 0002:00003d80       ??_C@_1EO@EGEEFEFM@?$AAb?$AAu?$AAf?$AAf?$AAe?$AAr?$AA_?$AAc?$AAo?$AAu?$AAn?$AAt?$AA?5?$AA?$DN?$AA?$DN@ 000000014003dd80     libucrtd:output.obj
 0002:00003dd0       ??_C@_1CE@JEILLNB@?$AAc?$AAo?$AAm?$AAm?$AAo?$AAn?$AA_?$AAv?$AAs?$AAp?$AAr?$AAi?$AAn?$AAt?$AAf@ 000000014003ddd0     libucrtd:output.obj
 0002:00003e00       ??_C@_1EM@OAFHAOLH@?$AAb?$AAu?$AAf?$AAf?$AAe?$AAr?$AA?5?$AA?$CB?$AA?$DN?$AA?5?$AAn?$AAu?$AAl?$AAl?$AAp@ 000000014003de00     libucrtd:output.obj
 0002:00003e50       ??_C@_1DA@HPBFKMEB@?$AA?$CI?$AA?$CC?$AAB?$AAu?$AAf?$AAf?$AAe?$AAr?$AA?5?$AAt?$AAo?$AAo?$AA?5?$AAs?$AAm@ 000000014003de50     libucrtd:output.obj
 0002:00003e80       ??_C@_1CG@LHFJHFBB@?$AAc?$AAo?$AAm?$AAm?$AAo?$AAn?$AA_?$AAv?$AAs?$AAn?$AAp?$AAr?$AAi?$AAn?$AAt@ 000000014003de80     libucrtd:output.obj
 0002:00003ea8       ??_C@_1CM@JOIJBMEM@?$AA_?$AAf?$AAo?$AAr?$AAm?$AAa?$AAt?$AA_?$AAi?$AAt?$AA?5?$AA?$CB?$AA?$DN?$AA?5?$AAn@ 000000014003dea8     libucrtd:output.obj
 0002:00003ee0       ??_C@_1HA@DMAAKIJP@?$AAm?$AAi?$AAn?$AAk?$AAe?$AAr?$AAn?$AAe?$AAl?$AA?2?$AAc?$AAr?$AAt?$AAs?$AA?2@ 000000014003dee0     libucrtd:output.obj
 0002:00003f50       ??_C@_1EE@DMAIGNBG@?$AA?$CI?$AA?$CC?$AAI?$AAn?$AAc?$AAo?$AAr?$AAr?$AAe?$AAc?$AAt?$AA?5?$AAf?$AAo?$AAr@ 000000014003df50     libucrtd:output.obj
 0002:00003fa0       ??_C@_1FG@OBJBDPAC@?$AA?$CI?$AA?$CC?$AAN?$AA?5?$AAl?$AAe?$AAn?$AAg?$AAt?$AAh?$AA?5?$AAm?$AAo?$AAd?$AAi@ 000000014003dfa0     libucrtd:output.obj
 0002:00004000       ??_C@_1EC@GJPNJDCN@?$AA_?$AAl?$AAe?$AAn?$AAg?$AAt?$AAh?$AA?5?$AA?$DN?$AA?$DN?$AA?5?$AAl?$AAe?$AAn?$AAg@ 000000014003e000     libucrtd:output.obj
 0002:00004048       ??_C@_1DG@CEJKFDMO@?$AAs?$AAt?$AAa?$AAt?$AAe?$AA_?$AAc?$AAa?$AAs?$AAe?$AA_?$AAn?$AAo?$AAr?$AAm@ 000000014003e048     libucrtd:output.obj
 0002:00004080       ??_C@_1CI@DDKMNCPP@?$AA_?$AAc?$AAo?$AAn?$AAt?$AAe?$AAx?$AAt?$AA?5?$AA?$CB?$AA?$DN?$AA?5?$AAn?$AAu?$AAl@ 000000014003e080     libucrtd:output.obj
 0002:000040b0       ??_C@_1HK@IIPGOADH@?$AA_?$AA_?$AAc?$AAr?$AAt?$AA_?$AAs?$AAt?$AAd?$AAi?$AAo?$AA_?$AAo?$AAu?$AAt@ 000000014003e0b0     libucrtd:output.obj
 0002:00004130       ??_C@_1HE@IACOMEJF@?$AA_?$AA_?$AAc?$AAr?$AAt?$AA_?$AAs?$AAt?$AAd?$AAi?$AAo?$AA_?$AAo?$AAu?$AAt@ 000000014003e130     libucrtd:output.obj
 0002:000041b0       ??_C@_1GC@BNMHNGKM@?$AA_?$AAs?$AAt?$AAa?$AAt?$AAe?$AA?5?$AA?$DN?$AA?$DN?$AA?5?$AAs?$AAt?$AAa?$AAt?$AAe@ 000000014003e1b0     libucrtd:output.obj
 0002:00004220       ??_C@_1BEC@NDOOKIMC@?$AA_?$AA_?$AAc?$AAr?$AAt?$AA_?$AAs?$AAt?$AAd?$AAi?$AAo?$AA_?$AAo?$AAu?$AAt@ 000000014003e220     libucrtd:output.obj
 0002:00004370       ??_C@_1EK@PNGFDECN@?$AA?$CI?$AA?$CC?$AA?8?$AAn?$AA?8?$AA?5?$AAf?$AAo?$AAr?$AAm?$AAa?$AAt?$AA?5?$AAs?$AAp@ 000000014003e370     libucrtd:output.obj
 0002:000043c0       ??_C@_1EO@GHKFGFKL@?$AA?$CI?$AA?$CC?$AAI?$AAn?$AAv?$AAa?$AAl?$AAi?$AAd?$AA?5?$AAi?$AAn?$AAt?$AAe?$AAg@ 000000014003e3c0     libucrtd:output.obj
 0002:00004410       ??_C@_1BDG@KOLEFKPF@?$AA_?$AA_?$AAc?$AAr?$AAt?$AA_?$AAs?$AAt?$AAd?$AAi?$AAo?$AA_?$AAo?$AAu?$AAt@ 000000014003e410     libucrtd:output.obj
 0002:00004548       ??_C@_1O@CEDCILHN@?$AA?$CI?$AAn?$AAu?$AAl?$AAl?$AA?$CJ@ 000000014003e548     libucrtd:output.obj
 0002:00004558       ??_C@_06OJHGLDPL@?$CInull?$CJ@ 000000014003e558     libucrtd:output.obj
 0002:00004560       ??_C@_1CK@LGDCECDH@?$AA_?$AAf?$AAo?$AAr?$AAm?$AAa?$AAt?$AA_?$AAc?$AAh?$AAa?$AAr?$AA?5?$AA?$CB?$AA?$DN@ 000000014003e560     libucrtd:output.obj
 0002:00004590       ??_C@_0DI@KIFBHMNO@minkernel?2crts?2ucrt?2inc?2corecrt@ 000000014003e590     libucrtd:output.obj
 0002:000045d0       ??_C@_1BMK@JGIBNIA@?$AA_?$AA_?$AAc?$AAr?$AAt?$AA_?$AAs?$AAt?$AAd?$AAi?$AAo?$AA_?$AAo?$AAu?$AAt@ 000000014003e5d0     libucrtd:output.obj
 0002:000047a0       ??_C@_1BLC@INKIGOCN@?$AA_?$AA_?$AAc?$AAr?$AAt?$AA_?$AAs?$AAt?$AAd?$AAi?$AAo?$AA_?$AAo?$AAu?$AAt@ 000000014003e7a0     libucrtd:output.obj
 0002:00004960       ??_C@_1BNK@KHNJGCCP@?$AA_?$AA_?$AAc?$AAr?$AAt?$AA_?$AAs?$AAt?$AAd?$AAi?$AAo?$AA_?$AAo?$AAu?$AAt@ 000000014003e960     libucrtd:output.obj
 0002:00004b40       ??_C@_1BNO@OHFFMOOJ@?$AA_?$AA_?$AAc?$AAr?$AAt?$AA_?$AAs?$AAt?$AAd?$AAi?$AAo?$AA_?$AAo?$AAu?$AAt@ 000000014003eb40     libucrtd:output.obj
 0002:00004d20       ??_C@_1BMC@FAGJFBLI@?$AA_?$AA_?$AAc?$AAr?$AAt?$AA_?$AAs?$AAt?$AAd?$AAi?$AAo?$AA_?$AAo?$AAu?$AAt@ 000000014003ed20     libucrtd:output.obj
 0002:00004ef0       ??_C@_1BMG@CGPDIFDK@?$AA_?$AA_?$AAc?$AAr?$AAt?$AA_?$AAs?$AAt?$AAd?$AAi?$AAo?$AA_?$AAo?$AAu?$AAt@ 000000014003eef0     libucrtd:output.obj
 0002:000050c0       ??_C@_1BNC@OHPDPPJK@?$AA_?$AA_?$AAc?$AAr?$AAt?$AA_?$AAs?$AAt?$AAd?$AAi?$AAo?$AA_?$AAo?$AAu?$AAt@ 000000014003f0c0     libucrtd:output.obj
 0002:000052a0       ??_C@_1BLK@FOLFMPJH@?$AA_?$AA_?$AAc?$AAr?$AAt?$AA_?$AAs?$AAt?$AAd?$AAi?$AAo?$AA_?$AAo?$AAu?$AAt@ 000000014003f2a0     libucrtd:output.obj
 0002:00005460       ??_C@_1BNO@NAODCKFA@?$AA_?$AA_?$AAc?$AAr?$AAt?$AA_?$AAs?$AAt?$AAd?$AAi?$AAo?$AA_?$AAo?$AAu?$AAt@ 000000014003f460     libucrtd:output.obj
 0002:00005640       ??_C@_1BMG@BBEFGBID@?$AA_?$AA_?$AAc?$AAr?$AAt?$AA_?$AAs?$AAt?$AAd?$AAi?$AAo?$AA_?$AAo?$AAu?$AAt@ 000000014003f640     libucrtd:output.obj
 0002:00005810       ??_C@_1BNC@JPKLPOHO@?$AA_?$AA_?$AAc?$AAr?$AAt?$AA_?$AAs?$AAt?$AAd?$AAi?$AAo?$AA_?$AAo?$AAu?$AAt@ 000000014003f810     libucrtd:output.obj
 0002:000059f0       ??_C@_1GE@DPGDJKLM@?$AAm?$AAi?$AAn?$AAk?$AAe?$AAr?$AAn?$AAe?$AAl?$AA?2?$AAc?$AAr?$AAt?$AAs?$AA?2@ 000000014003f9f0     libucrtd:atox.obj
 0002:00005a60       ??_C@_1EO@MLJCKPIB@?$AAb?$AAa?$AAs?$AAe?$AA?5?$AA?$DN?$AA?$DN?$AA?5?$AA0?$AA?5?$AA?$HM?$AA?$HM?$AA?5?$AA?$CI?$AA2@ 000000014003fa60     libucrtd:atox.obj
 0002:00005ab0       ??_C@_1DI@BANODKFL@?$AA_?$AA_?$AAc?$AAr?$AAt?$AA_?$AAs?$AAt?$AAr?$AAt?$AAo?$AAx?$AA?3?$AA?3?$AAp@ 000000014003fab0     libucrtd:atox.obj
 0002:00005ae8       ??_C@_1CM@GJENOOEJ@?$AAc?$AA?5?$AA?$DN?$AA?$DN?$AA?5?$AA?8?$AA?2?$AA0?$AA?8?$AA?5?$AA?$HM?$AA?$HM?$AA?5?$AA?$CK?$AA_@ 000000014003fae8     libucrtd:atox.obj
 0002:00005b20       ??_C@_1HA@CONLANFI@?$AA_?$AA_?$AAc?$AAr?$AAt?$AA_?$AAs?$AAt?$AAr?$AAt?$AAo?$AAx?$AA?3?$AA?3?$AAc@ 000000014003fb20     libucrtd:atox.obj
 0002:00005b90       ??_C@_1BM@PNEBBBDO@?$AA_?$AAp?$AA?5?$AA?$CB?$AA?$DN?$AA?5?$AAn?$AAu?$AAl?$AAl?$AAp?$AAt?$AAr@ 000000014003fb90     libucrtd:atox.obj
 0002:00005bb0       ??_C@_1HG@FCDBLOEG@?$AA_?$AA_?$AAc?$AAr?$AAt?$AA_?$AAs?$AAt?$AAr?$AAt?$AAo?$AAx?$AA?3?$AA?3?$AAc@ 000000014003fbb0     libucrtd:atox.obj
 0002:00005c30       ??_C@_1GK@MNHIDABG@?$AA_?$AA_?$AAc?$AAr?$AAt?$AA_?$AAs?$AAt?$AAr?$AAt?$AAo?$AAx?$AA?3?$AA?3?$AAc@ 000000014003fc30     libucrtd:atox.obj
 0002:00005ca0       ??_C@_1HA@MKKIHBHP@?$AA_?$AA_?$AAc?$AAr?$AAt?$AA_?$AAs?$AAt?$AAr?$AAt?$AAo?$AAx?$AA?3?$AA?3?$AAc@ 000000014003fca0     libucrtd:atox.obj
 0002:00005d10       ??_C@_0DM@DKIFNNOL@minkernel?2crts?2ucrt?2src?2appcrt?2@ 000000014003fd10     libucrtd:per_thread_data.obj
 0002:00005d50       ??_C@_1DE@BCNCAIK@?$AA?$CI?$AA?$CC?$AAI?$AAn?$AAv?$AAa?$AAl?$AAi?$AAd?$AA?5?$AAe?$AAr?$AAr?$AAo?$AAr@ 000000014003fd50     libucrtd:set_error_mode.obj
 0002:00005d90       ??_C@_1GO@EBFPMMIJ@?$AAm?$AAi?$AAn?$AAk?$AAe?$AAr?$AAn?$AAe?$AAl?$AA?2?$AAc?$AAr?$AAt?$AAs?$AA?2@ 000000014003fd90     libucrtd:set_error_mode.obj
 0002:00005e00       ??_C@_1CA@LFDHAMEM@?$AA_?$AAs?$AAe?$AAt?$AA_?$AAe?$AAr?$AAr?$AAo?$AAr?$AA_?$AAm?$AAo?$AAd?$AAe@ 000000014003fe00     libucrtd:set_error_mode.obj
 0002:00005e20       ??_C@_1CA@EOJJMFA@?$AAc?$AAo?$AAm?$AAm?$AAo?$AAn?$AA_?$AAt?$AAc?$AAs?$AAc?$AAa?$AAt?$AA_?$AAs@ 000000014003fe20     libucrtd:wcscat_s.obj
 0002:00005e40       ??_C@_1DM@FHLMIEG@?$AAS?$AAt?$AAr?$AAi?$AAn?$AAg?$AA?5?$AAi?$AAs?$AA?5?$AAn?$AAo?$AAt?$AA?5?$AAn@ 000000014003fe40     libucrtd:wcscat_s.obj
 0002:00005e80       ??_C@_1FA@MJKDNFFB@?$AA?$CI?$AAL?$AA?$CC?$AAS?$AAt?$AAr?$AAi?$AAn?$AAg?$AA?5?$AAi?$AAs?$AA?5?$AAn?$AAo@ 000000014003fe80     libucrtd:wcscat_s.obj
 0002:00005ed0       ??_C@_1CC@CHNFGJIC@?$AAc?$AAo?$AAm?$AAm?$AAo?$AAn?$AA_?$AAt?$AAc?$AAs?$AAn?$AAc?$AAp?$AAy?$AA_@ 000000014003fed0     libucrtd:wcsncpy_s.obj
 0002:00006068       ??_C@_1CE@JMFACANE@?$AAr?$AAe?$AAs?$AAu?$AAl?$AAt?$AA?5?$AA?$CB?$AA?$DN?$AA?5?$AAn?$AAu?$AAl?$AAl?$AAp@ 0000000140040068     libucrtd:errno.obj
 0002:000060b8       ??_C@_0DI@DNFGFCIK@minkernel?2crts?2ucrt?2inc?2corecrt@ 00000001400400b8     libucrtd:argv_wildcards.obj
 0002:000060f0       ??_C@_1HE@CEMHPOHH@?$AAm?$AAi?$AAn?$AAk?$AAe?$AAr?$AAn?$AAe?$AAl?$AA?2?$AAc?$AAr?$AAt?$AAs?$AA?2@ 00000001400400f0     libucrtd:argv_wildcards.obj
 0002:00006168       ??_C@_1DK@IBFFOJGB@?$AAc?$AAo?$AAm?$AAm?$AAo?$AAn?$AA_?$AAe?$AAx?$AAp?$AAa?$AAn?$AAd?$AA_?$AAa@ 0000000140040168     libucrtd:argv_wildcards.obj
 0002:000061b0       ??_C@_1MC@FLPKOFON@?$AAt?$AAr?$AAa?$AAi?$AAt?$AAs?$AA?3?$AA?3?$AAt?$AAc?$AAs?$AAn?$AAc?$AAp?$AAy@ 00000001400401b0     libucrtd:argv_wildcards.obj
 0002:00006278       ??_C@_0DK@FPFMIIJB@minkernel?2crts?2ucrt?2src?2appcrt?2@ 0000000140040278     libucrtd:argv_wildcards.obj
 0002:000062c0       ??_C@_1EA@KOCCBLAD@?$AAc?$AAo?$AAp?$AAy?$AA_?$AAa?$AAn?$AAd?$AA_?$AAa?$AAd?$AAd?$AA_?$AAa?$AAr@ 00000001400402c0     libucrtd:argv_wildcards.obj
 0002:00006300       ??_C@_1KM@GDJIGAGL@?$AAt?$AAr?$AAa?$AAi?$AAt?$AAs?$AA?3?$AA?3?$AAt?$AAc?$AAs?$AAn?$AAc?$AAp?$AAy@ 0000000140040300     libucrtd:argv_wildcards.obj
 0002:000063b0       ??_C@_1PI@FGFLAGCC@?$AAt?$AAr?$AAa?$AAi?$AAt?$AAs?$AA?3?$AA?3?$AAt?$AAc?$AAs?$AAn?$AAc?$AAp?$AAy@ 00000001400403b0     libucrtd:argv_wildcards.obj
 0002:000064f0       ??_C@_1M@HPNHIDJI@?$AAj?$AAa?$AA?9?$AAJ?$AAP@ 00000001400404f0     libucrtd:mbctype.obj
 0002:00006500       ??_C@_1M@BIBDDEMK@?$AAz?$AAh?$AA?9?$AAC?$AAN@ 0000000140040500     libucrtd:mbctype.obj
 0002:00006510       ??_C@_1M@JLOOOEGK@?$AAk?$AAo?$AA?9?$AAK?$AAR@ 0000000140040510     libucrtd:mbctype.obj
 0002:00006520       ??_C@_1M@CLNBBOPM@?$AAz?$AAh?$AA?9?$AAT?$AAW@ 0000000140040520     libucrtd:mbctype.obj
 0002:00006530       ??_C@_0DE@HGDKNBFD@minkernel?2crts?2ucrt?2src?2appcrt?2@ 0000000140040530     libucrtd:mbctype.obj
 0002:00006570       ??_C@_0ED@BLPEHJAI@minkernel?2crts?2ucrt?2src?2desktop@ 0000000140040570     libucrtd:get_environment_from_os.obj
 0002:000065c0       ??_C@_1FO@NMANMHOD@?$AAc?$AAa?$AAc?$AAh?$AAe?$AAd?$AA_?$AAs?$AAt?$AAa?$AAt?$AAe?$AA?5?$AA?$DN?$AA?$DN@ 00000001400405c0     libucrtd:win_policies.obj
 0002:00006620       ??_C@_1HC@GHLNKBJK@?$AAm?$AAi?$AAn?$AAk?$AAe?$AAr?$AAn?$AAe?$AAl?$AA?2?$AAc?$AAr?$AAt?$AAs?$AA?2@ 0000000140040620     libucrtd:win_policies.obj
 0002:00006698       ??_C@_0DB@JFFPGLDM@minkernel?2crts?2ucrt?2src?2appcrt?2@ 0000000140040698     libucrtd:osfinfo.obj
 0002:000066d0       ??_C@_1EM@BPODPNEJ@?$AAs?$AAt?$AAa?$AAt?$AAi?$AAc?$AA_?$AAc?$AAa?$AAs?$AAt?$AA?$DM?$AAu?$AAn?$AAs@ 00000001400406d0     libucrtd:osfinfo.obj
 0002:00006720       ??_C@_1GC@LDGKBAFM@?$AAm?$AAi?$AAn?$AAk?$AAe?$AAr?$AAn?$AAe?$AAl?$AA?2?$AAc?$AAr?$AAt?$AAs?$AA?2@ 0000000140040720     libucrtd:osfinfo.obj
 0002:00006788       ??_C@_1DM@JELNOMLN@?$AA_?$AA_?$AAa?$AAc?$AAr?$AAt?$AA_?$AAl?$AAo?$AAw?$AAi?$AAo?$AA_?$AAe?$AAn@ 0000000140040788     libucrtd:osfinfo.obj
 0002:000067d0       ??_C@_1FK@MGHFJLAL@?$AAf?$AAh?$AA?5?$AA?$DO?$AA?$DN?$AA?5?$AA0?$AA?5?$AA?$CG?$AA?$CG?$AA?5?$AA?$CI?$AAu?$AAn?$AAs@ 00000001400407d0     libucrtd:osfinfo.obj
 0002:00006830       ??_C@_1BO@EMBOBGKE@?$AA_?$AAg?$AAe?$AAt?$AA_?$AAo?$AAs?$AAf?$AAh?$AAa?$AAn?$AAd?$AAl?$AAe@ 0000000140040830     libucrtd:osfinfo.obj
 0002:00006850       ??_C@_1CI@ILOIOBLM@?$AA_?$AAo?$AAs?$AAf?$AAi?$AAl?$AAe?$AA?$CI?$AAf?$AAh?$AA?$CJ?$AA?5?$AA?$CG?$AA?5?$AAF@ 0000000140040850     libucrtd:osfinfo.obj
 0002:00006880       __lc_time_c                0000000140040880     libucrtd:nlsdata.obj
 0002:00006b40       ??_C@_03KOEHGMDN@Sun@      0000000140040b40     libucrtd:nlsdata.obj
 0002:00006b44       ??_C@_03PDAGKDH@Mon@       0000000140040b44     libucrtd:nlsdata.obj
 0002:00006b48       ??_C@_03NAGEINEP@Tue@      0000000140040b48     libucrtd:nlsdata.obj
 0002:00006b4c       ??_C@_03MHOMLAJA@Wed@      0000000140040b4c     libucrtd:nlsdata.obj
 0002:00006b50       ??_C@_03IOFIKPDN@Thu@      0000000140040b50     libucrtd:nlsdata.obj
 0002:00006b54       ??_C@_03IDIOELNC@Fri@      0000000140040b54     libucrtd:nlsdata.obj
 0002:00006b58       ??_C@_03FEFJNEK@Sat@       0000000140040b58     libucrtd:nlsdata.obj
 0002:00006b5c       ??_C@_06OOPIFAJ@Sunday@    0000000140040b5c     libucrtd:nlsdata.obj
 0002:00006b64       ??_C@_06JLEDEDGH@Monday@   0000000140040b64     libucrtd:nlsdata.obj
 0002:00006b70       ??_C@_07BAAGCFCM@Tuesday@  0000000140040b70     libucrtd:nlsdata.obj
 0002:00006b78       ??_C@_09DLIGFAKA@Wednesday@ 0000000140040b78     libucrtd:nlsdata.obj
 0002:00006b88       ??_C@_08HACCIKIA@Thursday@ 0000000140040b88     libucrtd:nlsdata.obj
 0002:00006b94       ??_C@_06JECMNKMI@Friday@   0000000140040b94     libucrtd:nlsdata.obj
 0002:00006ba0       ??_C@_08INBOOONO@Saturday@ 0000000140040ba0     libucrtd:nlsdata.obj
 0002:00006bac       ??_C@_03JIHJHPIE@Jan@      0000000140040bac     libucrtd:nlsdata.obj
 0002:00006bb0       ??_C@_03HJBDCHOM@Feb@      0000000140040bb0     libucrtd:nlsdata.obj
 0002:00006bb4       ??_C@_03ODNJBKGA@Mar@      0000000140040bb4     libucrtd:nlsdata.obj
 0002:00006bb8       ??_C@_03LEOLGMJP@Apr@      0000000140040bb8     libucrtd:nlsdata.obj
 0002:00006bbc       ??_C@_03CNMDKL@May@        0000000140040bbc     libucrtd:nlsdata.obj
 0002:00006bc0       ??_C@_03IDFGHECI@Jun@      0000000140040bc0     libucrtd:nlsdata.obj
 0002:00006bc4       ??_C@_03LBGABGKK@Jul@      0000000140040bc4     libucrtd:nlsdata.obj
 0002:00006bc8       ??_C@_03IFJFEIGA@Aug@      0000000140040bc8     libucrtd:nlsdata.obj
 0002:00006bcc       ??_C@_03GGCAPAJC@Sep@      0000000140040bcc     libucrtd:nlsdata.obj
 0002:00006bd0       ??_C@_03BMAOKBAD@Oct@      0000000140040bd0     libucrtd:nlsdata.obj
 0002:00006bd4       ??_C@_03JPJOFNIA@Nov@      0000000140040bd4     libucrtd:nlsdata.obj
 0002:00006bd8       ??_C@_03MKABNOCG@Dec@      0000000140040bd8     libucrtd:nlsdata.obj
 0002:00006be0       ??_C@_07CGJPFGJA@January@  0000000140040be0     libucrtd:nlsdata.obj
 0002:00006be8       ??_C@_08GNJGEPFN@February@ 0000000140040be8     libucrtd:nlsdata.obj
 0002:00006bf4       ??_C@_05HPCKOFNC@March@    0000000140040bf4     libucrtd:nlsdata.obj
 0002:00006bfc       ??_C@_05DMJDNLEJ@April@    0000000140040bfc     libucrtd:nlsdata.obj
 0002:00006c04       ??_C@_04CNLMGBGM@June@     0000000140040c04     libucrtd:nlsdata.obj
 0002:00006c0c       ??_C@_04MIEPOIFP@July@     0000000140040c0c     libucrtd:nlsdata.obj
 0002:00006c14       ??_C@_06LBBHFDDG@August@   0000000140040c14     libucrtd:nlsdata.obj
 0002:00006c20       ??_C@_09BHHEALKD@September@ 0000000140040c20     libucrtd:nlsdata.obj
 0002:00006c30       ??_C@_07JJNFCEND@October@  0000000140040c30     libucrtd:nlsdata.obj
 0002:00006c38       ??_C@_08HCHEGEOA@November@ 0000000140040c38     libucrtd:nlsdata.obj
 0002:00006c48       ??_C@_08EDHMEBNP@December@ 0000000140040c48     libucrtd:nlsdata.obj
 0002:00006c54       ??_C@_02DEDBPAFC@AM@       0000000140040c54     libucrtd:nlsdata.obj
 0002:00006c58       ??_C@_02CJNFDJBF@PM@       0000000140040c58     libucrtd:nlsdata.obj
 0002:00006c60       ??_C@_08BPBNCDIB@MM?1dd?1yy@ 0000000140040c60     libucrtd:nlsdata.obj
 0002:00006c70       ??_C@_0BE@CKGJFCPC@dddd?0?5MMMM?5dd?0?5yyyy@ 0000000140040c70     libucrtd:nlsdata.obj
 0002:00006c88       ??_C@_08JCCMCCIL@HH?3mm?3ss@ 0000000140040c88     libucrtd:nlsdata.obj
 0002:00006c98       ??_C@_17MBGCMIPB@?$AAS?$AAu?$AAn@ 0000000140040c98     libucrtd:nlsdata.obj
 0002:00006ca0       ??_C@_17KBOMKBF@?$AAM?$AAo?$AAn@ 0000000140040ca0     libucrtd:nlsdata.obj
 0002:00006ca8       ??_C@_17BMKGEGOJ@?$AAT?$AAu?$AAe@ 0000000140040ca8     libucrtd:nlsdata.obj
 0002:00006cb0       ??_C@_17CJEDCEPE@?$AAW?$AAe?$AAd@ 0000000140040cb0     libucrtd:nlsdata.obj
 0002:00006cb8       ??_C@_17PDPHAADD@?$AAT?$AAh?$AAu@ 0000000140040cb8     libucrtd:nlsdata.obj
 0002:00006cc0       ??_C@_17HFOLPPLP@?$AAF?$AAr?$AAi@ 0000000140040cc0     libucrtd:nlsdata.obj
 0002:00006cc8       ??_C@_17GGIBDPIH@?$AAS?$AAa?$AAt@ 0000000140040cc8     libucrtd:nlsdata.obj
 0002:00006cd0       ??_C@_1O@IHNHDHPB@?$AAS?$AAu?$AAn?$AAd?$AAa?$AAy@ 0000000140040cd0     libucrtd:nlsdata.obj
 0002:00006ce0       ??_C@_1O@MMNBFLIA@?$AAM?$AAo?$AAn?$AAd?$AAa?$AAy@ 0000000140040ce0     libucrtd:nlsdata.obj
 0002:00006cf0       ??_C@_1BA@ENFBFFEK@?$AAT?$AAu?$AAe?$AAs?$AAd?$AAa?$AAy@ 0000000140040cf0     libucrtd:nlsdata.obj
 0002:00006d00       ??_C@_1BE@EBOGMDOH@?$AAW?$AAe?$AAd?$AAn?$AAe?$AAs?$AAd?$AAa?$AAy@ 0000000140040d00     libucrtd:nlsdata.obj
 0002:00006d18       ??_C@_1BC@HHMNLIHE@?$AAT?$AAh?$AAu?$AAr?$AAs?$AAd?$AAa?$AAy@ 0000000140040d18     libucrtd:nlsdata.obj
 0002:00006d30       ??_C@_1O@PDICJHAG@?$AAF?$AAr?$AAi?$AAd?$AAa?$AAy@ 0000000140040d30     libucrtd:nlsdata.obj
 0002:00006d40       ??_C@_1BC@ENMNNPAJ@?$AAS?$AAa?$AAt?$AAu?$AAr?$AAd?$AAa?$AAy@ 0000000140040d40     libucrtd:nlsdata.obj
 0002:00006d58       ??_C@_17DKNBKCHM@?$AAJ?$AAa?$AAn@ 0000000140040d58     libucrtd:nlsdata.obj
 0002:00006d60       ??_C@_17LMDJEKJN@?$AAF?$AAe?$AAb@ 0000000140040d60     libucrtd:nlsdata.obj
 0002:00006d68       ??_C@_17CKNLEDEC@?$AAM?$AAa?$AAr@ 0000000140040d68     libucrtd:nlsdata.obj
 0002:00006d70       ??_C@_17LFPOIHDD@?$AAA?$AAp?$AAr@ 0000000140040d70     libucrtd:nlsdata.obj
 0002:00006d78       ??_C@_17PNNKMEED@?$AAM?$AAa?$AAy@ 0000000140040d78     libucrtd:nlsdata.obj
 0002:00006d80       ??_C@_17KCJGOCPB@?$AAJ?$AAu?$AAn@ 0000000140040d80     libucrtd:nlsdata.obj
 0002:00006d88       ??_C@_17IJPCKHK@?$AAJ?$AAu?$AAl@ 0000000140040d88     libucrtd:nlsdata.obj
 0002:00006d90       ??_C@_17ICPELBCN@?$AAA?$AAu?$AAg@ 0000000140040d90     libucrtd:nlsdata.obj
 0002:00006d98       ??_C@_17HCHCOKMG@?$AAS?$AAe?$AAp@ 0000000140040d98     libucrtd:nlsdata.obj
 0002:00006da0       ??_C@_17FNLKOI@?$AAO?$AAc?$AAt@ 0000000140040da0     libucrtd:nlsdata.obj
 0002:00006da8       ??_C@_17BBDMLCIG@?$AAN?$AAo?$AAv@ 0000000140040da8     libucrtd:nlsdata.obj
 0002:00006db0       ??_C@_17EGKACKIF@?$AAD?$AAe?$AAc@ 0000000140040db0     libucrtd:nlsdata.obj
 0002:00006db8       ??_C@_1BA@EFMEIEBA@?$AAJ?$AAa?$AAn?$AAu?$AAa?$AAr?$AAy@ 0000000140040db8     libucrtd:nlsdata.obj
 0002:00006dc8       ??_C@_1BC@JGDDFFAM@?$AAF?$AAe?$AAb?$AAr?$AAu?$AAa?$AAr?$AAy@ 0000000140040dc8     libucrtd:nlsdata.obj
 0002:00006de0       ??_C@_1M@IKEENEDF@?$AAM?$AAa?$AAr?$AAc?$AAh@ 0000000140040de0     libucrtd:nlsdata.obj
 0002:00006df0       ??_C@_1M@GJNLMHFD@?$AAA?$AAp?$AAr?$AAi?$AAl@ 0000000140040df0     libucrtd:nlsdata.obj
 0002:00006e00       ??_C@_19EPFLPGAP@?$AAJ?$AAu?$AAn?$AAe@ 0000000140040e00     libucrtd:nlsdata.obj
 0002:00006e10       ??_C@_19BIFMLPCD@?$AAJ?$AAu?$AAl?$AAy@ 0000000140040e10     libucrtd:nlsdata.obj
 0002:00006e20       ??_C@_1O@PAHLKOAC@?$AAA?$AAu?$AAg?$AAu?$AAs?$AAt@ 0000000140040e20     libucrtd:nlsdata.obj
 0002:00006e30       ??_C@_1BE@DKAAMBJL@?$AAS?$AAe?$AAp?$AAt?$AAe?$AAm?$AAb?$AAe?$AAr@ 0000000140040e30     libucrtd:nlsdata.obj
 0002:00006e48       ??_C@_1BA@EPANDLNG@?$AAO?$AAc?$AAt?$AAo?$AAb?$AAe?$AAr@ 0000000140040e48     libucrtd:nlsdata.obj
 0002:00006e58       ??_C@_1BC@BGLIFPF@?$AAN?$AAo?$AAv?$AAe?$AAm?$AAb?$AAe?$AAr@ 0000000140040e58     libucrtd:nlsdata.obj
 0002:00006e70       ??_C@_1BC@FEMKIFH@?$AAD?$AAe?$AAc?$AAe?$AAm?$AAb?$AAe?$AAr@ 0000000140040e70     libucrtd:nlsdata.obj
 0002:00006e84       ??_C@_15ODEHAHHF@?$AAA?$AAM@ 0000000140040e84     libucrtd:nlsdata.obj
 0002:00006e8c       ??_C@_15CLMNNGEL@?$AAP?$AAM@ 0000000140040e8c     libucrtd:nlsdata.obj
 0002:00006e98       ??_C@_1BC@IEBCMHCM@?$AAM?$AAM?$AA?1?$AAd?$AAd?$AA?1?$AAy?$AAy@ 0000000140040e98     libucrtd:nlsdata.obj
 0002:00006eb0       ??_C@_1CI@KNAKOEBC@?$AAd?$AAd?$AAd?$AAd?$AA?0?$AA?5?$AAM?$AAM?$AAM?$AAM?$AA?5?$AAd?$AAd?$AA?0?$AA?5@ 0000000140040eb0     libucrtd:nlsdata.obj
 0002:00006ed8       ??_C@_1BC@GDGBMEMK@?$AAH?$AAH?$AA?3?$AAm?$AAm?$AA?3?$AAs?$AAs@ 0000000140040ed8     libucrtd:nlsdata.obj
 0002:00006ef0       ??_C@_1M@BMHNFIME@?$AAe?$AAn?$AA?9?$AAU?$AAS@ 0000000140040ef0     libucrtd:nlsdata.obj
 0002:00006f00       __newctype                 0000000140040f00     libucrtd:ctype.obj
 0002:00007200       __newclmap                 0000000140041200     libucrtd:ctype.obj
 0002:00007380       __newcumap                 0000000140041380     libucrtd:ctype.obj
 0002:00007500       _wctype                    0000000140041500     libucrtd:ctype.obj
 0002:00007708       ??_C@_1CI@JELMFMDH@?$AAc?$AA?5?$AA?$DO?$AA?$DN?$AA?5?$AA?9?$AA1?$AA?5?$AA?$CG?$AA?$CG?$AA?5?$AAc?$AA?5?$AA?$DM?$AA?$DN@ 0000000140041708     libucrtd:isctype.obj
 0002:00007730       ??_C@_1GG@KPBGDFHJ@?$AAm?$AAi?$AAn?$AAk?$AAe?$AAr?$AAn?$AAe?$AAl?$AA?2?$AAc?$AAr?$AAt?$AAs?$AA?2@ 0000000140041730     libucrtd:isctype.obj
 0002:000077a0       ??_C@_1FE@KNPCCODH@?$AA?$CI?$AA?$CC?$AAC?$AAo?$AAr?$AAr?$AAu?$AAp?$AAt?$AAe?$AAd?$AA?5?$AAp?$AAo?$AAi@ 00000001400417a0     libucrtd:getstringtypea.obj
 0002:00007800       ??_C@_1EM@GPJLADAA@?$AAV?$AAC?$AAC?$AAR?$AAT?$AA?2?$AAv?$AAc?$AAr?$AAu?$AAn?$AAt?$AAi?$AAm?$AAe@ 0000000140041800     libucrtd:getstringtypea.obj
 0002:00007850       ??_C@_0DJ@HCPJODDK@minkernel?2crts?2ucrt?2src?2appcrt?2@ 0000000140041850     libucrtd:getstringtypea.obj
 0002:00007890       ??_C@_1BKC@NBNHJIDM@?$AA?$CI?$AAp?$AAt?$AAl?$AAo?$AAc?$AAi?$AA?9?$AA?$DO?$AAl?$AAc?$AA_?$AAc?$AAa?$AAt@ 0000000140041890     libucrtd:locale_refcounting.obj
 0002:00007a40       ??_C@_1HK@HCNMEOLA@?$AAm?$AAi?$AAn?$AAk?$AAe?$AAr?$AAn?$AAe?$AAl?$AA?2?$AAc?$AAr?$AAt?$AAs?$AA?2@ 0000000140041a40     libucrtd:locale_refcounting.obj
 0002:00007abc       ??_C@_15PJPFLCCM@?$AAu?$AAk@ 0000000140041abc     libucrtd:get_qualified_locale.obj
 0002:00007b70       ??_C@_1EA@JGEFHKEI@?$AAa?$AAp?$AAi?$AA?9?$AAm?$AAs?$AA?9?$AAw?$AAi?$AAn?$AA?9?$AAc?$AAo?$AAr?$AAe@ 0000000140041b70     libucrtd:winapi_thunks.obj
 0002:00007bb0       ??_C@_1DI@IJCEHOCB@?$AAa?$AAp?$AAi?$AA?9?$AAm?$AAs?$AA?9?$AAw?$AAi?$AAn?$AA?9?$AAc?$AAo?$AAr?$AAe@ 0000000140041bb0     libucrtd:winapi_thunks.obj
 0002:00007bf0       ??_C@_1EI@MPIAOHOC@?$AAa?$AAp?$AAi?$AA?9?$AAm?$AAs?$AA?9?$AAw?$AAi?$AAn?$AA?9?$AAc?$AAo?$AAr?$AAe@ 0000000140041bf0     libucrtd:winapi_thunks.obj
 0002:00007c40       ??_C@_1FK@FPHCKFIE@?$AAa?$AAp?$AAi?$AA?9?$AAm?$AAs?$AA?9?$AAw?$AAi?$AAn?$AA?9?$AAc?$AAo?$AAr?$AAe@ 0000000140041c40     libucrtd:winapi_thunks.obj
 0002:00007ca0       ??_C@_1EM@DILCGIIO@?$AAa?$AAp?$AAi?$AA?9?$AAm?$AAs?$AA?9?$AAw?$AAi?$AAn?$AA?9?$AAc?$AAo?$AAr?$AAe@ 0000000140041ca0     libucrtd:winapi_thunks.obj
 0002:00007cf0       ??_C@_1DM@LNCGDDPN@?$AAa?$AAp?$AAi?$AA?9?$AAm?$AAs?$AA?9?$AAw?$AAi?$AAn?$AA?9?$AAc?$AAo?$AAr?$AAe@ 0000000140041cf0     libucrtd:winapi_thunks.obj
 0002:00007d30       ??_C@_1DO@FPAPJEMD@?$AAa?$AAp?$AAi?$AA?9?$AAm?$AAs?$AA?9?$AAw?$AAi?$AAn?$AA?9?$AAc?$AAo?$AAr?$AAe@ 0000000140041d30     libucrtd:winapi_thunks.obj
 0002:00007d70       ??_C@_1DK@NDHNAHIO@?$AAa?$AAp?$AAi?$AA?9?$AAm?$AAs?$AA?9?$AAw?$AAi?$AAn?$AA?9?$AAc?$AAo?$AAr?$AAe@ 0000000140041d70     libucrtd:winapi_thunks.obj
 0002:00007db0       ??_C@_1DM@KGHDGBCM@?$AAa?$AAp?$AAi?$AA?9?$AAm?$AAs?$AA?9?$AAw?$AAi?$AAn?$AA?9?$AAc?$AAo?$AAr?$AAe@ 0000000140041db0     libucrtd:winapi_thunks.obj
 0002:00007df0       ??_C@_1EO@IJIOEFOH@?$AAa?$AAp?$AAi?$AA?9?$AAm?$AAs?$AA?9?$AAw?$AAi?$AAn?$AA?9?$AAr?$AAt?$AAc?$AAo@ 0000000140041df0     libucrtd:winapi_thunks.obj
 0002:00007e40       ??_C@_1FG@HHGEKANL@?$AAa?$AAp?$AAi?$AA?9?$AAm?$AAs?$AA?9?$AAw?$AAi?$AAn?$AA?9?$AAs?$AAe?$AAc?$AAu@ 0000000140041e40     libucrtd:winapi_thunks.obj
 0002:00007ea0       ??_C@_1EG@DBIOJECG@?$AAe?$AAx?$AAt?$AA?9?$AAm?$AAs?$AA?9?$AAw?$AAi?$AAn?$AA?9?$AAn?$AAt?$AAu?$AAs@ 0000000140041ea0     libucrtd:winapi_thunks.obj
 0002:00007ef0       ??_C@_1EO@FIHMJCLF@?$AAe?$AAx?$AAt?$AA?9?$AAm?$AAs?$AA?9?$AAw?$AAi?$AAn?$AA?9?$AAn?$AAt?$AAu?$AAs@ 0000000140041ef0     libucrtd:winapi_thunks.obj
 0002:00007f40       ??_C@_1BC@DNHGCMLG@?$AAa?$AAd?$AAv?$AAa?$AAp?$AAi?$AA3?$AA2@ 0000000140041f40     libucrtd:winapi_thunks.obj
 0002:00007f58       ??_C@_1M@OAIMIKLP@?$AAn?$AAt?$AAd?$AAl?$AAl@ 0000000140041f58     libucrtd:winapi_thunks.obj
 0002:00007f70       ??_C@_1EG@DPGNFKGC@?$AAa?$AAp?$AAi?$AA?9?$AAm?$AAs?$AA?9?$AAw?$AAi?$AAn?$AA?9?$AAa?$AAp?$AAp?$AAm@ 0000000140041f70     libucrtd:winapi_thunks.obj
 0002:00007fb8       ??_C@_1O@BCCLBEOE@?$AAu?$AAs?$AAe?$AAr?$AA3?$AA2@ 0000000140041fb8     libucrtd:winapi_thunks.obj
 0002:00007fd0       ??_C@_1HE@OILMBOBA@?$AAm?$AAi?$AAn?$AAk?$AAe?$AAr?$AAn?$AAe?$AAl?$AA?2?$AAc?$AAr?$AAt?$AAs?$AA?2@ 0000000140041fd0     libucrtd:winapi_thunks.obj
 0002:00008048       ??_C@_0BA@FHFNEAED@AreFileApisANSI@ 0000000140042048     libucrtd:winapi_thunks.obj
 0002:00008080       ??_C@_0BA@HNOPNCHB@GetActiveWindow@ 0000000140042080     libucrtd:winapi_thunks.obj
 0002:00008098       ??_C@_0BD@HHGDFDBJ@GetLastActivePopup@ 0000000140042098     libucrtd:winapi_thunks.obj
 0002:000080b8       ??_C@_0BI@DFKBFLJE@GetProcessWindowStation@ 00000001400420b8     libucrtd:winapi_thunks.obj
 0002:000080d8       ??_C@_0BK@DEKFELLI@GetUserObjectInformationW@ 00000001400420d8     libucrtd:winapi_thunks.obj
 0002:00008108       ??_C@_0O@KKBNKAPF@LCMapStringEx@ 0000000140042108     libucrtd:winapi_thunks.obj
 0002:00008120       ??_C@_0BB@HBDEELFH@LocaleNameToLCID@ 0000000140042120     libucrtd:winapi_thunks.obj
 0002:00008140       ??_C@_0M@CHKKJDAI@MessageBoxA@ 0000000140042140     libucrtd:winapi_thunks.obj
 0002:00008158       ??_C@_0M@DLDCCGNP@MessageBoxW@ 0000000140042158     libucrtd:winapi_thunks.obj
 0002:00008168       ??_C@_0CF@OJOFEIGO@AppPolicyGetProcessTerminationM@ 0000000140042168     libucrtd:winapi_thunks.obj
 0002:00008198       ??_C@_0CE@OICFMIKE@AppPolicyGetShowDeveloperDiagno@ 0000000140042198     libucrtd:winapi_thunks.obj
 0002:000081c0       ??_C@_0BL@ODDJNEDA@AppPolicyGetWindowingModel@ 00000001400421c0     libucrtd:winapi_thunks.obj
 0002:000081e0       ??_C@_1DA@NBILLKNO@?$AAl?$AAo?$AAc?$AAa?$AAl?$AA_?$AAa?$AAc?$AAt?$AAi?$AAo?$AAn?$AA?5?$AA?$CB?$AA?$DN@ 00000001400421e0     libucrtd:signal.obj
 0002:00008210       ??_C@_1FO@CCGDPEKE@?$AAm?$AAi?$AAn?$AAk?$AAe?$AAr?$AAn?$AAe?$AAl?$AA?2?$AAc?$AAr?$AAt?$AAs?$AA?2@ 0000000140042210     libucrtd:signal.obj
 0002:00008270       ??_C@_1M@DMJEIKHL@?$AAr?$AAa?$AAi?$AAs?$AAe@ 0000000140042270     libucrtd:signal.obj
 0002:00008280       ??_C@_1DO@MLNEDKGB@?$AA?$CI?$AA?$CC?$AAI?$AAn?$AAv?$AAa?$AAl?$AAi?$AAd?$AA?5?$AAs?$AAi?$AAg?$AAn?$AAa@ 0000000140042280     libucrtd:signal.obj
 0002:000082c0       ??_C@_1DC@OGOLMDEL@?$AAp?$AAu?$AAb?$AAl?$AAi?$AAc?$AA_?$AAs?$AAt?$AAr?$AAe?$AAa?$AAm?$AA?5?$AA?$CB@ 00000001400422c0     libucrtd:_sftbuf.obj
 0002:00008300       ??_C@_1FO@GEKPJHID@?$AAm?$AAi?$AAn?$AAk?$AAe?$AAr?$AAn?$AAe?$AAl?$AA?2?$AAc?$AAr?$AAt?$AAs?$AA?2@ 0000000140042300     libucrtd:expand.obj
 0002:00008360       ??_C@_1BK@JMCGJOCC@?$AA_?$AAe?$AAx?$AAp?$AAa?$AAn?$AAd?$AA_?$AAb?$AAa?$AAs?$AAe@ 0000000140042360     libucrtd:expand.obj
 0002:00008380       ??_C@_1GA@LFAOKOOP@?$AAm?$AAi?$AAn?$AAk?$AAe?$AAr?$AAn?$AAe?$AAl?$AA?2?$AAc?$AAr?$AAt?$AAs?$AA?2@ 0000000140042380     libucrtd:dbgrptt.obj
 0002:000083e0       ??_C@_1CA@KHJHLKA@?$AA_?$AAV?$AAC?$AAr?$AAt?$AAD?$AAb?$AAg?$AAR?$AAe?$AAp?$AAo?$AAr?$AAt?$AAA@ 00000001400423e0     libucrtd:dbgrptt.obj
 0002:00008400       ??_C@_1FA@JPHJBHEM@?$AA_?$AAi?$AAt?$AAo?$AAa?$AA_?$AAs?$AA?$CI?$AAn?$AAL?$AAi?$AAn?$AAe?$AA?0?$AA?5@ 0000000140042400     libucrtd:dbgrptt.obj
 0002:00008450       ??_C@_0CG@BNGLOCEO@Second?5Chance?5Assertion?5Failed?3@ 0000000140042450     libucrtd:dbgrptt.obj
 0002:00008478       ??_C@_0P@DFJNDPOP@?$DMfile?5unknown?$DO@ 0000000140042478     libucrtd:dbgrptt.obj
 0002:00008488       ??_C@_07BHGABMGB@?0?5Line?5@ 0000000140042488     libucrtd:dbgrptt.obj
 0002:00008490       ??_C@_01EEMJAFIK@?6@       0000000140042490     libucrtd:dbgrptt.obj
 0002:000084a0       ??_C@_1JI@GAALPGBM@?$AAs?$AAt?$AAr?$AAc?$AAp?$AAy?$AA_?$AAs?$AA?$CI?$AAs?$AAz?$AAU?$AAs?$AAe?$AAr@ 00000001400424a0     libucrtd:dbgrptt.obj
 0002:00008538       ??_C@_0CL@EACFGMNB@_CrtDbgReport?3?5String?5too?5long?5@ 0000000140042538     libucrtd:dbgrptt.obj
 0002:00008570       ??_C@_1KK@GIGAEDMO@?$AAs?$AAt?$AAr?$AAc?$AAp?$AAy?$AA_?$AAs?$AA?$CI?$AAs?$AAz?$AAL?$AAi?$AAn?$AAe@ 0000000140042570     libucrtd:dbgrptt.obj
 0002:00008620       ??_C@_0BD@CAENFOHP@Assertion?5failed?3?5@ 0000000140042620     libucrtd:dbgrptt.obj
 0002:00008638       ??_C@_0BC@LAIDCHCH@Assertion?5failed?$CB@ 0000000140042638     libucrtd:dbgrptt.obj
 0002:00008650       ??_C@_1FK@NPGBPOFO@?$AAs?$AAt?$AAr?$AAc?$AAa?$AAt?$AA_?$AAs?$AA?$CI?$AAs?$AAz?$AAL?$AAi?$AAn?$AAe@ 0000000140042650     libucrtd:dbgrptt.obj
 0002:000086b0       ??_C@_1EI@CACDLAFK@?$AAs?$AAt?$AAr?$AAc?$AAa?$AAt?$AA_?$AAs?$AA?$CI?$AAs?$AAz?$AAL?$AAi?$AAn?$AAe@ 00000001400426b0     libucrtd:dbgrptt.obj
 0002:000086f8       ??_C@_01LIIJDEN@?$AN@      00000001400426f8     libucrtd:dbgrptt.obj
 0002:00008700       ??_C@_1EI@LDHJEDO@?$AAs?$AAt?$AAr?$AAc?$AAa?$AAt?$AA_?$AAs?$AA?$CI?$AAs?$AAz?$AAL?$AAi?$AAn?$AAe@ 0000000140042700     libucrtd:dbgrptt.obj
 0002:00008748       ??_C@_0M@IPILFDFN@?$CFs?$CI?$CFd?$CJ?5?3?5?$CFs@ 0000000140042748     libucrtd:dbgrptt.obj
 0002:00008760       ??_C@_1JG@CPKCIOEE@?$AAs?$AAt?$AAr?$AAc?$AAp?$AAy?$AA_?$AAs?$AA?$CI?$AAs?$AAz?$AAO?$AAu?$AAt?$AAM@ 0000000140042760     libucrtd:dbgrptt.obj
 0002:00008800       ??_C@_1FI@IBIOIHEG@?$AAs?$AAt?$AAr?$AAc?$AAp?$AAy?$AA_?$AAs?$AA?$CI?$AAs?$AAz?$AAO?$AAu?$AAt?$AAM@ 0000000140042800     libucrtd:dbgrptt.obj
 0002:00008860       ??_C@_1IM@OOKIFKOH@?$AAe?$AA?5?$AA?$DN?$AA?5?$AAm?$AAb?$AAs?$AAt?$AAo?$AAw?$AAc?$AAs?$AA_?$AAs?$AA?$CI@ 0000000140042860     libucrtd:dbgrptt.obj
 0002:000088f0       ??_C@_1MC@IGEECMDB@?$AAw?$AAc?$AAs?$AAc?$AAp?$AAy?$AA_?$AAs?$AA?$CI?$AAs?$AAz?$AAO?$AAu?$AAt?$AAM@ 00000001400428f0     libucrtd:dbgrptt.obj
 0002:000089c0       ??_C@_1HO@PJOFIKFE@?$AA_?$AAC?$AAr?$AAt?$AAD?$AAb?$AAg?$AAR?$AAe?$AAp?$AAo?$AAr?$AAt?$AA?3?$AA?5@ 00000001400429c0     libucrtd:dbgrptt.obj
 0002:00008a40       ??_C@_1CA@HPALHDOD@?$AA_?$AAV?$AAC?$AAr?$AAt?$AAD?$AAb?$AAg?$AAR?$AAe?$AAp?$AAo?$AAr?$AAt?$AAW@ 0000000140042a40     libucrtd:dbgrptt.obj
 0002:00008a60       ??_C@_1FA@CNLLOMHI@?$AA_?$AAi?$AAt?$AAo?$AAw?$AA_?$AAs?$AA?$CI?$AAn?$AAL?$AAi?$AAn?$AAe?$AA?0?$AA?5@ 0000000140042a60     libucrtd:dbgrptt.obj
 0002:00008ab0       ??_C@_1EM@MJFLEDMB@?$AAS?$AAe?$AAc?$AAo?$AAn?$AAd?$AA?5?$AAC?$AAh?$AAa?$AAn?$AAc?$AAe?$AA?5?$AAA@ 0000000140042ab0     libucrtd:dbgrptt.obj
 0002:00008b00       ??_C@_1BO@OCHMLCAG@?$AA?$DM?$AAf?$AAi?$AAl?$AAe?$AA?5?$AAu?$AAn?$AAk?$AAn?$AAo?$AAw?$AAn?$AA?$DO@ 0000000140042b00     libucrtd:dbgrptt.obj
 0002:00008b20       ??_C@_1BA@ELMMDCFC@?$AA?0?$AA?5?$AAL?$AAi?$AAn?$AAe?$AA?5@ 0000000140042b20     libucrtd:dbgrptt.obj
 0002:00008b30       ??_C@_13LBAGMAIH@?$AA?6@   0000000140042b30     libucrtd:dbgrptt.obj
 0002:00008b40       ??_C@_1JK@KHFABAEO@?$AAw?$AAc?$AAs?$AAc?$AAp?$AAy?$AA_?$AAs?$AA?$CI?$AAs?$AAz?$AAU?$AAs?$AAe?$AAr@ 0000000140042b40     libucrtd:dbgrptt.obj
 0002:00008be0       ??_C@_1KO@DGAHENCH@?$AAw?$AAc?$AAs?$AAc?$AAp?$AAy?$AA_?$AAs?$AA?$CI?$AAs?$AAz?$AAL?$AAi?$AAn?$AAe@ 0000000140042be0     libucrtd:dbgrptt.obj
 0002:00008c90       ??_C@_1CG@FFFGGODN@?$AAA?$AAs?$AAs?$AAe?$AAr?$AAt?$AAi?$AAo?$AAn?$AA?5?$AAf?$AAa?$AAi?$AAl?$AAe@ 0000000140042c90     libucrtd:dbgrptt.obj
 0002:00008cb8       ??_C@_1CE@OJBNHDMO@?$AAA?$AAs?$AAs?$AAe?$AAr?$AAt?$AAi?$AAo?$AAn?$AA?5?$AAf?$AAa?$AAi?$AAl?$AAe@ 0000000140042cb8     libucrtd:dbgrptt.obj
 0002:00008ce0       ??_C@_1FK@HPADHBBD@?$AAw?$AAc?$AAs?$AAc?$AAa?$AAt?$AA_?$AAs?$AA?$CI?$AAs?$AAz?$AAL?$AAi?$AAn?$AAe@ 0000000140042ce0     libucrtd:dbgrptt.obj
 0002:00008d40       ??_C@_1EK@NMDFGHMF@?$AAw?$AAc?$AAs?$AAc?$AAa?$AAt?$AA_?$AAs?$AA?$CI?$AAs?$AAz?$AAL?$AAi?$AAn?$AAe@ 0000000140042d40     libucrtd:dbgrptt.obj
 0002:00008d8c       ??_C@_13CMNBPIDO@?$AA?$AN@ 0000000140042d8c     libucrtd:dbgrptt.obj
 0002:00008d90       ??_C@_1EK@PHCBEDKB@?$AAw?$AAc?$AAs?$AAc?$AAa?$AAt?$AA_?$AAs?$AA?$CI?$AAs?$AAz?$AAL?$AAi?$AAn?$AAe@ 0000000140042d90     libucrtd:dbgrptt.obj
 0002:00008de0       ??_C@_1BM@GIBPMLNL@?$AA?$CF?$AAl?$AAs?$AA?$CI?$AA?$CF?$AAd?$AA?$CJ?$AA?5?$AA?3?$AA?5?$AA?$CF?$AAl?$AAs@ 0000000140042de0     libucrtd:dbgrptt.obj
 0002:00008e00       ??_C@_1JI@EACPGHID@?$AAw?$AAc?$AAs?$AAc?$AAp?$AAy?$AA_?$AAs?$AA?$CI?$AAs?$AAz?$AAO?$AAu?$AAt?$AAM@ 0000000140042e00     libucrtd:dbgrptt.obj
 0002:00008ea0       ??_C@_1FI@DBAIJPJE@?$AAw?$AAc?$AAs?$AAc?$AAp?$AAy?$AA_?$AAs?$AA?$CI?$AAs?$AAz?$AAO?$AAu?$AAt?$AAM@ 0000000140042ea0     libucrtd:dbgrptt.obj
 0002:00008f00       ??_C@_1IK@LEBMBAP@?$AAw?$AAc?$AAs?$AAt?$AAo?$AAm?$AAb?$AAs?$AA_?$AAs?$AA?$CI?$AAn?$AAu?$AAl?$AAl@ 0000000140042f00     libucrtd:dbgrptt.obj
 0002:00008f90       ??_C@_1MA@LBAMNNOB@?$AAs?$AAt?$AAr?$AAc?$AAp?$AAy?$AA_?$AAs?$AA?$CI?$AAs?$AAz?$AAO?$AAu?$AAt?$AAM@ 0000000140042f90     libucrtd:dbgrptt.obj
 0002:00009050       ??_C@_0DP@GNPEPHJD@_CrtDbgReport?3?5String?5too?5long?5@ 0000000140043050     libucrtd:dbgrptt.obj
 0002:00009090       ??_C@_1IE@CPGKIAGP@?$AAw?$AAc?$AAs?$AAt?$AAo?$AAm?$AAb?$AAs?$AA_?$AAs?$AA?$CI?$AA?$CG?$AAr?$AAe?$AAt@ 0000000140043090     libucrtd:dbgrptt.obj
 0002:00009120       ??_C@_1BBC@DECGKMGJ@?$AA_?$AAl?$AAo?$AAc?$AA_?$AAu?$AAp?$AAd?$AAa?$AAt?$AAe?$AA?4?$AAG?$AAe?$AAt@ 0000000140043120     libucrtd:mbtowc.obj
 0002:00009240       ??_C@_1GE@CGIHMDEJ@?$AAm?$AAi?$AAn?$AAk?$AAe?$AAr?$AAn?$AAe?$AAl?$AA?2?$AAc?$AAr?$AAt?$AAs?$AA?2@ 0000000140043240     libucrtd:mbtowc.obj
 0002:000092b0       ??_C@_1HA@KNBGJAIN@?$AAU?$AAT?$AAF?$AA?9?$AA8?$AA?5?$AAi?$AAs?$AAn?$AA?8?$AAt?$AA?5?$AAs?$AAu?$AAp@ 00000001400432b0     libucrtd:mbtowc.obj
 0002:00009320       ??_C@_1BBA@EIIJPPL@?$AA_?$AAl?$AAo?$AAc?$AA_?$AAu?$AAp?$AAd?$AAa?$AAt?$AAe?$AA?4?$AAG?$AAe?$AAt@ 0000000140043320     libucrtd:mbtowc.obj
 0002:00009430       ??_C@_1IE@CDCHDACI@?$AA_?$AAl?$AAo?$AAc?$AA_?$AAu?$AAp?$AAd?$AAa?$AAt?$AAe?$AA?4?$AAG?$AAe?$AAt@ 0000000140043430     libucrtd:mbtowc.obj
 0002:000094b8       ??_C@_1DK@NBNOAGKB@?$AAd?$AAe?$AAs?$AAt?$AAi?$AAn?$AAa?$AAt?$AAi?$AAo?$AAn?$AA_?$AAc?$AAo?$AAu@ 00000001400434b8     libucrtd:wctomb.obj
 0002:00009500       ??_C@_1GE@FCCEPHFG@?$AAm?$AAi?$AAn?$AAk?$AAe?$AAr?$AAn?$AAe?$AAl?$AA?2?$AAc?$AAr?$AAt?$AAs?$AA?2@ 0000000140043500     libucrtd:wctomb.obj
 0002:00009568       ??_C@_1BI@IEADNOHF@?$AA_?$AAw?$AAc?$AAt?$AAo?$AAm?$AAb?$AA_?$AAs?$AA_?$AAl@ 0000000140043568     libucrtd:wctomb.obj
 0002:00009580       ??_C@_1CM@ENFEGCNE@?$AAd?$AAe?$AAs?$AAt?$AAi?$AAn?$AAa?$AAt?$AAi?$AAo?$AAn?$AA_?$AAc?$AAo?$AAu@ 0000000140043580     libucrtd:wctomb.obj
 0002:00009660       ??_C@_03OEIAHPBN@INF@      0000000140043660     libucrtd:cvt.obj
 0002:00009664       ??_C@_03OJHLLCGB@inf@      0000000140043664     libucrtd:cvt.obj
 0002:00009668       ??_C@_03LKNCIKJB@NAN@      0000000140043668     libucrtd:cvt.obj
 0002:0000966c       ??_C@_03LHCJEHON@nan@      000000014004366c     libucrtd:cvt.obj
 0002:00009670       ??_C@_09OFJJIMPC@NAN?$CISNAN?$CJ@ 0000000140043670     libucrtd:cvt.obj
 0002:00009680       ??_C@_09IPFBKMDL@nan?$CIsnan?$CJ@ 0000000140043680     libucrtd:cvt.obj
 0002:00009690       ??_C@_08IKHNHAJ@NAN?$CIIND?$CJ@ 0000000140043690     libucrtd:cvt.obj
 0002:000096a0       ??_C@_08OFCDMILK@nan?$CIind?$CJ@ 00000001400436a0     libucrtd:cvt.obj
 0002:000096b0       ??_C@_1FO@GKAKAPLI@?$AAm?$AAi?$AAn?$AAk?$AAe?$AAr?$AAn?$AAe?$AAl?$AA?2?$AAc?$AAr?$AAt?$AAs?$AA?2@ 00000001400436b0     libucrtd:cvt.obj
 0002:00009710       ??_C@_1DE@EHGIGIDK@?$AAf?$AAp?$AA_?$AAf?$AAo?$AAr?$AAm?$AAa?$AAt?$AA_?$AAn?$AAa?$AAn?$AA_?$AAo@ 0000000140043710     libucrtd:cvt.obj
 0002:00009750       ??_C@_1LI@PCMLJPCO@?$AAs?$AAt?$AAr?$AAc?$AAp?$AAy?$AA_?$AAs?$AA?$CI?$AA?5?$AAr?$AAe?$AAs?$AAu?$AAl@ 0000000140043750     libucrtd:cvt.obj
 0002:00009810       ??_C@_1KO@LJHOFBCD@?$AAr?$AAe?$AAs?$AAu?$AAl?$AAt?$AA_?$AAb?$AAu?$AAf?$AAf?$AAe?$AAr?$AA_?$AAc@ 0000000140043810     libucrtd:cvt.obj
 0002:000098c0       ??_C@_1CK@BOLHOMFO@?$AAf?$AAp?$AA_?$AAf?$AAo?$AAr?$AAm?$AAa?$AAt?$AA_?$AAe?$AA_?$AAi?$AAn?$AAt@ 00000001400438c0     libucrtd:cvt.obj
 0002:000098f0       ??_C@_1BBE@LHDOMEDC@?$AAs?$AAt?$AAr?$AAc?$AAp?$AAy?$AA_?$AAs?$AA?$CI?$AA?5?$AAp?$AA?0?$AA?5?$AAr?$AAe@ 00000001400438f0     libucrtd:cvt.obj
 0002:00009a04       ??_C@_05KLBDPFGC@e?$CL000@ 0000000140043a04     libucrtd:cvt.obj
 0002:00009a10       ??_C@_1IC@FILKPBAB@?$AAr?$AAe?$AAs?$AAu?$AAl?$AAt?$AA_?$AAb?$AAu?$AAf?$AAf?$AAe?$AAr?$AA_?$AAc@ 0000000140043a10     libucrtd:cvt.obj
 0002:00009a98       ??_C@_1BI@PNBDLNBB@?$AAf?$AAp?$AA_?$AAf?$AAo?$AAr?$AAm?$AAa?$AAt?$AA_?$AAa@ 0000000140043a98     libucrtd:cvt.obj
 0002:00009ab0       ??_C@_1DC@MGKAFPFD@?$AAr?$AAe?$AAs?$AAu?$AAl?$AAt?$AA_?$AAb?$AAu?$AAf?$AAf?$AAe?$AAr?$AA?5?$AA?$CB@ 0000000140043ab0     libucrtd:cvt.obj
 0002:00009ae8       ??_C@_1CC@LDAHJAKK@?$AA_?$AA_?$AAa?$AAc?$AAr?$AAt?$AA_?$AAf?$AAp?$AA_?$AAf?$AAo?$AAr?$AAm?$AAa@ 0000000140043ae8     libucrtd:cvt.obj
 0002:00009b10       ??_C@_1DA@NMLJJOCO@?$AAr?$AAe?$AAs?$AAu?$AAl?$AAt?$AA_?$AAb?$AAu?$AAf?$AAf?$AAe?$AAr?$AA_?$AAc@ 0000000140043b10     libucrtd:cvt.obj
 0002:00009b40       ??_C@_1DE@MNOPBCOK@?$AAs?$AAc?$AAr?$AAa?$AAt?$AAc?$AAh?$AA_?$AAb?$AAu?$AAf?$AAf?$AAe?$AAr?$AA?5@ 0000000140043b40     libucrtd:cvt.obj
 0002:00009b78       ??_C@_1DC@CKBKNFKH@?$AAs?$AAc?$AAr?$AAa?$AAt?$AAc?$AAh?$AA_?$AAb?$AAu?$AAf?$AAf?$AAe?$AAr?$AA_@ 0000000140043b78     libucrtd:cvt.obj
 0002:00009bb0       ??_C@_1EI@JAHBOGIM@?$AA?$CI?$AA?$CC?$AAU?$AAn?$AAs?$AAu?$AAp?$AAp?$AAo?$AAr?$AAt?$AAe?$AAd?$AA?5?$AAf@ 0000000140043bb0     libucrtd:cvt.obj
 0002:00009bf8       ??_C@_1BO@MHPFFFJJ@?$AAs?$AAt?$AAr?$AAe?$AAa?$AAm?$AA?4?$AAv?$AAa?$AAl?$AAi?$AAd?$AA?$CI?$AA?$CJ@ 0000000140043bf8     libucrtd:fileno.obj
 0002:00009c20       ??_C@_1GA@KCAHHNGP@?$AAm?$AAi?$AAn?$AAk?$AAe?$AAr?$AAn?$AAe?$AAl?$AA?2?$AAc?$AAr?$AAt?$AAs?$AA?2@ 0000000140043c20     libucrtd:fileno.obj
 0002:00009c80       ??_C@_1BA@JGHIEKKM@?$AA_?$AAf?$AAi?$AAl?$AAe?$AAn?$AAo@ 0000000140043c80     libucrtd:fileno.obj
 0002:00009c90       ??_C@_0CP@GDJHIDC@minkernel?2crts?2ucrt?2src?2appcrt?2@ 0000000140043c90     libucrtd:_file.obj
 0002:00009ce8       ??_C@_1DI@OOEEHOBJ@?$AAb?$AAa?$AAs?$AAe?$AA?5?$AA?$CB?$AA?$DN?$AA?5?$AAn?$AAu?$AAl?$AAl?$AAp?$AAt?$AAr@ 0000000140043ce8     libucrtd:qsort.obj
 0002:00009d20       ??_C@_1GA@KPPCKKGE@?$AAm?$AAi?$AAn?$AAk?$AAe?$AAr?$AAn?$AAe?$AAl?$AA?2?$AAc?$AAr?$AAt?$AAs?$AA?2@ 0000000140043d20     libucrtd:qsort.obj
 0002:00009d80       ??_C@_1M@INMHODIG@?$AAq?$AAs?$AAo?$AAr?$AAt@ 0000000140043d80     libucrtd:qsort.obj
 0002:00009d90       ??_C@_1BE@NJBEBBME@?$AAw?$AAi?$AAd?$AAt?$AAh?$AA?5?$AA?$DO?$AA?5?$AA0@ 0000000140043d90     libucrtd:qsort.obj
 0002:00009da8       ??_C@_1CA@LIDFOMIN@?$AAc?$AAo?$AAm?$AAp?$AA?5?$AA?$CB?$AA?$DN?$AA?5?$AAn?$AAu?$AAl?$AAl?$AAp?$AAt?$AAr@ 0000000140043da8     libucrtd:qsort.obj
 0002:00009dc8       ??_C@_1CE@BLLJFLOH@?$AAs?$AAt?$AAr?$AAi?$AAn?$AAg?$AA?5?$AA?$CB?$AA?$DN?$AA?5?$AAn?$AAu?$AAl?$AAl?$AAp@ 0000000140043dc8     libucrtd:mbsdec.obj
 0002:00009df0       ??_C@_1GO@DDOMFNGF@?$AAm?$AAi?$AAn?$AAk?$AAe?$AAr?$AAn?$AAe?$AAl?$AA?2?$AAc?$AAr?$AAt?$AAs?$AA?2@ 0000000140043df0     libucrtd:mbsdec.obj
 0002:00009e60       ??_C@_1BE@KLNCOLCD@?$AA_?$AAm?$AAb?$AAs?$AAd?$AAe?$AAc?$AA_?$AAl@ 0000000140043e60     libucrtd:mbsdec.obj
 0002:00009e78       ??_C@_1CG@CMGPGAOD@?$AAc?$AAu?$AAr?$AAr?$AAe?$AAn?$AAt?$AA?5?$AA?$CB?$AA?$DN?$AA?5?$AAn?$AAu?$AAl?$AAl@ 0000000140043e78     libucrtd:mbsdec.obj
 0002:00009ea0       ??_C@_0DH@IKPCBLP@minkernel?2crts?2ucrt?2src?2appcrt?2@ 0000000140043ea0     libucrtd:lcmapstringa.obj
 0002:00009ed8       ??_C@_1CE@MCCHPLBM@?$AAb?$AAu?$AAf?$AAf?$AAe?$AAr?$AA?5?$AA?$CB?$AA?$DN?$AA?5?$AAn?$AAu?$AAl?$AAl?$AAp@ 0000000140043ed8     libucrtd:xtoa.obj
 0002:00009f00       ??_C@_1GA@HBEFGMHK@?$AAm?$AAi?$AAn?$AAk?$AAe?$AAr?$AAn?$AAe?$AAl?$AA?2?$AAc?$AAr?$AAt?$AAs?$AA?2@ 0000000140043f00     libucrtd:xtoa.obj
 0002:00009f60       ??_C@_1BM@HMPEMLNP@?$AAc?$AAo?$AAm?$AAm?$AAo?$AAn?$AA_?$AAx?$AAt?$AAo?$AAx?$AA_?$AAs@ 0000000140043f60     libucrtd:xtoa.obj
 0002:00009f80       ??_C@_1CC@ONIJBMJF@?$AAb?$AAu?$AAf?$AAf?$AAe?$AAr?$AA_?$AAc?$AAo?$AAu?$AAn?$AAt?$AA?5?$AA?$DO?$AA?5@ 0000000140043f80     libucrtd:xtoa.obj
 0002:00009fb0       ??_C@_1HA@JFIOFNKD@?$AAb?$AAu?$AAf?$AAf?$AAe?$AAr?$AA_?$AAc?$AAo?$AAu?$AAn?$AAt?$AA?5?$AA?$DO?$AA?5@ 0000000140043fb0     libucrtd:xtoa.obj
 0002:0000a020       ??_C@_1DE@PCJGDBBD@?$AA2?$AA?5?$AA?$DM?$AA?$DN?$AA?5?$AAr?$AAa?$AAd?$AAi?$AAx?$AA?5?$AA?$CG?$AA?$CG?$AA?5?$AAr@ 0000000140044020     libucrtd:xtoa.obj
 0002:0000a058       ??_C@_1CM@LONILNIJ@?$AAl?$AAe?$AAn?$AAg?$AAt?$AAh?$AA?5?$AA?$DM?$AA?5?$AAb?$AAu?$AAf?$AAf?$AAe?$AAr@ 0000000140044058     libucrtd:xtoa.obj
 0002:0000a088       ??_C@_1BI@OLPLFKOE@?$AAc?$AAo?$AAm?$AAm?$AAo?$AAn?$AA_?$AAx?$AAt?$AAo?$AAx@ 0000000140044088     libucrtd:xtoa.obj
 0002:0000aee0       ??_C@_15EMKDOKLE@?$AAa?$AAr@ 0000000140044ee0     libucrtd:lcidtoname_downlevel.obj
 0002:0000aee8       ??_C@_15KNPADPLH@?$AAb?$AAg@ 0000000140044ee8     libucrtd:lcidtoname_downlevel.obj
 0002:0000aef0       ??_C@_15EDMHLDMO@?$AAc?$AAa@ 0000000140044ef0     libucrtd:lcidtoname_downlevel.obj
 0002:0000aef8       ??_C@_1O@BPEAJADD@?$AAz?$AAh?$AA?9?$AAC?$AAH?$AAS@ 0000000140044ef8     libucrtd:lcidtoname_downlevel.obj
 0002:0000af08       ??_C@_15LJNHCMNK@?$AAc?$AAs@ 0000000140044f08     libucrtd:lcidtoname_downlevel.obj
 0002:0000af10       ??_C@_15FOMCIDHG@?$AAd?$AAa@ 0000000140044f10     libucrtd:lcidtoname_downlevel.obj
 0002:0000af18       ??_C@_15NBKABECB@?$AAd?$AAe@ 0000000140044f18     libucrtd:lcidtoname_downlevel.obj
 0002:0000af20       ??_C@_15GHPEIIAO@?$AAe?$AAl@ 0000000140044f20     libucrtd:lcidtoname_downlevel.obj
 0002:0000af28       ??_C@_15MNPNEAIF@?$AAe?$AAn@ 0000000140044f28     libucrtd:lcidtoname_downlevel.obj
 0002:0000af30       ??_C@_15GPIOMPMH@?$AAe?$AAs@ 0000000140044f30     libucrtd:lcidtoname_downlevel.obj
 0002:0000af38       ??_C@_15NGLOAKJC@?$AAf?$AAi@ 0000000140044f38     libucrtd:lcidtoname_downlevel.obj
 0002:0000af40       ??_C@_15FBKGNKAM@?$AAf?$AAr@ 0000000140044f40     libucrtd:lcidtoname_downlevel.obj
 0002:0000af48       ??_C@_15KGGCNEFK@?$AAh?$AAe@ 0000000140044f48     libucrtd:lcidtoname_downlevel.obj
 0002:0000af50       ??_C@_15PGHLIDMF@?$AAh?$AAu@ 0000000140044f50     libucrtd:lcidtoname_downlevel.obj
 0002:0000af58       ??_C@_15BIEMAPLM@?$AAi?$AAs@ 0000000140044f58     libucrtd:lcidtoname_downlevel.obj
 0002:0000af60       ??_C@_15IFJLDHAF@?$AAi?$AAt@ 0000000140044f60     libucrtd:lcidtoname_downlevel.obj
 0002:0000af68       ??_C@_15GEMIOCAG@?$AAj?$AAa@ 0000000140044f68     libucrtd:lcidtoname_downlevel.obj
 0002:0000af70       ??_C@_15EPELEGJA@?$AAk?$AAo@ 0000000140044f70     libucrtd:lcidtoname_downlevel.obj
 0002:0000af78       ??_C@_15NDDHIMN@?$AAn?$AAl@ 0000000140044f78     libucrtd:lcidtoname_downlevel.obj
 0002:0000af80       ??_C@_15BPIGNHCD@?$AAn?$AAo@ 0000000140044f80     libucrtd:lcidtoname_downlevel.obj
 0002:0000af88       ??_C@_15DEOPBLCG@?$AAp?$AAl@ 0000000140044f88     libucrtd:lcidtoname_downlevel.obj
 0002:0000af90       ??_C@_15KBECGEFG@?$AAp?$AAt@ 0000000140044f90     libucrtd:lcidtoname_downlevel.obj
 0002:0000af98       ??_C@_15GLJCBFMD@?$AAr?$AAo@ 0000000140044f98     libucrtd:lcidtoname_downlevel.obj
 0002:0000afa0       ??_C@_15FEDGKCDI@?$AAr?$AAu@ 0000000140044fa0     libucrtd:lcidtoname_downlevel.obj
 0002:0000afa8       ??_C@_15GLKMLLHM@?$AAh?$AAr@ 0000000140044fa8     libucrtd:lcidtoname_downlevel.obj
 0002:0000afb0       ??_C@_15CPKMFBDB@?$AAs?$AAk@ 0000000140044fb0     libucrtd:lcidtoname_downlevel.obj
 0002:0000afb8       ??_C@_15BAAIOGMK@?$AAs?$AAq@ 0000000140044fb8     libucrtd:lcidtoname_downlevel.obj
 0002:0000afc0       ??_C@_15INNPNOHD@?$AAs?$AAv@ 0000000140044fc0     libucrtd:lcidtoname_downlevel.obj
 0002:0000afc8       ??_C@_15CABMMOGH@?$AAt?$AAh@ 0000000140044fc8     libucrtd:lcidtoname_downlevel.obj
 0002:0000afd0       ??_C@_15BPLIHJJM@?$AAt?$AAr@ 0000000140044fd0     libucrtd:lcidtoname_downlevel.obj
 0002:0000afd8       ??_C@_15NEOEKKDJ@?$AAu?$AAr@ 0000000140044fd8     libucrtd:lcidtoname_downlevel.obj
 0002:0000afe0       ??_C@_15NFICGAJK@?$AAi?$AAd@ 0000000140044fe0     libucrtd:lcidtoname_downlevel.obj
 0002:0000afe8       ??_C@_15HPJPHDM@?$AAb?$AAe@ 0000000140044fe8     libucrtd:lcidtoname_downlevel.obj
 0002:0000aff0       ??_C@_15LCHLGJII@?$AAs?$AAl@ 0000000140044ff0     libucrtd:lcidtoname_downlevel.obj
 0002:0000aff8       ??_C@_15PCFJPHHO@?$AAe?$AAt@ 0000000140044ff8     libucrtd:lcidtoname_downlevel.obj
 0002:0000b000       ??_C@_15HPFPGODN@?$AAl?$AAv@ 0000000140045000     libucrtd:lcidtoname_downlevel.obj
 0002:0000b008       ??_C@_15NFFGKGLG@?$AAl?$AAt@ 0000000140045008     libucrtd:lcidtoname_downlevel.obj
 0002:0000b010       ??_C@_15BDAKCCHN@?$AAf?$AAa@ 0000000140045010     libucrtd:lcidtoname_downlevel.obj
 0002:0000b018       ??_C@_15NFGIAIAJ@?$AAv?$AAi@ 0000000140045018     libucrtd:lcidtoname_downlevel.obj
 0002:0000b020       ??_C@_15LMKNDMHN@?$AAh?$AAy@ 0000000140045020     libucrtd:lcidtoname_downlevel.obj
 0002:0000b028       ??_C@_15IJBHMCFL@?$AAa?$AAz@ 0000000140045028     libucrtd:lcidtoname_downlevel.obj
 0002:0000b030       ??_C@_15EKOFJABL@?$AAe?$AAu@ 0000000140045030     libucrtd:lcidtoname_downlevel.obj
 0002:0000b038       ??_C@_15BGHADCNK@?$AAm?$AAk@ 0000000140045038     libucrtd:lcidtoname_downlevel.obj
 0002:0000b040       ??_C@_15JDNICKHM@?$AAa?$AAf@ 0000000140045040     libucrtd:lcidtoname_downlevel.obj
 0002:0000b048       ??_C@_15KPJEDBKD@?$AAk?$AAa@ 0000000140045048     libucrtd:lcidtoname_downlevel.obj
 0002:0000b050       ??_C@_15PDNFFFEO@?$AAf?$AAo@ 0000000140045050     libucrtd:lcidtoname_downlevel.obj
 0002:0000b058       ??_C@_15OMLEGLOC@?$AAh?$AAi@ 0000000140045058     libucrtd:lcidtoname_downlevel.obj
 0002:0000b060       ??_C@_15IDNNENKK@?$AAm?$AAs@ 0000000140045060     libucrtd:lcidtoname_downlevel.obj
 0002:0000b068       ??_C@_15MACJNBMH@?$AAk?$AAk@ 0000000140045068     libucrtd:lcidtoname_downlevel.obj
 0002:0000b070       ??_C@_15DKDJEOND@?$AAk?$AAy@ 0000000140045070     libucrtd:lcidtoname_downlevel.obj
 0002:0000b078       ??_C@_15DFGDLJBG@?$AAs?$AAw@ 0000000140045078     libucrtd:lcidtoname_downlevel.obj
 0002:0000b080       ??_C@_15BBFAICNG@?$AAu?$AAz@ 0000000140045080     libucrtd:lcidtoname_downlevel.obj
 0002:0000b088       ??_C@_15DKNDCGEA@?$AAt?$AAt@ 0000000140045088     libucrtd:lcidtoname_downlevel.obj
 0002:0000b090       ??_C@_15MGIFMDPL@?$AAp?$AAa@ 0000000140045090     libucrtd:lcidtoname_downlevel.obj
 0002:0000b098       ??_C@_15HCNDBBA@?$AAg?$AAu@ 0000000140045098     libucrtd:lcidtoname_downlevel.obj
 0002:0000b0a0       ??_C@_15FNBEIBON@?$AAt?$AAa@ 00000001400450a0     libucrtd:lcidtoname_downlevel.obj
 0002:0000b0a8       ??_C@_15NCHGBGLK@?$AAt?$AAe@ 00000001400450a8     libucrtd:lcidtoname_downlevel.obj
 0002:0000b0b0       ??_C@_15PHPHCBPF@?$AAk?$AAn@ 00000001400450b0     libucrtd:lcidtoname_downlevel.obj
 0002:0000b0b8       ??_C@_15DLGBCKMP@?$AAm?$AAr@ 00000001400450b8     libucrtd:lcidtoname_downlevel.obj
 0002:0000b0c0       ??_C@_15EABBLBFF@?$AAs?$AAa@ 00000001400450c0     libucrtd:lcidtoname_downlevel.obj
 0002:0000b0c8       ??_C@_15CBKOMCOI@?$AAm?$AAn@ 00000001400450c8     libucrtd:lcidtoname_downlevel.obj
 0002:0000b0d0       ??_C@_15CKDMCJAF@?$AAg?$AAl@ 00000001400450d0     libucrtd:lcidtoname_downlevel.obj
 0002:0000b0d8       ??_C@_17CNJFBPG@?$AAk?$AAo?$AAk@ 00000001400450d8     libucrtd:lcidtoname_downlevel.obj
 0002:0000b0e0       ??_C@_17FFBJICPL@?$AAs?$AAy?$AAr@ 00000001400450e0     libucrtd:lcidtoname_downlevel.obj
 0002:0000b0e8       ??_C@_17KPNDCPAF@?$AAd?$AAi?$AAv@ 00000001400450e8     libucrtd:lcidtoname_downlevel.obj
 0002:0000b0f0       ??_C@_1M@OKAHONE@?$AAa?$AAr?$AA?9?$AAS?$AAA@ 00000001400450f0     libucrtd:lcidtoname_downlevel.obj
 0002:0000b100       ??_C@_1M@FFFIGIGK@?$AAb?$AAg?$AA?9?$AAB?$AAG@ 0000000140045100     libucrtd:lcidtoname_downlevel.obj
 0002:0000b110       ??_C@_1M@BJNKEDC@?$AAc?$AAa?$AA?9?$AAE?$AAS@ 0000000140045110     libucrtd:lcidtoname_downlevel.obj
 0002:0000b120       ??_C@_1M@IJJHFJHA@?$AAc?$AAs?$AA?9?$AAC?$AAZ@ 0000000140045120     libucrtd:lcidtoname_downlevel.obj
 0002:0000b130       ??_C@_1M@CLPEOBGI@?$AAd?$AAa?$AA?9?$AAD?$AAK@ 0000000140045130     libucrtd:lcidtoname_downlevel.obj
 0002:0000b140       ??_C@_1M@MCMADGCB@?$AAd?$AAe?$AA?9?$AAD?$AAE@ 0000000140045140     libucrtd:lcidtoname_downlevel.obj
 0002:0000b150       ??_C@_1M@OOCKEMAM@?$AAe?$AAl?$AA?9?$AAG?$AAR@ 0000000140045150     libucrtd:lcidtoname_downlevel.obj
 0002:0000b160       ??_C@_1M@DDNJFGID@?$AAf?$AAi?$AA?9?$AAF?$AAI@ 0000000140045160     libucrtd:lcidtoname_downlevel.obj
 0002:0000b170       ??_C@_1M@GLIPPMAC@?$AAf?$AAr?$AA?9?$AAF?$AAR@ 0000000140045170     libucrtd:lcidtoname_downlevel.obj
 0002:0000b180       ??_C@_1M@GFMCHPE@?$AAh?$AAe?$AA?9?$AAI?$AAL@ 0000000140045180     libucrtd:lcidtoname_downlevel.obj
 0002:0000b190       ??_C@_1M@MHLPGNKM@?$AAh?$AAu?$AA?9?$AAH?$AAU@ 0000000140045190     libucrtd:lcidtoname_downlevel.obj
 0002:0000b1a0       ??_C@_1M@LPDDNNPN@?$AAi?$AAs?$AA?9?$AAI?$AAS@ 00000001400451a0     libucrtd:lcidtoname_downlevel.obj
 0002:0000b1b0       ??_C@_1M@MADIPODN@?$AAi?$AAt?$AA?9?$AAI?$AAT@ 00000001400451b0     libucrtd:lcidtoname_downlevel.obj
 0002:0000b1c0       ??_C@_1M@IHBJJGG@?$AAn?$AAl?$AA?9?$AAN?$AAL@ 00000001400451c0     libucrtd:lcidtoname_downlevel.obj
 0002:0000b1d0       ??_C@_1M@EANAGDL@?$AAn?$AAb?$AA?9?$AAN?$AAO@ 00000001400451d0     libucrtd:lcidtoname_downlevel.obj
 0002:0000b1e0       ??_C@_1M@NEIEMEGP@?$AAp?$AAl?$AA?9?$AAP?$AAL@ 00000001400451e0     libucrtd:lcidtoname_downlevel.obj
 0002:0000b1f0       ??_C@_1M@BOCFIGEP@?$AAp?$AAt?$AA?9?$AAB?$AAR@ 00000001400451f0     libucrtd:lcidtoname_downlevel.obj
 0002:0000b200       ??_C@_1M@IMPFOPBG@?$AAr?$AAo?$AA?9?$AAR?$AAO@ 0000000140045200     libucrtd:lcidtoname_downlevel.obj
 0002:0000b210       ??_C@_1M@IDNNEJMM@?$AAr?$AAu?$AA?9?$AAR?$AAU@ 0000000140045210     libucrtd:lcidtoname_downlevel.obj
 0002:0000b220       ??_C@_1M@LILEEOGM@?$AAh?$AAr?$AA?9?$AAH?$AAR@ 0000000140045220     libucrtd:lcidtoname_downlevel.obj
 0002:0000b230       ??_C@_1M@FKIFEHPB@?$AAs?$AAk?$AA?9?$AAS?$AAK@ 0000000140045230     libucrtd:lcidtoname_downlevel.obj
 0002:0000b240       ??_C@_1M@LJMAMNPJ@?$AAs?$AAq?$AA?9?$AAA?$AAL@ 0000000140045240     libucrtd:lcidtoname_downlevel.obj
 0002:0000b250       ??_C@_1M@GIAKDKJK@?$AAs?$AAv?$AA?9?$AAS?$AAE@ 0000000140045250     libucrtd:lcidtoname_downlevel.obj
 0002:0000b260       ??_C@_1M@MKJKIKCL@?$AAt?$AAh?$AA?9?$AAT?$AAH@ 0000000140045260     libucrtd:lcidtoname_downlevel.obj
 0002:0000b270       ??_C@_1M@MFLCCMPB@?$AAt?$AAr?$AA?9?$AAT?$AAR@ 0000000140045270     libucrtd:lcidtoname_downlevel.obj
 0002:0000b280       ??_C@_1M@OIJHDKJN@?$AAu?$AAr?$AA?9?$AAP?$AAK@ 0000000140045280     libucrtd:lcidtoname_downlevel.obj
 0002:0000b290       ??_C@_1M@LHIPCIEK@?$AAi?$AAd?$AA?9?$AAI?$AAD@ 0000000140045290     libucrtd:lcidtoname_downlevel.obj
 0002:0000b2a0       ??_C@_1M@MFMOBGI@?$AAu?$AAk?$AA?9?$AAU?$AAA@ 00000001400452a0     libucrtd:lcidtoname_downlevel.obj
 0002:0000b2b0       ??_C@_1M@OBGLJIPL@?$AAb?$AAe?$AA?9?$AAB?$AAY@ 00000001400452b0     libucrtd:lcidtoname_downlevel.obj
 0002:0000b2c0       ??_C@_1M@BCFAJEAD@?$AAs?$AAl?$AA?9?$AAS?$AAI@ 00000001400452c0     libucrtd:lcidtoname_downlevel.obj
 0002:0000b2d0       ??_C@_1M@FKFFEDDN@?$AAe?$AAt?$AA?9?$AAE?$AAE@ 00000001400452d0     libucrtd:lcidtoname_downlevel.obj
 0002:0000b2e0       ??_C@_1M@KGKKAACI@?$AAl?$AAv?$AA?9?$AAL?$AAV@ 00000001400452e0     libucrtd:lcidtoname_downlevel.obj
 0002:0000b2f0       ??_C@_1M@IFGBIJO@?$AAl?$AAt?$AA?9?$AAL?$AAT@ 00000001400452f0     libucrtd:lcidtoname_downlevel.obj
 0002:0000b300       ??_C@_1M@FGEAHEDM@?$AAf?$AAa?$AA?9?$AAI?$AAR@ 0000000140045300     libucrtd:lcidtoname_downlevel.obj
 0002:0000b310       ??_C@_1M@KBMAIBFN@?$AAv?$AAi?$AA?9?$AAV?$AAN@ 0000000140045310     libucrtd:lcidtoname_downlevel.obj
 0002:0000b320       ??_C@_1M@GPCBKDJK@?$AAh?$AAy?$AA?9?$AAA?$AAM@ 0000000140045320     libucrtd:lcidtoname_downlevel.obj
 0002:0000b330       ??_C@_1BG@BECMDDJB@?$AAa?$AAz?$AA?9?$AAA?$AAZ?$AA?9?$AAL?$AAa?$AAt?$AAn@ 0000000140045330     libucrtd:lcidtoname_downlevel.obj
 0002:0000b348       ??_C@_1M@MAOFCAEA@?$AAe?$AAu?$AA?9?$AAE?$AAS@ 0000000140045348     libucrtd:lcidtoname_downlevel.obj
 0002:0000b358       ??_C@_1M@IGHABKPI@?$AAm?$AAk?$AA?9?$AAM?$AAK@ 0000000140045358     libucrtd:lcidtoname_downlevel.obj
 0002:0000b368       ??_C@_1M@IAIGNEJG@?$AAt?$AAn?$AA?9?$AAZ?$AAA@ 0000000140045368     libucrtd:lcidtoname_downlevel.obj
 0002:0000b378       ??_C@_1M@IIJCOJFA@?$AAx?$AAh?$AA?9?$AAZ?$AAA@ 0000000140045378     libucrtd:lcidtoname_downlevel.obj
 0002:0000b388       ??_C@_1M@LGPJHNJH@?$AAz?$AAu?$AA?9?$AAZ?$AAA@ 0000000140045388     libucrtd:lcidtoname_downlevel.obj
 0002:0000b398       ??_C@_1M@HOKAOIO@?$AAa?$AAf?$AA?9?$AAZ?$AAA@ 0000000140045398     libucrtd:lcidtoname_downlevel.obj
 0002:0000b3a8       ??_C@_1M@DPCLHLIE@?$AAk?$AAa?$AA?9?$AAG?$AAE@ 00000001400453a8     libucrtd:lcidtoname_downlevel.obj
 0002:0000b3b8       ??_C@_1M@BLKMHJBI@?$AAf?$AAo?$AA?9?$AAF?$AAO@ 00000001400453b8     libucrtd:lcidtoname_downlevel.obj
 0002:0000b3c8       ??_C@_1M@LGGJAPPB@?$AAh?$AAi?$AA?9?$AAI?$AAN@ 00000001400453c8     libucrtd:lcidtoname_downlevel.obj
 0002:0000b3d8       ??_C@_1M@FIKPIHFE@?$AAm?$AAt?$AA?9?$AAM?$AAT@ 00000001400453d8     libucrtd:lcidtoname_downlevel.obj
 0002:0000b3e8       ??_C@_1M@HEGGPBFA@?$AAs?$AAe?$AA?9?$AAN?$AAO@ 00000001400453e8     libucrtd:lcidtoname_downlevel.obj
 0002:0000b3f8       ??_C@_1M@EIBJEEPA@?$AAm?$AAs?$AA?9?$AAM?$AAY@ 00000001400453f8     libucrtd:lcidtoname_downlevel.obj
 0002:0000b408       ??_C@_1M@FHLBGMPP@?$AAk?$AAk?$AA?9?$AAK?$AAZ@ 0000000140045408     libucrtd:lcidtoname_downlevel.obj
 0002:0000b418       ??_C@_1M@NGJJLCGI@?$AAk?$AAy?$AA?9?$AAK?$AAG@ 0000000140045418     libucrtd:lcidtoname_downlevel.obj
 0002:0000b428       ??_C@_1M@GIENNBFC@?$AAs?$AAw?$AA?9?$AAK?$AAE@ 0000000140045428     libucrtd:lcidtoname_downlevel.obj
 0002:0000b438       ??_C@_1BG@NDGMJIMJ@?$AAu?$AAz?$AA?9?$AAU?$AAZ?$AA?9?$AAL?$AAa?$AAt?$AAn@ 0000000140045438     libucrtd:lcidtoname_downlevel.obj
 0002:0000b450       ??_C@_1M@IDCCIHBC@?$AAt?$AAt?$AA?9?$AAR?$AAU@ 0000000140045450     libucrtd:lcidtoname_downlevel.obj
 0002:0000b460       ??_C@_1M@LOICPMOJ@?$AAb?$AAn?$AA?9?$AAI?$AAN@ 0000000140045460     libucrtd:lcidtoname_downlevel.obj
 0002:0000b470       ??_C@_1M@KPKKNEAH@?$AAp?$AAa?$AA?9?$AAI?$AAN@ 0000000140045470     libucrtd:lcidtoname_downlevel.obj
 0002:0000b480       ??_C@_1M@PJGPPBOG@?$AAg?$AAu?$AA?9?$AAI?$AAN@ 0000000140045480     libucrtd:lcidtoname_downlevel.obj
 0002:0000b490       ??_C@_1M@KMKMOPHI@?$AAt?$AAa?$AA?9?$AAI?$AAN@ 0000000140045490     libucrtd:lcidtoname_downlevel.obj
 0002:0000b4a0       ??_C@_1M@KFEHEPAC@?$AAt?$AAe?$AA?9?$AAI?$AAN@ 00000001400454a0     libucrtd:lcidtoname_downlevel.obj
 0002:0000b4b0       ??_C@_1M@CDCLMGHI@?$AAk?$AAn?$AA?9?$AAI?$AAN@ 00000001400454b0     libucrtd:lcidtoname_downlevel.obj
 0002:0000b4c0       ??_C@_1M@MIODLDKF@?$AAm?$AAl?$AA?9?$AAI?$AAN@ 00000001400454c0     libucrtd:lcidtoname_downlevel.obj
 0002:0000b4d0       ??_C@_1M@PBIEACPO@?$AAm?$AAr?$AA?9?$AAI?$AAN@ 00000001400454d0     libucrtd:lcidtoname_downlevel.obj
 0002:0000b4e0       ??_C@_1M@NIDEAGPH@?$AAs?$AAa?$AA?9?$AAI?$AAN@ 00000001400454e0     libucrtd:lcidtoname_downlevel.obj
 0002:0000b4f0       ??_C@_1M@FHIHCBIO@?$AAm?$AAn?$AA?9?$AAM?$AAN@ 00000001400454f0     libucrtd:lcidtoname_downlevel.obj
 0002:0000b500       ??_C@_1M@JAIJPENP@?$AAc?$AAy?$AA?9?$AAG?$AAB@ 0000000140045500     libucrtd:lcidtoname_downlevel.obj
 0002:0000b510       ??_C@_1M@PHGFBEPN@?$AAg?$AAl?$AA?9?$AAE?$AAS@ 0000000140045510     libucrtd:lcidtoname_downlevel.obj
 0002:0000b520       ??_C@_1O@KPIPDNCP@?$AAk?$AAo?$AAk?$AA?9?$AAI?$AAN@ 0000000140045520     libucrtd:lcidtoname_downlevel.obj
 0002:0000b530       ??_C@_1O@KNHJLDJA@?$AAs?$AAy?$AAr?$AA?9?$AAS?$AAY@ 0000000140045530     libucrtd:lcidtoname_downlevel.obj
 0002:0000b540       ??_C@_1O@MKEKBLAH@?$AAd?$AAi?$AAv?$AA?9?$AAM?$AAV@ 0000000140045540     libucrtd:lcidtoname_downlevel.obj
 0002:0000b550       ??_C@_1O@OHDCKDDF@?$AAq?$AAu?$AAz?$AA?9?$AAB?$AAO@ 0000000140045550     libucrtd:lcidtoname_downlevel.obj
 0002:0000b560       ??_C@_1M@LEPJNLFD@?$AAn?$AAs?$AA?9?$AAZ?$AAA@ 0000000140045560     libucrtd:lcidtoname_downlevel.obj
 0002:0000b570       ??_C@_1M@OMLEIIJB@?$AAm?$AAi?$AA?9?$AAN?$AAZ@ 0000000140045570     libucrtd:lcidtoname_downlevel.obj
 0002:0000b580       ??_C@_1M@PMPEAILG@?$AAa?$AAr?$AA?9?$AAI?$AAQ@ 0000000140045580     libucrtd:lcidtoname_downlevel.obj
 0002:0000b590       ??_C@_1M@CNKPNOEE@?$AAd?$AAe?$AA?9?$AAC?$AAH@ 0000000140045590     libucrtd:lcidtoname_downlevel.obj
 0002:0000b5a0       ??_C@_1M@LKMGMLKO@?$AAe?$AAn?$AA?9?$AAG?$AAB@ 00000001400455a0     libucrtd:lcidtoname_downlevel.obj
 0002:0000b5b0       ??_C@_1M@PGKJFFGL@?$AAe?$AAs?$AA?9?$AAM?$AAX@ 00000001400455b0     libucrtd:lcidtoname_downlevel.obj
 0002:0000b5c0       ??_C@_1M@DNNANBDC@?$AAf?$AAr?$AA?9?$AAB?$AAE@ 00000001400455c0     libucrtd:lcidtoname_downlevel.obj
 0002:0000b5d0       ??_C@_1M@HLGMDFHM@?$AAi?$AAt?$AA?9?$AAC?$AAH@ 00000001400455d0     libucrtd:lcidtoname_downlevel.obj
 0002:0000b5e0       ??_C@_1M@CLLBGJH@?$AAn?$AAl?$AA?9?$AAB?$AAE@ 00000001400455e0     libucrtd:lcidtoname_downlevel.obj
 0002:0000b5f0       ??_C@_1M@BODBOGLF@?$AAn?$AAn?$AA?9?$AAN?$AAO@ 00000001400455f0     libucrtd:lcidtoname_downlevel.obj
 0002:0000b600       ??_C@_1M@HFFAHKAD@?$AAp?$AAt?$AA?9?$AAP?$AAT@ 0000000140045600     libucrtd:lcidtoname_downlevel.obj
 0002:0000b610       ??_C@_1BG@LNOAKHIE@?$AAs?$AAr?$AA?9?$AAS?$AAP?$AA?9?$AAL?$AAa?$AAt?$AAn@ 0000000140045610     libucrtd:lcidtoname_downlevel.obj
 0002:0000b628       ??_C@_1M@HBMHBGAK@?$AAs?$AAv?$AA?9?$AAF?$AAI@ 0000000140045628     libucrtd:lcidtoname_downlevel.obj
 0002:0000b638       ??_C@_1BG@DGCJGJBE@?$AAa?$AAz?$AA?9?$AAA?$AAZ?$AA?9?$AAC?$AAy?$AAr?$AAl@ 0000000140045638     libucrtd:lcidtoname_downlevel.obj
 0002:0000b650       ??_C@_1M@KEJDAAHB@?$AAs?$AAe?$AA?9?$AAS?$AAE@ 0000000140045650     libucrtd:lcidtoname_downlevel.obj
 0002:0000b660       ??_C@_1M@HEIBJJAD@?$AAm?$AAs?$AA?9?$AAB?$AAN@ 0000000140045660     libucrtd:lcidtoname_downlevel.obj
 0002:0000b670       ??_C@_1BG@PBGJMCEM@?$AAu?$AAz?$AA?9?$AAU?$AAZ?$AA?9?$AAC?$AAy?$AAr?$AAl@ 0000000140045670     libucrtd:lcidtoname_downlevel.obj
 0002:0000b688       ??_C@_1O@LAOBCMDF@?$AAq?$AAu?$AAz?$AA?9?$AAE?$AAC@ 0000000140045688     libucrtd:lcidtoname_downlevel.obj
 0002:0000b698       ??_C@_1M@POEEMAIO@?$AAa?$AAr?$AA?9?$AAE?$AAG@ 0000000140045698     libucrtd:lcidtoname_downlevel.obj
 0002:0000b6a8       ??_C@_1M@EFAKDEDL@?$AAz?$AAh?$AA?9?$AAH?$AAK@ 00000001400456a8     libucrtd:lcidtoname_downlevel.obj
 0002:0000b6b8       ??_C@_1M@HKKIJHGI@?$AAd?$AAe?$AA?9?$AAA?$AAT@ 00000001400456b8     libucrtd:lcidtoname_downlevel.obj
 0002:0000b6c8       ??_C@_1M@KBFBEHJF@?$AAe?$AAn?$AA?9?$AAA?$AAU@ 00000001400456c8     libucrtd:lcidtoname_downlevel.obj
 0002:0000b6d8       ??_C@_1M@MNPLFAAH@?$AAe?$AAs?$AA?9?$AAE?$AAS@ 00000001400456d8     libucrtd:lcidtoname_downlevel.obj
 0002:0000b6e8       ??_C@_1M@HJOOJFMA@?$AAf?$AAr?$AA?9?$AAC?$AAA@ 00000001400456e8     libucrtd:lcidtoname_downlevel.obj
 0002:0000b6f8       ??_C@_1BG@JPOFPNAB@?$AAs?$AAr?$AA?9?$AAS?$AAP?$AA?9?$AAC?$AAy?$AAr?$AAl@ 00000001400456f8     libucrtd:lcidtoname_downlevel.obj
 0002:0000b710       ??_C@_1M@LNFOCMOB@?$AAs?$AAe?$AA?9?$AAF?$AAI@ 0000000140045710     libucrtd:lcidtoname_downlevel.obj
 0002:0000b720       ??_C@_1O@MGJBOAMB@?$AAq?$AAu?$AAz?$AA?9?$AAP?$AAE@ 0000000140045720     libucrtd:lcidtoname_downlevel.obj
 0002:0000b730       ??_C@_1M@GJINLBOK@?$AAa?$AAr?$AA?9?$AAL?$AAY@ 0000000140045730     libucrtd:lcidtoname_downlevel.obj
 0002:0000b740       ??_C@_1M@GGMNHJNL@?$AAz?$AAh?$AA?9?$AAS?$AAG@ 0000000140045740     libucrtd:lcidtoname_downlevel.obj
 0002:0000b750       ??_C@_1M@HOIKODND@?$AAd?$AAe?$AA?9?$AAL?$AAU@ 0000000140045750     libucrtd:lcidtoname_downlevel.obj
 0002:0000b760       ??_C@_1M@DDOCCGFG@?$AAe?$AAn?$AA?9?$AAC?$AAA@ 0000000140045760     libucrtd:lcidtoname_downlevel.obj
 0002:0000b770       ??_C@_1M@BNOEMJLF@?$AAe?$AAs?$AA?9?$AAG?$AAT@ 0000000140045770     libucrtd:lcidtoname_downlevel.obj
 0002:0000b780       ??_C@_1M@EOGNKEK@?$AAf?$AAr?$AA?9?$AAC?$AAH@ 0000000140045780     libucrtd:lcidtoname_downlevel.obj
 0002:0000b790       ??_C@_1M@FLIDJFHL@?$AAh?$AAr?$AA?9?$AAB?$AAA@ 0000000140045790     libucrtd:lcidtoname_downlevel.obj
 0002:0000b7a0       ??_C@_1O@FMCELNAJ@?$AAs?$AAm?$AAj?$AA?9?$AAN?$AAO@ 00000001400457a0     libucrtd:lcidtoname_downlevel.obj
 0002:0000b7b0       ??_C@_1M@JHGLJMGJ@?$AAa?$AAr?$AA?9?$AAD?$AAZ@ 00000001400457b0     libucrtd:lcidtoname_downlevel.obj
 0002:0000b7c0       ??_C@_1M@JKKFDCNP@?$AAz?$AAh?$AA?9?$AAM?$AAO@ 00000001400457c0     libucrtd:lcidtoname_downlevel.obj
 0002:0000b7d0       ??_C@_1M@GEEFALPE@?$AAd?$AAe?$AA?9?$AAL?$AAI@ 00000001400457d0     libucrtd:lcidtoname_downlevel.obj
 0002:0000b7e0       ??_C@_1M@IGEOFBG@?$AAe?$AAn?$AA?9?$AAN?$AAZ@ 00000001400457e0     libucrtd:lcidtoname_downlevel.obj
 0002:0000b7f0       ??_C@_1M@KDBONEHP@?$AAe?$AAs?$AA?9?$AAC?$AAR@ 00000001400457f0     libucrtd:lcidtoname_downlevel.obj
 0002:0000b800       ??_C@_1M@FHMDOHNN@?$AAf?$AAr?$AA?9?$AAL?$AAU@ 0000000140045800     libucrtd:lcidtoname_downlevel.obj
 0002:0000b810       ??_C@_1BG@NFKKMAFG@?$AAb?$AAs?$AA?9?$AAB?$AAA?$AA?9?$AAL?$AAa?$AAt?$AAn@ 0000000140045810     libucrtd:lcidtoname_downlevel.obj
 0002:0000b828       ??_C@_1O@IMNBEMCI@?$AAs?$AAm?$AAj?$AA?9?$AAS?$AAE@ 0000000140045828     libucrtd:lcidtoname_downlevel.obj
 0002:0000b838       ??_C@_1M@DHHMBNDP@?$AAa?$AAr?$AA?9?$AAM?$AAA@ 0000000140045838     libucrtd:lcidtoname_downlevel.obj
 0002:0000b848       ??_C@_1M@BNBLJCGH@?$AAe?$AAn?$AA?9?$AAI?$AAE@ 0000000140045848     libucrtd:lcidtoname_downlevel.obj
 0002:0000b858       ??_C@_1M@GEPAFMDL@?$AAe?$AAs?$AA?9?$AAP?$AAA@ 0000000140045858     libucrtd:lcidtoname_downlevel.obj
 0002:0000b868       ??_C@_1M@OJONDMDL@?$AAf?$AAr?$AA?9?$AAM?$AAC@ 0000000140045868     libucrtd:lcidtoname_downlevel.obj
 0002:0000b878       ??_C@_1BG@OBCNFJB@?$AAs?$AAr?$AA?9?$AAB?$AAA?$AA?9?$AAL?$AAa?$AAt?$AAn@ 0000000140045878     libucrtd:lcidtoname_downlevel.obj
 0002:0000b890       ??_C@_1O@KEMEEGPO@?$AAs?$AAm?$AAa?$AA?9?$AAN?$AAO@ 0000000140045890     libucrtd:lcidtoname_downlevel.obj
 0002:0000b8a0       ??_C@_1M@ELMGFODK@?$AAa?$AAr?$AA?9?$AAT?$AAN@ 00000001400458a0     libucrtd:lcidtoname_downlevel.obj
 0002:0000b8b0       ??_C@_1M@BHDLHFAF@?$AAe?$AAn?$AA?9?$AAZ?$AAA@ 00000001400458b0     libucrtd:lcidtoname_downlevel.obj
 0002:0000b8c0       ??_C@_1M@BMGIGLIF@?$AAe?$AAs?$AA?9?$AAD?$AAO@ 00000001400458c0     libucrtd:lcidtoname_downlevel.obj
 0002:0000b8d0       ??_C@_1BG@CMBHIPBE@?$AAs?$AAr?$AA?9?$AAB?$AAA?$AA?9?$AAC?$AAy?$AAr?$AAl@ 00000001400458d0     libucrtd:lcidtoname_downlevel.obj
 0002:0000b8e8       ??_C@_1O@HEDBLHNP@?$AAs?$AAm?$AAa?$AA?9?$AAS?$AAE@ 00000001400458e8     libucrtd:lcidtoname_downlevel.obj
 0002:0000b8f8       ??_C@_1M@DAGCADIM@?$AAa?$AAr?$AA?9?$AAO?$AAM@ 00000001400458f8     libucrtd:lcidtoname_downlevel.obj
 0002:0000b908       ??_C@_1M@FODLMICG@?$AAe?$AAn?$AA?9?$AAJ?$AAM@ 0000000140045908     libucrtd:lcidtoname_downlevel.obj
 0002:0000b918       ??_C@_1M@DNMLCIHB@?$AAe?$AAs?$AA?9?$AAV?$AAE@ 0000000140045918     libucrtd:lcidtoname_downlevel.obj
 0002:0000b928       ??_C@_1O@EOKHMKJK@?$AAs?$AAm?$AAs?$AA?9?$AAF?$AAI@ 0000000140045928     libucrtd:lcidtoname_downlevel.obj
 0002:0000b938       ??_C@_1M@CAFJMKOF@?$AAa?$AAr?$AA?9?$AAY?$AAE@ 0000000140045938     libucrtd:lcidtoname_downlevel.obj
 0002:0000b948       ??_C@_1M@CBFHIJLI@?$AAe?$AAn?$AA?9?$AAC?$AAB@ 0000000140045948     libucrtd:lcidtoname_downlevel.obj
 0002:0000b958       ??_C@_1M@BGNFLDN@?$AAe?$AAs?$AA?9?$AAC?$AAO@ 0000000140045958     libucrtd:lcidtoname_downlevel.obj
 0002:0000b968       ??_C@_1O@JMPHMAMC@?$AAs?$AAm?$AAn?$AA?9?$AAF?$AAI@ 0000000140045968     libucrtd:lcidtoname_downlevel.obj
 0002:0000b978       ??_C@_1M@JLANABKE@?$AAa?$AAr?$AA?9?$AAS?$AAY@ 0000000140045978     libucrtd:lcidtoname_downlevel.obj
 0002:0000b988       ??_C@_1M@HPKGCFGN@?$AAe?$AAn?$AA?9?$AAB?$AAZ@ 0000000140045988     libucrtd:lcidtoname_downlevel.obj
 0002:0000b998       ??_C@_1M@OLJCMLGM@?$AAe?$AAs?$AA?9?$AAP?$AAE@ 0000000140045998     libucrtd:lcidtoname_downlevel.obj
 0002:0000b9a8       ??_C@_1M@MKKGFKLE@?$AAa?$AAr?$AA?9?$AAJ?$AAO@ 00000001400459a8     libucrtd:lcidtoname_downlevel.obj
 0002:0000b9b8       ??_C@_1M@EKPGLDNI@?$AAe?$AAn?$AA?9?$AAT?$AAT@ 00000001400459b8     libucrtd:lcidtoname_downlevel.obj
 0002:0000b9c8       ??_C@_1M@OONGHFHE@?$AAe?$AAs?$AA?9?$AAA?$AAR@ 00000001400459c8     libucrtd:lcidtoname_downlevel.obj
 0002:0000b9d8       ??_C@_1M@OOJFGBHE@?$AAa?$AAr?$AA?9?$AAL?$AAB@ 00000001400459d8     libucrtd:lcidtoname_downlevel.obj
 0002:0000b9e8       ??_C@_1M@GCEJHNEG@?$AAe?$AAn?$AA?9?$AAZ?$AAW@ 00000001400459e8     libucrtd:lcidtoname_downlevel.obj
 0002:0000b9f8       ??_C@_1M@JNOCAHJI@?$AAe?$AAs?$AA?9?$AAE?$AAC@ 00000001400459f8     libucrtd:lcidtoname_downlevel.obj
 0002:0000ba08       ??_C@_1M@JEFHPGGB@?$AAa?$AAr?$AA?9?$AAK?$AAW@ 0000000140045a08     libucrtd:lcidtoname_downlevel.obj
 0002:0000ba18       ??_C@_1M@MLKIBJOJ@?$AAe?$AAn?$AA?9?$AAP?$AAH@ 0000000140045a18     libucrtd:lcidtoname_downlevel.obj
 0002:0000ba28       ??_C@_1M@BDNIPEND@?$AAe?$AAs?$AA?9?$AAC?$AAL@ 0000000140045a28     libucrtd:lcidtoname_downlevel.obj
 0002:0000ba38       ??_C@_1M@MPNMEKBD@?$AAa?$AAr?$AA?9?$AAA?$AAE@ 0000000140045a38     libucrtd:lcidtoname_downlevel.obj
 0002:0000ba48       ??_C@_1M@KBJALCPI@?$AAe?$AAs?$AA?9?$AAU?$AAY@ 0000000140045a48     libucrtd:lcidtoname_downlevel.obj
 0002:0000ba58       ??_C@_1M@LLCCOAGA@?$AAa?$AAr?$AA?9?$AAB?$AAH@ 0000000140045a58     libucrtd:lcidtoname_downlevel.obj
 0002:0000ba68       ??_C@_1M@PBFNCDEL@?$AAe?$AAs?$AA?9?$AAP?$AAY@ 0000000140045a68     libucrtd:lcidtoname_downlevel.obj
 0002:0000ba78       ??_C@_1M@EDGINPNP@?$AAa?$AAr?$AA?9?$AAQ?$AAA@ 0000000140045a78     libucrtd:lcidtoname_downlevel.obj
 0002:0000ba88       ??_C@_1M@MKDBIIJI@?$AAe?$AAs?$AA?9?$AAB?$AAO@ 0000000140045a88     libucrtd:lcidtoname_downlevel.obj
 0002:0000ba98       ??_C@_1M@CPKKEBLD@?$AAe?$AAs?$AA?9?$AAS?$AAV@ 0000000140045a98     libucrtd:lcidtoname_downlevel.obj
 0002:0000baa8       ??_C@_1M@NDBGMMJL@?$AAe?$AAs?$AA?9?$AAH?$AAN@ 0000000140045aa8     libucrtd:lcidtoname_downlevel.obj
 0002:0000bab8       ??_C@_1M@JIJIBHDP@?$AAe?$AAs?$AA?9?$AAN?$AAI@ 0000000140045ab8     libucrtd:lcidtoname_downlevel.obj
 0002:0000bac8       ??_C@_1M@CGFMKEEK@?$AAe?$AAs?$AA?9?$AAP?$AAR@ 0000000140045ac8     libucrtd:lcidtoname_downlevel.obj
 0002:0000bad8       ??_C@_1O@ICJHKIIK@?$AAz?$AAh?$AA?9?$AAC?$AAH?$AAT@ 0000000140045ad8     libucrtd:lcidtoname_downlevel.obj
 0002:0000bae8       ??_C@_15CLNEJCE@?$AAs?$AAr@ 0000000140045ae8     libucrtd:lcidtoname_downlevel.obj
 0002:0000c930       ??_C@_1M@KAHEKEIG@?$AAa?$AAf?$AA?9?$AAz?$AAa@ 0000000140046930     libucrtd:lcidtoname_downlevel.obj
 0002:0000c940       ??_C@_1M@GIECOABL@?$AAa?$AAr?$AA?9?$AAa?$AAe@ 0000000140046940     libucrtd:lcidtoname_downlevel.obj
 0002:0000c950       ??_C@_1M@BMLMEKGI@?$AAa?$AAr?$AA?9?$AAb?$AAh@ 0000000140046950     libucrtd:lcidtoname_downlevel.obj
 0002:0000c960       ??_C@_1M@DAPFDGGB@?$AAa?$AAr?$AA?9?$AAd?$AAz@ 0000000140046960     libucrtd:lcidtoname_downlevel.obj
 0002:0000c970       ??_C@_1M@FJNKGKIG@?$AAa?$AAr?$AA?9?$AAe?$AAg@ 0000000140046970     libucrtd:lcidtoname_downlevel.obj
 0002:0000c980       ??_C@_1M@FLGKKCLO@?$AAa?$AAr?$AA?9?$AAi?$AAq@ 0000000140046980     libucrtd:lcidtoname_downlevel.obj
 0002:0000c990       ??_C@_1M@GNDIPALM@?$AAa?$AAr?$AA?9?$AAj?$AAo@ 0000000140046990     libucrtd:lcidtoname_downlevel.obj
 0002:0000c9a0       ??_C@_1M@DDMJFMGJ@?$AAa?$AAr?$AA?9?$AAk?$AAw@ 00000001400469a0     libucrtd:lcidtoname_downlevel.obj
 0002:0000c9b0       ??_C@_1M@EJALMLHM@?$AAa?$AAr?$AA?9?$AAl?$AAb@ 00000001400469b0     libucrtd:lcidtoname_downlevel.obj
 0002:0000c9c0       ??_C@_1M@MOBDBLOC@?$AAa?$AAr?$AA?9?$AAl?$AAy@ 00000001400469c0     libucrtd:lcidtoname_downlevel.obj
 0002:0000c9d0       ??_C@_1M@JAOCLHDH@?$AAa?$AAr?$AA?9?$AAm?$AAa@ 00000001400469d0     libucrtd:lcidtoname_downlevel.obj
 0002:0000c9e0       ??_C@_1M@JHPMKJIE@?$AAa?$AAr?$AA?9?$AAo?$AAm@ 00000001400469e0     libucrtd:lcidtoname_downlevel.obj
 0002:0000c9f0       ??_C@_1M@OEPGHFNH@?$AAa?$AAr?$AA?9?$AAq?$AAa@ 00000001400469f0     libucrtd:lcidtoname_downlevel.obj
 0002:0000ca00       ??_C@_1M@KJDONENM@?$AAa?$AAr?$AA?9?$AAs?$AAa@ 0000000140046a00     libucrtd:lcidtoname_downlevel.obj
 0002:0000ca10       ??_C@_1M@DMJDKLKM@?$AAa?$AAr?$AA?9?$AAs?$AAy@ 0000000140046a10     libucrtd:lcidtoname_downlevel.obj
 0002:0000ca20       ??_C@_1M@OMFIPEDC@?$AAa?$AAr?$AA?9?$AAt?$AAn@ 0000000140046a20     libucrtd:lcidtoname_downlevel.obj
 0002:0000ca30       ??_C@_1M@IHMHGAON@?$AAa?$AAr?$AA?9?$AAy?$AAe@ 0000000140046a30     libucrtd:lcidtoname_downlevel.obj
 0002:0000ca40       ??_C@_1BG@KDCPGJGB@?$AAa?$AAz?$AA?9?$AAa?$AAz?$AA?9?$AAc?$AAy?$AAr?$AAl@ 0000000140046a40     libucrtd:lcidtoname_downlevel.obj
 0002:0000ca58       ??_C@_1BG@IBCKDDOE@?$AAa?$AAz?$AA?9?$AAa?$AAz?$AA?9?$AAl?$AAa?$AAt?$AAn@ 0000000140046a58     libucrtd:lcidtoname_downlevel.obj
 0002:0000ca70       ??_C@_1M@EGPFDCPD@?$AAb?$AAe?$AA?9?$AAb?$AAy@ 0000000140046a70     libucrtd:lcidtoname_downlevel.obj
 0002:0000ca80       ??_C@_1M@PCMGMCGC@?$AAb?$AAg?$AA?9?$AAb?$AAg@ 0000000140046a80     libucrtd:lcidtoname_downlevel.obj
 0002:0000ca90       ??_C@_1M@BJBMFGOB@?$AAb?$AAn?$AA?9?$AAi?$AAn@ 0000000140046a90     libucrtd:lcidtoname_downlevel.obj
 0002:0000caa0       ??_C@_1BG@EAKMMACD@?$AAb?$AAs?$AA?9?$AAb?$AAa?$AA?9?$AAl?$AAa?$AAt?$AAn@ 0000000140046aa0     libucrtd:lcidtoname_downlevel.obj
 0002:0000cab8       ??_C@_1M@KGADAODK@?$AAc?$AAa?$AA?9?$AAe?$AAs@ 0000000140046ab8     libucrtd:lcidtoname_downlevel.obj
 0002:0000cac8       ??_C@_1M@COAJPDHI@?$AAc?$AAs?$AA?9?$AAc?$AAz@ 0000000140046ac8     libucrtd:lcidtoname_downlevel.obj
 0002:0000cad8       ??_C@_1M@DHBHFONH@?$AAc?$AAy?$AA?9?$AAg?$AAb@ 0000000140046ad8     libucrtd:lcidtoname_downlevel.obj
 0002:0000cae8       ??_C@_1M@IMGKELGA@?$AAd?$AAa?$AA?9?$AAd?$AAk@ 0000000140046ae8     libucrtd:lcidtoname_downlevel.obj
 0002:0000caf8       ??_C@_1M@NNDGDNGA@?$AAd?$AAe?$AA?9?$AAa?$AAt@ 0000000140046af8     libucrtd:lcidtoname_downlevel.obj
 0002:0000cb08       ??_C@_1M@IKDBHEEM@?$AAd?$AAe?$AA?9?$AAc?$AAh@ 0000000140046b08     libucrtd:lcidtoname_downlevel.obj
 0002:0000cb18       ??_C@_1M@GFFOJMCJ@?$AAd?$AAe?$AA?9?$AAd?$AAe@ 0000000140046b18     libucrtd:lcidtoname_downlevel.obj
 0002:0000cb28       ??_C@_1M@MDNLKBPM@?$AAd?$AAe?$AA?9?$AAl?$AAi@ 0000000140046b28     libucrtd:lcidtoname_downlevel.obj
 0002:0000cb38       ??_C@_1M@NJBEEJNL@?$AAd?$AAe?$AA?9?$AAl?$AAu@ 0000000140046b38     libucrtd:lcidtoname_downlevel.obj
 0002:0000cb48       ??_C@_1O@GNNELBAP@?$AAd?$AAi?$AAv?$AA?9?$AAm?$AAv@ 0000000140046b48     libucrtd:lcidtoname_downlevel.obj
 0002:0000cb58       ??_C@_1M@EJLEOGAE@?$AAe?$AAl?$AA?9?$AAg?$AAr@ 0000000140046b58     libucrtd:lcidtoname_downlevel.obj
 0002:0000cb68       ??_C@_1M@GMPONJN@?$AAe?$AAn?$AA?9?$AAa?$AAu@ 0000000140046b68     libucrtd:lcidtoname_downlevel.obj
 0002:0000cb78       ??_C@_1M@NIDIIPGF@?$AAe?$AAn?$AA?9?$AAb?$AAz@ 0000000140046b78     libucrtd:lcidtoname_downlevel.obj
 0002:0000cb88       ??_C@_1M@JEHMIMFO@?$AAe?$AAn?$AA?9?$AAc?$AAa@ 0000000140046b88     libucrtd:lcidtoname_downlevel.obj
 0002:0000cb98       ??_C@_1M@IGMJCDLA@?$AAe?$AAn?$AA?9?$AAc?$AAb@ 0000000140046b98     libucrtd:lcidtoname_downlevel.obj
 0002:0000cba8       ??_C@_1M@BNFIGBKG@?$AAe?$AAn?$AA?9?$AAg?$AAb@ 0000000140046ba8     libucrtd:lcidtoname_downlevel.obj
 0002:0000cbb8       ??_C@_1M@LKIFDIGP@?$AAe?$AAn?$AA?9?$AAi?$AAe@ 0000000140046bb8     libucrtd:lcidtoname_downlevel.obj
 0002:0000cbc8       ??_C@_1M@PJKFGCCO@?$AAe?$AAn?$AA?9?$AAj?$AAm@ 0000000140046bc8     libucrtd:lcidtoname_downlevel.obj
 0002:0000cbd8       ??_C@_1M@KPPKEPBO@?$AAe?$AAn?$AA?9?$AAn?$AAz@ 0000000140046bd8     libucrtd:lcidtoname_downlevel.obj
 0002:0000cbe8       ??_C@_1M@GMDGLDOB@?$AAe?$AAn?$AA?9?$AAp?$AAh@ 0000000140046be8     libucrtd:lcidtoname_downlevel.obj
 0002:0000cbf8       ??_C@_1M@ONGIBJNA@?$AAe?$AAn?$AA?9?$AAt?$AAt@ 0000000140046bf8     libucrtd:lcidtoname_downlevel.obj
 0002:0000cc08       ??_C@_1M@LLODPCMM@?$AAe?$AAn?$AA?9?$AAu?$AAs@ 0000000140046c08     libucrtd:lcidtoname_downlevel.obj
 0002:0000cc18       ??_C@_1M@LAKFNPAN@?$AAe?$AAn?$AA?9?$AAz?$AAa@ 0000000140046c18     libucrtd:lcidtoname_downlevel.obj
 0002:0000cc28       ??_C@_1M@MFNHNHEO@?$AAe?$AAn?$AA?9?$AAz?$AAw@ 0000000140046c28     libucrtd:lcidtoname_downlevel.obj
 0002:0000cc38       ??_C@_1M@EJEINPHM@?$AAe?$AAs?$AA?9?$AAa?$AAr@ 0000000140046c38     libucrtd:lcidtoname_downlevel.obj
 0002:0000cc48       ??_C@_1M@GNKPCCJA@?$AAe?$AAs?$AA?9?$AAb?$AAo@ 0000000140046c48     libucrtd:lcidtoname_downlevel.obj
 0002:0000cc58       ??_C@_1M@LEEGFONL@?$AAe?$AAs?$AA?9?$AAc?$AAl@ 0000000140046c58     libucrtd:lcidtoname_downlevel.obj
 0002:0000cc68       ??_C@_1M@KGPDPBDF@?$AAe?$AAs?$AA?9?$AAc?$AAo@ 0000000140046c68     libucrtd:lcidtoname_downlevel.obj
 0002:0000cc78       ??_C@_1M@EIAHOHH@?$AAe?$AAs?$AA?9?$AAc?$AAr@ 0000000140046c78     libucrtd:lcidtoname_downlevel.obj
 0002:0000cc88       ??_C@_1M@LLPGMBIN@?$AAe?$AAs?$AA?9?$AAd?$AAo@ 0000000140046c88     libucrtd:lcidtoname_downlevel.obj
 0002:0000cc98       ??_C@_1M@DKHMKNJA@?$AAe?$AAs?$AA?9?$AAe?$AAc@ 0000000140046c98     libucrtd:lcidtoname_downlevel.obj
 0002:0000cca8       ??_C@_1M@GKGFPKAP@?$AAe?$AAs?$AA?9?$AAe?$AAs@ 0000000140046ca8     libucrtd:lcidtoname_downlevel.obj
 0002:0000ccb8       ??_C@_1M@LKHKGDLN@?$AAe?$AAs?$AA?9?$AAg?$AAt@ 0000000140046cb8     libucrtd:lcidtoname_downlevel.obj
 0002:0000ccc8       ??_C@_1M@HEIIGGJD@?$AAe?$AAs?$AA?9?$AAh?$AAn@ 0000000140046cc8     libucrtd:lcidtoname_downlevel.obj
 0002:0000ccd8       ??_C@_1M@FBDHPPGD@?$AAe?$AAs?$AA?9?$AAm?$AAx@ 0000000140046cd8     libucrtd:lcidtoname_downlevel.obj
 0002:0000cce8       ??_C@_1M@DPAGLNDH@?$AAe?$AAs?$AA?9?$AAn?$AAi@ 0000000140046ce8     libucrtd:lcidtoname_downlevel.obj
 0002:0000ccf8       ??_C@_1M@MDGOPGDD@?$AAe?$AAs?$AA?9?$AAp?$AAa@ 0000000140046cf8     libucrtd:lcidtoname_downlevel.obj
 0002:0000cd08       ??_C@_1M@EMAMGBGE@?$AAe?$AAs?$AA?9?$AAp?$AAe@ 0000000140046d08     libucrtd:lcidtoname_downlevel.obj
 0002:0000cd18       ??_C@_1M@IBMCAOEC@?$AAe?$AAs?$AA?9?$AAp?$AAr@ 0000000140046d18     libucrtd:lcidtoname_downlevel.obj
 0002:0000cd28       ??_C@_1M@FGMDIJED@?$AAe?$AAs?$AA?9?$AAp?$AAy@ 0000000140046d28     libucrtd:lcidtoname_downlevel.obj
 0002:0000cd38       ??_C@_1M@IIDEOLLL@?$AAe?$AAs?$AA?9?$AAs?$AAv@ 0000000140046d38     libucrtd:lcidtoname_downlevel.obj
 0002:0000cd48       ??_C@_1M@GAOBIPA@?$AAe?$AAs?$AA?9?$AAu?$AAy@ 0000000140046d48     libucrtd:lcidtoname_downlevel.obj
 0002:0000cd58       ??_C@_1M@JKFFICHJ@?$AAe?$AAs?$AA?9?$AAv?$AAe@ 0000000140046d58     libucrtd:lcidtoname_downlevel.obj
 0002:0000cd68       ??_C@_1M@PNMLOJDF@?$AAe?$AAt?$AA?9?$AAe?$AAe@ 0000000140046d68     libucrtd:lcidtoname_downlevel.obj
 0002:0000cd78       ??_C@_1M@GHHLIKEI@?$AAe?$AAu?$AA?9?$AAe?$AAs@ 0000000140046d78     libucrtd:lcidtoname_downlevel.obj
 0002:0000cd88       ??_C@_1M@PBNONODE@?$AAf?$AAa?$AA?9?$AAi?$AAr@ 0000000140046d88     libucrtd:lcidtoname_downlevel.obj
 0002:0000cd98       ??_C@_1M@JEEHPMIL@?$AAf?$AAi?$AA?9?$AAf?$AAi@ 0000000140046d98     libucrtd:lcidtoname_downlevel.obj
 0002:0000cda8       ??_C@_1M@LMDCNDBA@?$AAf?$AAo?$AA?9?$AAf?$AAo@ 0000000140046da8     libucrtd:lcidtoname_downlevel.obj
 0002:0000cdb8       ??_C@_1M@JKEOHLDK@?$AAf?$AAr?$AA?9?$AAb?$AAe@ 0000000140046db8     libucrtd:lcidtoname_downlevel.obj
 0002:0000cdc8       ??_C@_1M@NOHADPMI@?$AAf?$AAr?$AA?9?$AAc?$AAa@ 0000000140046dc8     libucrtd:lcidtoname_downlevel.obj
 0002:0000cdd8       ??_C@_1M@KDHIHAEC@?$AAf?$AAr?$AA?9?$AAc?$AAh@ 0000000140046dd8     libucrtd:lcidtoname_downlevel.obj
 0002:0000cde8       ??_C@_1M@MMBBFGAK@?$AAf?$AAr?$AA?9?$AAf?$AAr@ 0000000140046de8     libucrtd:lcidtoname_downlevel.obj
 0002:0000cdf8       ??_C@_1M@PAFNENNF@?$AAf?$AAr?$AA?9?$AAl?$AAu@ 0000000140046df8     libucrtd:lcidtoname_downlevel.obj
 0002:0000ce08       ??_C@_1M@EOHDJGDD@?$AAf?$AAr?$AA?9?$AAm?$AAc@ 0000000140046e08     libucrtd:lcidtoname_downlevel.obj
 0002:0000ce18       ??_C@_1M@FAPLLOPF@?$AAg?$AAl?$AA?9?$AAe?$AAs@ 0000000140046e18     libucrtd:lcidtoname_downlevel.obj
 0002:0000ce28       ??_C@_1M@FOPBFLOO@?$AAg?$AAu?$AA?9?$AAi?$AAn@ 0000000140046e28     libucrtd:lcidtoname_downlevel.obj
 0002:0000ce38       ??_C@_1M@KBMCINPM@?$AAh?$AAe?$AA?9?$AAi?$AAl@ 0000000140046e38     libucrtd:lcidtoname_downlevel.obj
 0002:0000ce48       ??_C@_1M@BBPHKFPJ@?$AAh?$AAi?$AA?9?$AAi?$AAn@ 0000000140046e48     libucrtd:lcidtoname_downlevel.obj
 0002:0000ce58       ??_C@_1M@PMBNDPHD@?$AAh?$AAr?$AA?9?$AAb?$AAa@ 0000000140046e58     libucrtd:lcidtoname_downlevel.obj
 0002:0000ce68       ??_C@_1M@BPCKOEGE@?$AAh?$AAr?$AA?9?$AAh?$AAr@ 0000000140046e68     libucrtd:lcidtoname_downlevel.obj
 0002:0000ce78       ??_C@_1M@GACBMHKE@?$AAh?$AAu?$AA?9?$AAh?$AAu@ 0000000140046e78     libucrtd:lcidtoname_downlevel.obj
 0002:0000ce88       ??_C@_1M@MILPAJJC@?$AAh?$AAy?$AA?9?$AAa?$AAm@ 0000000140046e88     libucrtd:lcidtoname_downlevel.obj
 0002:0000ce98       ??_C@_1M@BABBICEC@?$AAi?$AAd?$AA?9?$AAi?$AAd@ 0000000140046e98     libucrtd:lcidtoname_downlevel.obj
 0002:0000cea8       ??_C@_1M@BIKNHHPF@?$AAi?$AAs?$AA?9?$AAi?$AAs@ 0000000140046ea8     libucrtd:lcidtoname_downlevel.obj
 0002:0000ceb8       ??_C@_1M@NMPCJPHE@?$AAi?$AAt?$AA?9?$AAc?$AAh@ 0000000140046eb8     libucrtd:lcidtoname_downlevel.obj
 0002:0000cec8       ??_C@_1M@GHKGFEDF@?$AAi?$AAt?$AA?9?$AAi?$AAt@ 0000000140046ec8     libucrtd:lcidtoname_downlevel.obj
 0002:0000ced8       ??_C@_1M@NIEJCJJA@?$AAj?$AAa?$AA?9?$AAj?$AAp@ 0000000140046ed8     libucrtd:lcidtoname_downlevel.obj
 0002:0000cee8       ??_C@_1M@JILFNBIM@?$AAk?$AAa?$AA?9?$AAg?$AAe@ 0000000140046ee8     libucrtd:lcidtoname_downlevel.obj
 0002:0000cef8       ??_C@_1M@PACPMGPH@?$AAk?$AAk?$AA?9?$AAk?$AAz@ 0000000140046ef8     libucrtd:lcidtoname_downlevel.obj
 0002:0000cf08       ??_C@_1M@IELFGMHA@?$AAk?$AAn?$AA?9?$AAi?$AAn@ 0000000140046f08     libucrtd:lcidtoname_downlevel.obj
 0002:0000cf18       ??_C@_1O@IBBJHCH@?$AAk?$AAo?$AAk?$AA?9?$AAi?$AAn@ 0000000140046f18     libucrtd:lcidtoname_downlevel.obj
 0002:0000cf28       ??_C@_1M@DMHAEOGC@?$AAk?$AAo?$AA?9?$AAk?$AAr@ 0000000140046f28     libucrtd:lcidtoname_downlevel.obj
 0002:0000cf38       ??_C@_1M@HBAHBIGA@?$AAk?$AAy?$AA?9?$AAk?$AAg@ 0000000140046f38     libucrtd:lcidtoname_downlevel.obj
 0002:0000cf48       ??_C@_1M@KPMILCJG@?$AAl?$AAt?$AA?9?$AAl?$AAt@ 0000000140046f48     libucrtd:lcidtoname_downlevel.obj
 0002:0000cf58       ??_C@_1M@BDEKKCA@?$AAl?$AAv?$AA?9?$AAl?$AAv@ 0000000140046f58     libucrtd:lcidtoname_downlevel.obj
 0002:0000cf68       ??_C@_1M@ELCKCCJJ@?$AAm?$AAi?$AA?9?$AAn?$AAz@ 0000000140046f68     libucrtd:lcidtoname_downlevel.obj
 0002:0000cf78       ??_C@_1M@CBOOLAPA@?$AAm?$AAk?$AA?9?$AAm?$AAk@ 0000000140046f78     libucrtd:lcidtoname_downlevel.obj
 0002:0000cf88       ??_C@_1M@GPHNBJKN@?$AAm?$AAl?$AA?9?$AAi?$AAn@ 0000000140046f88     libucrtd:lcidtoname_downlevel.obj
 0002:0000cf98       ??_C@_1M@PABJILIG@?$AAm?$AAn?$AA?9?$AAm?$AAn@ 0000000140046f98     libucrtd:lcidtoname_downlevel.obj
 0002:0000cfa8       ??_C@_1M@FGBKKIPG@?$AAm?$AAr?$AA?9?$AAi?$AAn@ 0000000140046fa8     libucrtd:lcidtoname_downlevel.obj
 0002:0000cfb8       ??_C@_1M@NDBPDDAL@?$AAm?$AAs?$AA?9?$AAb?$AAn@ 0000000140046fb8     libucrtd:lcidtoname_downlevel.obj
 0002:0000cfc8       ??_C@_1M@OPIHOOPI@?$AAm?$AAs?$AA?9?$AAm?$AAy@ 0000000140046fc8     libucrtd:lcidtoname_downlevel.obj
 0002:0000cfd8       ??_C@_1M@PPDBCNFM@?$AAm?$AAt?$AA?9?$AAm?$AAt@ 0000000140046fd8     libucrtd:lcidtoname_downlevel.obj
 0002:0000cfe8       ??_C@_1M@KDJDKMDD@?$AAn?$AAb?$AA?9?$AAn?$AAo@ 0000000140046fe8     libucrtd:lcidtoname_downlevel.obj
 0002:0000cff8       ??_C@_1M@KFCFLMJP@?$AAn?$AAl?$AA?9?$AAb?$AAe@ 0000000140046ff8     libucrtd:lcidtoname_downlevel.obj
 0002:0000d008       ??_C@_1M@KPOPDDGO@?$AAn?$AAl?$AA?9?$AAn?$AAl@ 0000000140047008     libucrtd:lcidtoname_downlevel.obj
 0002:0000d018       ??_C@_1M@LJKPEMLN@?$AAn?$AAn?$AA?9?$AAn?$AAo@ 0000000140047018     libucrtd:lcidtoname_downlevel.obj
 0002:0000d028       ??_C@_1M@BDGHHBFL@?$AAn?$AAs?$AA?9?$AAz?$AAa@ 0000000140047028     libucrtd:lcidtoname_downlevel.obj
 0002:0000d038       ??_C@_1M@IDEHOAP@?$AAp?$AAa?$AA?9?$AAi?$AAn@ 0000000140047038     libucrtd:lcidtoname_downlevel.obj
 0002:0000d048       ??_C@_1M@HDBKGOGH@?$AAp?$AAl?$AA?9?$AAp?$AAl@ 0000000140047048     libucrtd:lcidtoname_downlevel.obj
 0002:0000d058       ??_C@_1M@LJLLCMEH@?$AAp?$AAt?$AA?9?$AAb?$AAr@ 0000000140047058     libucrtd:lcidtoname_downlevel.obj
 0002:0000d068       ??_C@_1M@NCMONAAL@?$AAp?$AAt?$AA?9?$AAp?$AAt@ 0000000140047068     libucrtd:lcidtoname_downlevel.obj
 0002:0000d078       ??_C@_1O@EAKMAJDN@?$AAq?$AAu?$AAz?$AA?9?$AAb?$AAo@ 0000000140047078     libucrtd:lcidtoname_downlevel.obj
 0002:0000d088       ??_C@_1O@BHHPIGDN@?$AAq?$AAu?$AAz?$AA?9?$AAe?$AAc@ 0000000140047088     libucrtd:lcidtoname_downlevel.obj
 0002:0000d098       ??_C@_1O@GBAPEKMJ@?$AAq?$AAu?$AAz?$AA?9?$AAp?$AAe@ 0000000140047098     libucrtd:lcidtoname_downlevel.obj
 0002:0000d0a8       ??_C@_1M@CLGLEFBO@?$AAr?$AAo?$AA?9?$AAr?$AAo@ 00000001400470a8     libucrtd:lcidtoname_downlevel.obj
 0002:0000d0b8       ??_C@_1M@CEEDODME@?$AAr?$AAu?$AA?9?$AAr?$AAu@ 00000001400470b8     libucrtd:lcidtoname_downlevel.obj
 0002:0000d0c8       ??_C@_1M@HPKKKMPP@?$AAs?$AAa?$AA?9?$AAi?$AAn@ 00000001400470c8     libucrtd:lcidtoname_downlevel.obj
 0002:0000d0d8       ??_C@_1M@BKMAIGOJ@?$AAs?$AAe?$AA?9?$AAf?$AAi@ 00000001400470d8     libucrtd:lcidtoname_downlevel.obj
 0002:0000d0e8       ??_C@_1M@NDPIFLFI@?$AAs?$AAe?$AA?9?$AAn?$AAo@ 00000001400470e8     libucrtd:lcidtoname_downlevel.obj
 0002:0000d0f8       ??_C@_1M@DANKKHJ@?$AAs?$AAe?$AA?9?$AAs?$AAe@ 00000001400470f8     libucrtd:lcidtoname_downlevel.obj
 0002:0000d108       ??_C@_1M@PNBLONPJ@?$AAs?$AAk?$AA?9?$AAs?$AAk@ 0000000140047108     libucrtd:lcidtoname_downlevel.obj
 0002:0000d118       ??_C@_1M@LFMODOAL@?$AAs?$AAl?$AA?9?$AAs?$AAi@ 0000000140047118     libucrtd:lcidtoname_downlevel.obj
 0002:0000d128       ??_C@_1O@DFKOMPG@?$AAs?$AAm?$AAa?$AA?9?$AAn?$AAo@ 0000000140047128     libucrtd:lcidtoname_downlevel.obj
 0002:0000d138       ??_C@_1O@NDKPBNNH@?$AAs?$AAm?$AAa?$AA?9?$AAs?$AAe@ 0000000140047138     libucrtd:lcidtoname_downlevel.obj
 0002:0000d148       ??_C@_1O@PLLKBHAB@?$AAs?$AAm?$AAj?$AA?9?$AAn?$AAo@ 0000000140047148     libucrtd:lcidtoname_downlevel.obj
 0002:0000d158       ??_C@_1O@CLEPOGCA@?$AAs?$AAm?$AAj?$AA?9?$AAs?$AAe@ 0000000140047158     libucrtd:lcidtoname_downlevel.obj
 0002:0000d168       ??_C@_1O@DLGJGKMK@?$AAs?$AAm?$AAn?$AA?9?$AAf?$AAi@ 0000000140047168     libucrtd:lcidtoname_downlevel.obj
 0002:0000d178       ??_C@_1O@OJDJGAJC@?$AAs?$AAm?$AAs?$AA?9?$AAf?$AAi@ 0000000140047178     libucrtd:lcidtoname_downlevel.obj
 0002:0000d188       ??_C@_1M@BOFOGHPB@?$AAs?$AAq?$AA?9?$AAa?$AAl@ 0000000140047188     libucrtd:lcidtoname_downlevel.obj
 0002:0000d198       ??_C@_1BG@LJBBIPGB@?$AAs?$AAr?$AA?9?$AAb?$AAa?$AA?9?$AAc?$AAy?$AAr?$AAl@ 0000000140047198     libucrtd:lcidtoname_downlevel.obj
 0002:0000d1b0       ??_C@_1BG@JLBENFOE@?$AAs?$AAr?$AA?9?$AAb?$AAa?$AA?9?$AAl?$AAa?$AAt?$AAn@ 00000001400471b0     libucrtd:lcidtoname_downlevel.obj
 0002:0000d1c8       ??_C@_1BG@KODPNHE@?$AAs?$AAr?$AA?9?$AAs?$AAp?$AA?9?$AAc?$AAy?$AAr?$AAl@ 00000001400471c8     libucrtd:lcidtoname_downlevel.obj
 0002:0000d1e0       ??_C@_1BG@CIOGKHPB@?$AAs?$AAr?$AA?9?$AAs?$AAp?$AA?9?$AAl?$AAa?$AAt?$AAn@ 00000001400471e0     libucrtd:lcidtoname_downlevel.obj
 0002:0000d1f8       ??_C@_1M@NGFJLMAC@?$AAs?$AAv?$AA?9?$AAf?$AAi@ 00000001400471f8     libucrtd:lcidtoname_downlevel.obj
 0002:0000d208       ??_C@_1M@MPJEJAJC@?$AAs?$AAv?$AA?9?$AAs?$AAe@ 0000000140047208     libucrtd:lcidtoname_downlevel.obj
 0002:0000d218       ??_C@_1M@MPNDHLFK@?$AAs?$AAw?$AA?9?$AAk?$AAe@ 0000000140047218     libucrtd:lcidtoname_downlevel.obj
 0002:0000d228       ??_C@_1O@KOHBJJI@?$AAs?$AAy?$AAr?$AA?9?$AAs?$AAy@ 0000000140047228     libucrtd:lcidtoname_downlevel.obj
 0002:0000d238       ??_C@_1M@LDCEFHA@?$AAt?$AAa?$AA?9?$AAi?$AAn@ 0000000140047238     libucrtd:lcidtoname_downlevel.obj
 0002:0000d248       ??_C@_1M@CNJOFAK@?$AAt?$AAe?$AA?9?$AAi?$AAn@ 0000000140047248     libucrtd:lcidtoname_downlevel.obj
 0002:0000d258       ??_C@_1M@GNAECACD@?$AAt?$AAh?$AA?9?$AAt?$AAh@ 0000000140047258     libucrtd:lcidtoname_downlevel.obj
 0002:0000d268       ??_C@_1M@CHBIHOJO@?$AAt?$AAn?$AA?9?$AAz?$AAa@ 0000000140047268     libucrtd:lcidtoname_downlevel.obj
 0002:0000d278       ??_C@_1M@GCCMIGPJ@?$AAt?$AAr?$AA?9?$AAt?$AAr@ 0000000140047278     libucrtd:lcidtoname_downlevel.obj
 0002:0000d288       ??_C@_1M@CELMCNBK@?$AAt?$AAt?$AA?9?$AAr?$AAu@ 0000000140047288     libucrtd:lcidtoname_downlevel.obj
 0002:0000d298       ??_C@_1M@KLMCELGA@?$AAu?$AAk?$AA?9?$AAu?$AAa@ 0000000140047298     libucrtd:lcidtoname_downlevel.obj
 0002:0000d2a8       ??_C@_1M@EPAJJAJF@?$AAu?$AAr?$AA?9?$AAp?$AAk@ 00000001400472a8     libucrtd:lcidtoname_downlevel.obj
 0002:0000d2b8       ??_C@_1BG@GEGPMCDJ@?$AAu?$AAz?$AA?9?$AAu?$AAz?$AA?9?$AAc?$AAy?$AAr?$AAl@ 00000001400472b8     libucrtd:lcidtoname_downlevel.obj
 0002:0000d2d0       ??_C@_1BG@EGGKJILM@?$AAu?$AAz?$AA?9?$AAu?$AAz?$AA?9?$AAl?$AAa?$AAt?$AAn@ 00000001400472d0     libucrtd:lcidtoname_downlevel.obj
 0002:0000d2e8       ??_C@_1M@GFOCLFF@?$AAv?$AAi?$AA?9?$AAv?$AAn@ 00000001400472e8     libucrtd:lcidtoname_downlevel.obj
 0002:0000d2f8       ??_C@_1M@CPAMEDFI@?$AAx?$AAh?$AA?9?$AAz?$AAa@ 00000001400472f8     libucrtd:lcidtoname_downlevel.obj
 0002:0000d308       ??_C@_1O@EBKIFIGN@?$AAz?$AAh?$AA?9?$AAc?$AAh?$AAs@ 0000000140047308     libucrtd:lcidtoname_downlevel.obj
 0002:0000d318       ??_C@_1O@NMHPGANE@?$AAz?$AAh?$AA?9?$AAc?$AAh?$AAt@ 0000000140047318     libucrtd:lcidtoname_downlevel.obj
 0002:0000d328       ??_C@_1M@LPINJOMC@?$AAz?$AAh?$AA?9?$AAc?$AAn@ 0000000140047328     libucrtd:lcidtoname_downlevel.obj
 0002:0000d338       ??_C@_1M@OCJEJODD@?$AAz?$AAh?$AA?9?$AAh?$AAk@ 0000000140047338     libucrtd:lcidtoname_downlevel.obj
 0002:0000d348       ??_C@_1M@DNDLJINH@?$AAz?$AAh?$AA?9?$AAm?$AAo@ 0000000140047348     libucrtd:lcidtoname_downlevel.obj
 0002:0000d358       ??_C@_1M@MBFDNDND@?$AAz?$AAh?$AA?9?$AAs?$AAg@ 0000000140047358     libucrtd:lcidtoname_downlevel.obj
 0002:0000d368       ??_C@_1M@IMEPLEPE@?$AAz?$AAh?$AA?9?$AAt?$AAw@ 0000000140047368     libucrtd:lcidtoname_downlevel.obj
 0002:0000d378       ??_C@_1M@BBGHNHJP@?$AAz?$AAu?$AA?9?$AAz?$AAa@ 0000000140047378     libucrtd:lcidtoname_downlevel.obj
 0002:0000d390       ??_C@_1GA@DEPMKPD@?$AAm?$AAi?$AAn?$AAk?$AAe?$AAr?$AAn?$AAe?$AAl?$AA?2?$AAc?$AAr?$AAt?$AAs?$AA?2@ 0000000140047390     libucrtd:isatty.obj
 0002:0000d3f0       ??_C@_1BA@LEBDGIHM@?$AA_?$AAi?$AAs?$AAa?$AAt?$AAt?$AAy@ 00000001400473f0     libucrtd:isatty.obj
 0002:0000d400       ??_C@_1BK@FPAMLIDG@?$AAs?$AA?5?$AA?$CB?$AA?$DN?$AA?5?$AAn?$AAu?$AAl?$AAl?$AAp?$AAt?$AAr@ 0000000140047400     libucrtd:mbstowcs.obj
 0002:0000d420       ??_C@_1GI@KABMHNPH@?$AAm?$AAi?$AAn?$AAk?$AAe?$AAr?$AAn?$AAe?$AAl?$AA?2?$AAc?$AAr?$AAt?$AAs?$AA?2@ 0000000140047420     libucrtd:mbstowcs.obj
 0002:0000d488       ??_C@_1CG@JEHFHLNG@?$AA_?$AAm?$AAb?$AAs?$AAt?$AAo?$AAw?$AAc?$AAs?$AA_?$AAl?$AA_?$AAh?$AAe?$AAl@ 0000000140047488     libucrtd:mbstowcs.obj
 0002:0000d4b0       ??_C@_1JM@MEKBACIG@?$AA?$CI?$AAp?$AAw?$AAc?$AAs?$AA?5?$AA?$DN?$AA?$DN?$AA?5?$AAn?$AAu?$AAl?$AAl?$AAp?$AAt@ 00000001400474b0     libucrtd:mbstowcs.obj
 0002:0000d550       ??_C@_1BM@PHENIGHD@?$AA_?$AAm?$AAb?$AAs?$AAt?$AAo?$AAw?$AAc?$AAs?$AA_?$AAs?$AA_?$AAl@ 0000000140047550     libucrtd:mbstowcs.obj
 0002:0000d570       ??_C@_1CM@LLECFMFH@?$AAb?$AAu?$AAf?$AAf?$AAe?$AAr?$AAS?$AAi?$AAz?$AAe?$AA?5?$AA?$DM?$AA?$DN?$AA?5?$AAI@ 0000000140047570     libucrtd:mbstowcs.obj
 0002:0000d5a0       ??_C@_1CO@JNPEPJAL@?$AAr?$AAe?$AAt?$AAs?$AAi?$AAz?$AAe?$AA?5?$AA?$DM?$AA?$DN?$AA?5?$AAs?$AAi?$AAz?$AAe@ 00000001400475a0     libucrtd:mbstowcs.obj
 0002:0000d5f8       ??_C@_1CA@NOKNKDIG@?$AAp?$AAw?$AAc?$AAs?$AA?5?$AA?$CB?$AA?$DN?$AA?5?$AAn?$AAu?$AAl?$AAl?$AAp?$AAt?$AAr@ 00000001400475f8     libucrtd:wcstombs.obj
 0002:0000d620       ??_C@_1GI@EEJDEALP@?$AAm?$AAi?$AAn?$AAk?$AAe?$AAr?$AAn?$AAe?$AAl?$AA?2?$AAc?$AAr?$AAt?$AAs?$AA?2@ 0000000140047620     libucrtd:wcstombs.obj
 0002:0000d688       ??_C@_1CG@LLJCAOHF@?$AA_?$AAw?$AAc?$AAs?$AAt?$AAo?$AAm?$AAb?$AAs?$AA_?$AAl?$AA_?$AAh?$AAe?$AAl@ 0000000140047688     libucrtd:wcstombs.obj
 0002:0000d6b0       ??_C@_1JI@DFNKFCLG@?$AA?$CI?$AAd?$AAs?$AAt?$AA?5?$AA?$CB?$AA?$DN?$AA?5?$AAn?$AAu?$AAl?$AAl?$AAp?$AAt?$AAr@ 00000001400476b0     libucrtd:wcstombs.obj
 0002:0000d748       ??_C@_1BM@BDMCLLDL@?$AA_?$AAw?$AAc?$AAs?$AAt?$AAo?$AAm?$AAb?$AAs?$AA_?$AAs?$AA_?$AAl@ 0000000140047748     libucrtd:wcstombs.obj
 0002:0000d768       ??_C@_1CM@KEOGBFLI@?$AAs?$AAi?$AAz?$AAe?$AAI?$AAn?$AAB?$AAy?$AAt?$AAe?$AAs?$AA?5?$AA?$DO?$AA?5?$AAr@ 0000000140047768     libucrtd:wcstombs.obj
 0002:0000d7a0       ??_C@_1GG@MCCIENJO@?$AAm?$AAi?$AAn?$AAk?$AAe?$AAr?$AAn?$AAe?$AAl?$AA?2?$AAc?$AAr?$AAt?$AAs?$AA?2@ 00000001400477a0     libucrtd:mbrtowc.obj
 0002:0000d810       ??_C@_1EK@MCEFBPIK@?$AAr?$AAe?$AAt?$AAv?$AAa?$AAl?$AA?5?$AA?$CB?$AA?$DN?$AA?5?$AA_?$AA_?$AAc?$AAr?$AAt@ 0000000140047810     libucrtd:mbrtowc.obj
 0002:0000d860       ??_C@_1EK@OANGPA@?$AA1?$AA?5?$AA?$DM?$AA?$DN?$AA?5?$AAt?$AAr?$AAa?$AAi?$AAl?$AA_?$AAb?$AAy?$AAt?$AAe@ 0000000140047860     libucrtd:c32rtomb.obj
 0002:0000d8b0       ??_C@_1GI@FBFKMNDD@?$AAm?$AAi?$AAn?$AAk?$AAe?$AAr?$AAn?$AAe?$AAl?$AA?2?$AAc?$AAr?$AAt?$AAs?$AA?2@ 00000001400478b0     libucrtd:c32rtomb.obj
 0002:0000d920       ??_C@_1EA@DDDCIHI@?$AAc?$AA3?$AA2?$AA?5?$AA?$DM?$AA?5?$AA?$CI?$AA1?$AAu?$AA?5?$AA?$DM?$AA?$DM?$AA?5?$AA?$CI?$AA7@ 0000000140047920     libucrtd:c32rtomb.obj
 0002:0000d960       ??_C@_1GI@IMEEHIAK@?$AAm?$AAi?$AAn?$AAk?$AAe?$AAr?$AAn?$AAe?$AAl?$AA?2?$AAc?$AAr?$AAt?$AAs?$AA?2@ 0000000140047960     libucrtd:_fptostr.obj
 0002:0000d9c8       ??_C@_1DG@NMGBKPMI@?$AA_?$AA_?$AAa?$AAc?$AAr?$AAt?$AA_?$AAf?$AAp?$AA_?$AAs?$AAt?$AAr?$AAf?$AAl@ 00000001400479c8     libucrtd:_fptostr.obj
 0002:0000da00       ??_C@_1IE@EAOKIIFP@?$AAb?$AAu?$AAf?$AAf?$AAe?$AAr?$AA_?$AAc?$AAo?$AAu?$AAn?$AAt?$AA?5?$AA?$DO?$AA?5@ 0000000140047a00     libucrtd:_fptostr.obj
 0002:0000da88       ??_C@_1CA@EDEEBMBB@?$AAp?$AAf?$AAl?$AAt?$AA?5?$AA?$CB?$AA?$DN?$AA?5?$AAn?$AAu?$AAl?$AAl?$AAp?$AAt?$AAr@ 0000000140047a88     libucrtd:_fptostr.obj
 0002:0000dab0       ?large_power_data@?1??multiply_by_power_of_ten@__crt_strtox@@YA_NAEAUbig_integer@2@I@Z@4QBIB 0000000140047ab0     libucrtd:cfout.obj
 0002:0000e3c0       ?large_power_indices@?1??multiply_by_power_of_ten@__crt_strtox@@YA_NAEAUbig_integer@2@I@Z@4QBUunpack_index@?1??12@YA_N0I@Z@B 00000001400483c0     libucrtd:cfout.obj
 0002:0000e458       ?small_powers_of_ten@?1??multiply_by_power_of_ten@__crt_strtox@@YA_NAEAUbig_integer@2@I@Z@4QBIB 0000000140048458     libucrtd:cfout.obj
 0002:0000e480       ??_C@_1DI@GICAMMFM@?$AA?$CI?$AA?$CC?$AAD?$AAi?$AAv?$AAi?$AAs?$AAi?$AAo?$AAn?$AA?5?$AAb?$AAy?$AA?5?$AAz@ 0000000140048480     libucrtd:cfout.obj
 0002:0000e4c0       ??_C@_1GO@BFGDDONN@?$AAm?$AAi?$AAn?$AAk?$AAe?$AAr?$AAn?$AAe?$AAl?$AA?2?$AAc?$AAr?$AAt?$AAs?$AA?2@ 00000001400484c0     libucrtd:cfout.obj
 0002:0000e530       ??_C@_1GC@DDAKNBNC@?$AAm?$AAi?$AAn?$AAk?$AAe?$AAr?$AAn?$AAe?$AAl?$AA?2?$AAc?$AAr?$AAt?$AAs?$AA?2@ 0000000140048530     libucrtd:cfout.obj
 0002:0000e598       ??_C@_1BM@FAAOAKKO@?$AA_?$AA_?$AAa?$AAc?$AAr?$AAt?$AA_?$AAf?$AAl?$AAt?$AAo?$AAu?$AAt@ 0000000140048598     libucrtd:cfout.obj
 0002:0000e5c0       ??_C@_1EI@OACEJKEP@?$AAs?$AAt?$AAr?$AAc?$AAp?$AAy?$AA_?$AAs?$AA?$CI?$AAr?$AAe?$AAs?$AAu?$AAl?$AAt@ 00000001400485c0     libucrtd:cfout.obj
 0002:0000e608       ??_C@_01GBGANLPD@0@        0000000140048608     libucrtd:cfout.obj
 0002:0000e610       ??_C@_1FC@KIECGFMP@?$AAs?$AAt?$AAr?$AAc?$AAp?$AAy?$AA_?$AAs?$AA?$CI?$AAr?$AAe?$AAs?$AAu?$AAl?$AAt@ 0000000140048610     libucrtd:cfout.obj
 0002:0000e664       ??_C@_05DNEBIAHO@1?$CDINF@ 0000000140048664     libucrtd:cfout.obj
 0002:0000e670       ??_C@_1FC@NFPJEIBD@?$AAs?$AAt?$AAr?$AAc?$AAp?$AAy?$AA_?$AAs?$AA?$CI?$AAr?$AAe?$AAs?$AAu?$AAl?$AAt@ 0000000140048670     libucrtd:cfout.obj
 0002:0000e6c4       ??_C@_06IMKFLFPG@1?$CDQNAN@ 00000001400486c4     libucrtd:cfout.obj
 0002:0000e6d0       ??_C@_1FC@DEJHIMLO@?$AAs?$AAt?$AAr?$AAc?$AAp?$AAy?$AA_?$AAs?$AA?$CI?$AAr?$AAe?$AAs?$AAu?$AAl?$AAt@ 00000001400486d0     libucrtd:cfout.obj
 0002:0000e724       ??_C@_06PGGFOGJG@1?$CDSNAN@ 0000000140048724     libucrtd:cfout.obj
 0002:0000e730       ??_C@_1FC@KMLHLFPC@?$AAs?$AAt?$AAr?$AAc?$AAp?$AAy?$AA_?$AAs?$AA?$CI?$AAr?$AAe?$AAs?$AAu?$AAl?$AAt@ 0000000140048730     libucrtd:cfout.obj
 0002:0000e784       ??_C@_05PHHOCPM@1?$CDIND@  0000000140048784     libucrtd:cfout.obj
 0002:0000e790       ??_C@_1DE@KHKADFOO@?$AAm?$AAa?$AAn?$AAt?$AAi?$AAs?$AAs?$AAa?$AA_?$AAb?$AAu?$AAf?$AAf?$AAe?$AAr@ 0000000140048790     libucrtd:cfout.obj
 0002:0000e7d0       ??_C@_1FI@LFKLOPAC@?$AA?$CI?$AA?$CC?$AAu?$AAn?$AAe?$AAx?$AAp?$AAe?$AAc?$AAt?$AAe?$AAd?$AA?5?$AAi?$AAn@ 00000001400487d0     libucrtd:cfout.obj
 0002:0000e830       ??_C@_1FG@MLHBDPBG@?$AAq?$AAu?$AAo?$AAt?$AAi?$AAe?$AAn?$AAt?$AA?5?$AA?$DM?$AA?5?$AAd?$AAi?$AAg?$AAi@ 0000000140048830     libucrtd:cfout.obj
 0002:0000e890       ??_C@_1GE@GPOPIOIG@?$AAm?$AAi?$AAn?$AAk?$AAe?$AAr?$AAn?$AAe?$AAl?$AA?2?$AAc?$AAr?$AAt?$AAs?$AA?2@ 0000000140048890     libucrtd:_freebuf.obj
 0002:0000e900       ??_C@_1GA@MPOOLHCO@?$AAm?$AAi?$AAn?$AAk?$AAe?$AAr?$AAn?$AAe?$AAl?$AA?2?$AAc?$AAr?$AAt?$AAs?$AA?2@ 0000000140048900     libucrtd:commit.obj
 0002:0000e960       ??_C@_1BA@FLNMBBIM@?$AA_?$AAc?$AAo?$AAm?$AAm?$AAi?$AAt@ 0000000140048960     libucrtd:commit.obj
 0002:0000e970       ??_C@_1FO@CAMPMGCN@?$AAm?$AAi?$AAn?$AAk?$AAe?$AAr?$AAn?$AAe?$AAl?$AA?2?$AAc?$AAr?$AAt?$AAs?$AA?2@ 0000000140048970     libucrtd:write.obj
 0002:0000e9d0       ??_C@_1O@KOFKDHPL@?$AA_?$AAw?$AAr?$AAi?$AAt?$AAe@ 00000001400489d0     libucrtd:write.obj
 0002:0000e9e0       ??_C@_1CK@MMEFCHHN@?$AA?$CB?$AA_?$AAd?$AAb?$AAc?$AAs?$AAB?$AAu?$AAf?$AAf?$AAe?$AAr?$AAU?$AAs?$AAe@ 00000001400489e0     libucrtd:write.obj
 0002:0000ea10       ??_C@_1EG@LICJGLJJ@?$AA1?$AA?5?$AA?$DM?$AA?5?$AAm?$AAb?$AA_?$AAl?$AAe?$AAn?$AA?5?$AA?$CG?$AA?$CG?$AA?5?$AAm@ 0000000140048a10     libucrtd:write.obj
 0002:0000ea60       ??_C@_1FC@NFILPJB@?$AAm?$AAb?$AA_?$AAb?$AAu?$AAf?$AA_?$AAu?$AAs?$AAe?$AAd?$AA?5?$AA?$CL?$AA?5?$AAb@ 0000000140048a60     libucrtd:write.obj
 0002:0000eac0       ??_C@_1FC@HEJOPHLA@?$AAa?$AAv?$AAa?$AAi?$AAl?$AAa?$AAb?$AAl?$AAe?$AA_?$AAb?$AAy?$AAt?$AAe?$AAs@ 0000000140048ac0     libucrtd:write.obj
 0002:0000eb18       ??_C@_1DI@CNMHHHLG@?$AAi?$AAs?$AAl?$AAe?$AAa?$AAd?$AAb?$AAy?$AAt?$AAe?$AA?$CI?$AA_?$AAd?$AAb?$AAc@ 0000000140048b18     libucrtd:write.obj
 0002:0000eb50       ??_C@_1BM@NCANHCIP@?$AA_?$AAw?$AAr?$AAi?$AAt?$AAe?$AA_?$AAn?$AAo?$AAl?$AAo?$AAc?$AAk@ 0000000140048b50     libucrtd:write.obj
 0002:0000eb70       ??_C@_1CK@CPEAGIIP@?$AAb?$AAu?$AAf?$AAf?$AAe?$AAr?$AA_?$AAs?$AAi?$AAz?$AAe?$AA?5?$AA?$CF?$AA?5?$AA2@ 0000000140048b70     libucrtd:write.obj
 0002:0000edf0       __real@3ff0000000000000    0000000140048df0     libucrtd:ceil.obj
 0002:0000edf8       ??_C@_1DG@JNDMIEJL@?$AA?$CI?$AA?$CC?$AAI?$AAn?$AAv?$AAa?$AAl?$AAi?$AAd?$AA?5?$AAi?$AAn?$AAp?$AAu?$AAt@ 0000000140048df8     libucrtd:contrlfp.obj
 0002:0000ee30       ??_C@_1FO@HHLKCIKB@?$AAm?$AAi?$AAn?$AAk?$AAe?$AAr?$AAn?$AAe?$AAl?$AA?2?$AAc?$AAr?$AAt?$AAs?$AA?2@ 0000000140048e30     libucrtd:contrlfp.obj
 0002:0000ee90       ??_C@_1BK@CDOALEA@?$AA_?$AAc?$AAo?$AAn?$AAt?$AAr?$AAo?$AAl?$AAf?$AAp?$AA_?$AAs@ 0000000140048e90     libucrtd:contrlfp.obj
 0002:0000eeb0       ??_C@_1FO@KIIHJNFN@?$AAm?$AAi?$AAn?$AAk?$AAe?$AAr?$AAn?$AAe?$AAl?$AA?2?$AAc?$AAr?$AAt?$AAs?$AA?2@ 0000000140048eb0     libucrtd:lseek.obj
 0002:0000ef10       ??_C@_1DM@LMLOLGJ@?$AA?$CI?$AA?$CC?$AAI?$AAn?$AAv?$AAa?$AAl?$AAi?$AAd?$AA?5?$AAf?$AAi?$AAl?$AAe?$AA?5@ 0000000140048f10     libucrtd:lseek.obj
 0002:0000ef50       ??_C@_1GA@DKNOMDCL@?$AAm?$AAi?$AAn?$AAk?$AAe?$AAr?$AAn?$AAe?$AAl?$AA?2?$AAc?$AAr?$AAt?$AAs?$AA?2@ 0000000140048f50     libucrtd:fclose.obj
 0002:0000efb0       ??_C@_1O@EGMJNCOI@?$AAf?$AAc?$AAl?$AAo?$AAs?$AAe@ 0000000140048fb0     libucrtd:fclose.obj
 0002:0000efc0       ??_C@_1BO@JINCABEC@?$AA_?$AAf?$AAc?$AAl?$AAo?$AAs?$AAe?$AA_?$AAn?$AAo?$AAl?$AAo?$AAc?$AAk@ 0000000140048fc0     libucrtd:fclose.obj
 0002:0000efe0       __log10_256_lead           0000000140048fe0     libucrtd:log10_256_lead_tail_table.obj
 0002:0000f7f0       __log10_256_tail           00000001400497f0     libucrtd:log10_256_lead_tail_table.obj
 0002:00010000       __log_F_inv_qword          000000014004a000     libucrtd:log_f_inv_qword_table.obj
 0002:00010810       ??_C@_05HGHHAHAP@log10@    000000014004a810     libucrtd:log_special.obj
 0002:00010820       ??_C@_1EK@PDBKILLM@?$AA?$CI?$AAm?$AAa?$AAs?$AAk?$AA?$CG?$AA?$HO?$AA?$CI?$AA_?$AAM?$AAC?$AAW?$AA_?$AAD?$AAN@ 000000014004a820     libucrtd:ieee.obj
 0002:00010870       ??_C@_1GC@IEFABLII@?$AAm?$AAi?$AAn?$AAk?$AAe?$AAr?$AAn?$AAe?$AAl?$AA?2?$AAc?$AAr?$AAt?$AAs?$AA?2@ 000000014004a870     libucrtd:ieee.obj
 0002:000108e0       ??_C@_1FO@IPDGALOE@?$AAm?$AAi?$AAn?$AAk?$AAe?$AAr?$AAn?$AAe?$AAl?$AA?2?$AAc?$AAr?$AAt?$AAs?$AA?2@ 000000014004a8e0     libucrtd:close.obj
 0002:00010940       ??_C@_1O@EDEJGJBM@?$AA_?$AAc?$AAl?$AAo?$AAs?$AAe@ 000000014004a940     libucrtd:close.obj
 0002:00010950       ??_C@_1BA@BALFACEM@?$AAC?$AAO?$AAN?$AAO?$AAU?$AAT?$AA$@ 000000014004a950     libucrtd:initcon.obj
 0002:00010978       ??_7type_info@@6B@         000000014004a978     LIBCMTD:std_type_info_static.obj
 0002:000109e0       _load_config_used          000000014004a9e0     LIBCMTD:loadcfg.obj
 0002:00010ae0       ??_R4exception@std@@6B@    000000014004aae0     libvcruntimed:frame.obj
 0002:00010b08       ??_R3exception@std@@8      000000014004ab08     libvcruntimed:frame.obj
 0002:00010b20       ??_R2exception@std@@8      000000014004ab20     libvcruntimed:frame.obj
 0002:00010b30       ??_R1A@?0A@EA@exception@std@@8 000000014004ab30     libvcruntimed:frame.obj
 0002:00010b58       ??_R4bad_exception@std@@6B@ 000000014004ab58     libvcruntimed:frame.obj
 0002:00010b80       ??_R3bad_exception@std@@8  000000014004ab80     libvcruntimed:frame.obj
 0002:00010b98       ??_R2bad_exception@std@@8  000000014004ab98     libvcruntimed:frame.obj
 0002:00010bb0       ??_R1A@?0A@EA@bad_exception@std@@8 000000014004abb0     libvcruntimed:frame.obj
 0002:00010bd8       ??_R4type_info@@6B@        000000014004abd8     LIBCMTD:std_type_info_static.obj
 0002:00010c00       ??_R3type_info@@8          000000014004ac00     LIBCMTD:std_type_info_static.obj
 0002:00010c18       ??_R2type_info@@8          000000014004ac18     LIBCMTD:std_type_info_static.obj
 0002:00010c28       ??_R1A@?0A@EA@type_info@@8 000000014004ac28     LIBCMTD:std_type_info_static.obj
 0002:00010f60       __rtc_iaa                  000000014004af60     LIBCMTD:initsect.obj
 0002:00010f68       __rtc_izz                  000000014004af68     LIBCMTD:initsect.obj
 0002:00010f70       __rtc_taa                  000000014004af70     LIBCMTD:initsect.obj
 0002:00010f78       __rtc_tzz                  000000014004af78     LIBCMTD:initsect.obj
 0002:00012010       _TI2?AVbad_exception@std@@ 000000014004c010     libvcruntimed:frame.obj
 0002:00012030       _CTA2?AVbad_exception@std@@ 000000014004c030     libvcruntimed:frame.obj
 0002:00012048       _CT??_R0?AVbad_exception@std@@@8??0bad_exception@std@@QEAA@AEBV01@@Z24 000000014004c048     libvcruntimed:frame.obj
 0002:00012070       _CT??_R0?AVexception@std@@@8??0exception@std@@QEAA@AEBV01@@Z24 000000014004c070     libvcruntimed:frame.obj
 0002:00012094       __IMPORT_DESCRIPTOR_USER32 000000014004c094     user32:USER32.dll
 0002:000120a8       __IMPORT_DESCRIPTOR_KERNEL32 000000014004c0a8     kernel32:KERNEL32.dll
 0002:000120bc       __NULL_IMPORT_DESCRIPTOR   000000014004c0bc     user32:USER32.dll
 0003:00000000       __security_cookie_complement 000000014004d000     LIBCMTD:gs_cookie.obj
 0003:00000008       __security_cookie          000000014004d008     LIBCMTD:gs_cookie.obj
 0003:00000010       _fltused                   000000014004d010     LIBCMTD:fltused.obj
 0003:00000014       __scrt_native_dllmain_reason 000000014004d014     LIBCMTD:utility.obj
 0003:00000018       __scrt_default_matherr     000000014004d018     LIBCMTD:matherr.obj
 0003:00000020       __isa_available            000000014004d020     LIBCMTD:cpu_disp.obj
 0003:00000024       __isa_enabled              000000014004d024     LIBCMTD:cpu_disp.obj
 0003:00000028       __memcpy_nt_iters          000000014004d028     LIBCMTD:cpu_disp.obj
 0003:00000044       _crtDbgFlag                000000014004d044     libucrtd:debug_heap.obj
 0003:00000048       _crtBreakAlloc             000000014004d048     libucrtd:debug_heap.obj
 0003:00000050       __abort_behavior           000000014004d050     libucrtd:abort.obj
 0003:00000070       __acrt_initial_multibyte_data 000000014004d070     libucrtd:mbctype.obj
 0003:000005b0       __acrt_initial_locale_data 000000014004d5b0     libucrtd:nlsdata.obj
 0003:00000708       __acrt_initial_locale_pointers 000000014004d708     libucrtd:nlsdata.obj
 0003:00000718       __acrt_wide_c_locale_string 000000014004d718     libucrtd:nlsdata.obj
 0003:00000720       _pwctype                   000000014004d720     libucrtd:ctype.obj
 0003:00000730       __acrt_lconv_c             000000014004d730     libucrtd:localeconv.obj
 0003:000007c8       __acrt_lconv_static_decimal 000000014004d7c8     libucrtd:localeconv.obj
 0003:000007cc       __acrt_lconv_static_W_decimal 000000014004d7cc     libucrtd:localeconv.obj
 0003:000007d0       __globallocalestatus       000000014004d7d0     libucrtd:glstatus.obj
 0003:000007d8       _pfnAllocHook              000000014004d7d8     libucrtd:debug_heap_hook.obj
 0003:000007e8       _CrtDbgMode                000000014004d7e8     libucrtd:dbgrptt.obj
 0003:000007f8       _CrtDbgFile                000000014004d7f8     libucrtd:dbgrptt.obj
 0003:00000810       _crtAssertBusy             000000014004d810     libucrtd:dbgrptt.obj
 0003:00000820       _iob                       000000014004d820     libucrtd:_file.obj
 0003:00000930       _lookuptrailbytes          000000014004d930     libucrtd:read.obj
 0003:00000a50       ??_R0?AVbad_exception@std@@@8 000000014004da50     libvcruntimed:frame.obj
 0003:00000a78       ??_R0?AVexception@std@@@8  000000014004da78     libvcruntimed:frame.obj
 0003:00000aa0       ??_R0?AVtype_info@@@8      000000014004daa0     LIBCMTD:std_type_info_static.obj
 0003:000010c0       __scrt_current_native_startup_state 000000014004e0c0     LIBCMTD:utility.obj
 0003:000010c8       __scrt_native_startup_lock 000000014004e0c8     LIBCMTD:utility.obj
 0003:00001110       ?__type_info_root_node@@3U__type_info_node@@A 000000014004e110     LIBCMTD:tncleanup.obj
 0003:00001120       ?_OptionsStorage@?1??__local_stdio_printf_options@@9@4_KA 000000014004e120     LIBCMTD:default_local_stdio_options.obj
 0003:00001128       ?_OptionsStorage@?1??__local_stdio_scanf_options@@9@4_KA 000000014004e128     LIBCMTD:default_local_stdio_options.obj
 0003:00001130       __scrt_debugger_hook_flag  000000014004e130     LIBCMTD:utility_desktop.obj
 0003:00001134       __favor                    000000014004e134     LIBCMTD:cpu_disp.obj
 0003:00001138       ?__WinRTOutOfMemoryExceptionCallback@@3P6APEAXXZEA 000000014004e138     libvcruntimed:ehhelpers.obj
 0003:00001240       __pPurecall                000000014004e240     libvcruntimed:purevirt_data.obj
 0003:00001248       ?pArgList@UnDecorator@@0PEAVReplicator@@EA 000000014004e248     libvcruntimed:undname.obj
 0003:00001250       ?pZNameList@UnDecorator@@0PEAVReplicator@@EA 000000014004e250     libvcruntimed:undname.obj
 0003:00001258       ?pTemplateArgList@UnDecorator@@0PEAVReplicator@@EA 000000014004e258     libvcruntimed:undname.obj
 0003:00001260       ?gName@UnDecorator@@0PEBDEB 000000014004e260     libvcruntimed:undname.obj
 0003:00001268       ?name@UnDecorator@@0PEBDEB 000000014004e268     libvcruntimed:undname.obj
 0003:00001270       ?disableFlags@UnDecorator@@0KA 000000014004e270     libvcruntimed:undname.obj
 0003:00001274       ?fExplicitTemplateParams@UnDecorator@@0_NA 000000014004e274     libvcruntimed:undname.obj
 0003:00001275       ?fGetTemplateArgumentList@UnDecorator@@0_NA 000000014004e275     libvcruntimed:undname.obj
 0003:00001278       ?m_pGetParameter@UnDecorator@@0P6APEADJ@ZEA 000000014004e278     libvcruntimed:undname.obj
 0003:00001280       ?m_CHPENameOffset@UnDecorator@@0KA 000000014004e280     libvcruntimed:undname.obj
 0003:00001284       ?m_recursionLevel@UnDecorator@@0KA 000000014004e284     libvcruntimed:undname.obj
 0003:000019f8       _environ_table             000000014004e9f8     libucrtd:environment_initialization.obj
 0003:00001a00       _wenviron_table            000000014004ea00     libucrtd:environment_initialization.obj
 0003:00001a08       __dcrt_initial_wide_environment 000000014004ea08     libucrtd:environment_initialization.obj
 0003:00001a10       __dcrt_initial_narrow_environment 000000014004ea10     libucrtd:environment_initialization.obj
 0003:00001a28       ?c_exit_complete@?1???R<lambda_6e4b09c48022b2350581041d5f6b0c4c>@@QEBA@XZ@4_NA 000000014004ea28     libucrtd:exit.obj
 0003:00001a2c       __acrt_locale_changed_data 000000014004ea2c     libucrtd:wsetlocale.obj
 0003:00001a34       _commode                   000000014004ea34     libucrtd:ncommode.obj
 0003:00001a38       __acrt_atexit_table        000000014004ea38     libucrtd:onexit.obj
 0003:00001a50       __acrt_at_quick_exit_table 000000014004ea50     libucrtd:onexit.obj
 0003:00001a98       _pfnDumpClient             000000014004ea98     libucrtd:debug_heap.obj
 0003:00001ab8       _mbctype                   000000014004eab8     libucrtd:mbctype.obj
 0003:00001ac0       _mbcasemap                 000000014004eac0     libucrtd:mbctype.obj
 0003:00001ac8       __acrt_current_multibyte_data 000000014004eac8     libucrtd:mbctype.obj
 0003:00001ad8       _pgmptr                    000000014004ead8     libucrtd:argv_data.obj
 0003:00001ae0       __argc                     000000014004eae0     libucrtd:argv_data.obj
 0003:00001ae8       __argv                     000000014004eae8     libucrtd:argv_data.obj
 0003:00001af0       __wargv                    000000014004eaf0     libucrtd:argv_data.obj
 0003:00001af8       _acmdln                    000000014004eaf8     libucrtd:argv_data.obj
 0003:00001b00       _wcmdln                    000000014004eb00     libucrtd:argv_data.obj
 0003:00001d4c       _fmode                     000000014004ed4c     libucrtd:txtmode.obj
 0003:00001d50       __pioinfo                  000000014004ed50     libucrtd:ioinit.obj
 0003:00002150       _nhandle                   000000014004f150     libucrtd:ioinit.obj
 0003:00002158       __acrt_current_locale_data 000000014004f158     libucrtd:nlsdata.obj
 0003:00002310       __acrt_lconv_static_null   000000014004f310     libucrtd:localeconv.obj
 0003:00002314       __acrt_lconv_static_W_null 000000014004f314     libucrtd:localeconv.obj
 0003:00002318       __acrt_heap                000000014004f318     libucrtd:heap_handle.obj
 0003:00002348       __acrt_stdout_buffer       000000014004f348     libucrtd:_sftbuf.obj
 0003:00002350       __acrt_stderr_buffer       000000014004f350     libucrtd:_sftbuf.obj
 0003:00002358       _pfnReportHook             000000014004f358     libucrtd:dbgrptt.obj
 0003:00002360       _pReportHookList           000000014004f360     libucrtd:dbgrptt.obj
 0003:00002368       _pReportHookListW          000000014004f368     libucrtd:dbgrptt.obj
 0003:00002378       _nstream                   000000014004f378     libucrtd:_file.obj
 0003:00002380       __piob                     000000014004f380     libucrtd:_file.obj
 0003:000023a0       __fma3_is_available        000000014004f3a0     libucrtd:fma3_available.obj
 0003:000023a4       __use_fma3_lib             000000014004f3a4     libucrtd:fma3_available.obj
 0003:000023a8       __scrt_ucrt_dll_is_in_use  000000014004f3a8     <common>
 0003:000023b0       __dyn_tls_dtor_callback    000000014004f3b0     <common>
 0003:000023b8       __dyn_tls_init_callback    000000014004f3b8     <common>

 entry point at        0001:00000e70

 Static symbols

 0000:fffac000       .debug$S                   0000000140000000     kernel32:KERNEL32.dll
 0000:fffac000       .debug$S                   0000000140000000     kernel32:KERNEL32.dll
 0000:fffac000       .debug$S                   0000000140000000     user32:USER32.dll
 0000:fffac000       .debug$S                   0000000140000000     kernel32:KERNEL32.dll
 0000:fffac000       .debug$S                   0000000140000000     user32:USER32.dll
 0000:fffac000       .debug$S                   0000000140000000     kernel32:KERNEL32.dll
 0000:fffac000       .debug$S                   0000000140000000     kernel32:KERNEL32.dll
 0000:fffac000       .debug$S                   0000000140000000     kernel32:KERNEL32.dll
 0000:fffac000       .debug$S                   0000000140000000     kernel32:KERNEL32.dll
 0000:fffac000       .debug$S                   0000000140000000     kernel32:KERNEL32.dll
 0000:fffac000       .debug$S                   0000000140000000     kernel32:KERNEL32.dll
 0000:fffac000       .debug$S                   0000000140000000     kernel32:KERNEL32.dll
 0000:fffac000       .debug$S                   0000000140000000     kernel32:KERNEL32.dll
 0000:fffac000       .debug$S                   0000000140000000     kernel32:KERNEL32.dll
 0000:fffac000       .debug$S                   0000000140000000     kernel32:KERNEL32.dll
 0000:fffac000       .debug$S                   0000000140000000     kernel32:KERNEL32.dll
 0000:fffac000       .debug$S                   0000000140000000     kernel32:KERNEL32.dll
 0000:fffac000       .debug$S                   0000000140000000     kernel32:KERNEL32.dll
 0000:fffac000       .debug$S                   0000000140000000     kernel32:KERNEL32.dll
 0000:fffac000       .debug$S                   0000000140000000     kernel32:KERNEL32.dll
 0000:fffac000       .debug$S                   0000000140000000     kernel32:KERNEL32.dll
 0000:fffac000       .debug$S                   0000000140000000     kernel32:KERNEL32.dll
 0000:fffac000       .debug$S                   0000000140000000     kernel32:KERNEL32.dll
 0000:fffac000       .debug$S                   0000000140000000     kernel32:KERNEL32.dll
 0000:fffac000       .debug$S                   0000000140000000     kernel32:KERNEL32.dll
 0000:fffac000       .debug$S                   0000000140000000     kernel32:KERNEL32.dll
 0000:fffac000       .debug$S                   0000000140000000     kernel32:KERNEL32.dll
 0000:fffac000       .debug$S                   0000000140000000     kernel32:KERNEL32.dll
 0000:fffac000       .debug$S                   0000000140000000     kernel32:KERNEL32.dll
 0000:fffac000       .debug$S                   0000000140000000     kernel32:KERNEL32.dll
 0000:fffac000       .debug$S                   0000000140000000     kernel32:KERNEL32.dll
 0000:fffac000       .debug$S                   0000000140000000     kernel32:KERNEL32.dll
 0000:fffac000       .debug$S                   0000000140000000     kernel32:KERNEL32.dll
 0000:fffac000       .debug$S                   0000000140000000     kernel32:KERNEL32.dll
 0000:fffac000       .debug$S                   0000000140000000     kernel32:KERNEL32.dll
 0000:fffac000       .debug$S                   0000000140000000     kernel32:KERNEL32.dll
 0000:fffac000       .debug$S                   0000000140000000     kernel32:KERNEL32.dll
 0000:fffac000       .debug$S                   0000000140000000     kernel32:KERNEL32.dll
 0000:fffac000       .debug$S                   0000000140000000     kernel32:KERNEL32.dll
 0000:fffac000       .debug$S                   0000000140000000     kernel32:KERNEL32.dll
 0000:fffac000       .debug$S                   0000000140000000     kernel32:KERNEL32.dll
 0000:fffac000       .debug$S                   0000000140000000     kernel32:KERNEL32.dll
 0000:fffac000       .debug$S                   0000000140000000     kernel32:KERNEL32.dll
 0000:fffac000       .debug$S                   0000000140000000     kernel32:KERNEL32.dll
 0000:fffac000       .debug$S                   0000000140000000     kernel32:KERNEL32.dll
 0000:fffac000       .debug$S                   0000000140000000     kernel32:KERNEL32.dll
 0000:fffac000       .debug$S                   0000000140000000     kernel32:KERNEL32.dll
 0000:fffac000       .debug$S                   0000000140000000     kernel32:KERNEL32.dll
 0000:fffac000       .debug$S                   0000000140000000     kernel32:KERNEL32.dll
 0000:fffac000       .debug$S                   0000000140000000     kernel32:KERNEL32.dll
 0000:fffac000       .debug$S                   0000000140000000     kernel32:KERNEL32.dll
 0000:fffac000       .debug$S                   0000000140000000     kernel32:KERNEL32.dll
 0000:fffac000       .debug$S                   0000000140000000     kernel32:KERNEL32.dll
 0000:fffac000       .debug$S                   0000000140000000     kernel32:KERNEL32.dll
 0000:fffac000       .debug$S                   0000000140000000     kernel32:KERNEL32.dll
 0000:fffac000       .debug$S                   0000000140000000     kernel32:KERNEL32.dll
 0000:fffac000       .debug$S                   0000000140000000     kernel32:KERNEL32.dll
 0000:fffac000       .debug$S                   0000000140000000     kernel32:KERNEL32.dll
 0000:fffac000       .debug$S                   0000000140000000     kernel32:KERNEL32.dll
 0000:fffac000       .debug$S                   0000000140000000     kernel32:KERNEL32.dll
 0000:fffac000       .debug$S                   0000000140000000     kernel32:KERNEL32.dll
 0000:fffac000       .debug$S                   0000000140000000     kernel32:KERNEL32.dll
 0000:fffac000       .debug$S                   0000000140000000     kernel32:KERNEL32.dll
 0000:fffac000       .debug$S                   0000000140000000     kernel32:KERNEL32.dll
 0000:fffac000       .debug$S                   0000000140000000     kernel32:KERNEL32.dll
 0000:fffac000       .debug$S                   0000000140000000     kernel32:KERNEL32.dll
 0000:fffac000       .debug$S                   0000000140000000     kernel32:KERNEL32.dll
 0000:fffac000       .debug$S                   0000000140000000     kernel32:KERNEL32.dll
 0000:fffac000       .debug$S                   0000000140000000     kernel32:KERNEL32.dll
 0000:fffac000       .debug$S                   0000000140000000     kernel32:KERNEL32.dll
 0000:fffac000       .debug$S                   0000000140000000     kernel32:KERNEL32.dll
 0000:fffac000       .debug$S                   0000000140000000     kernel32:KERNEL32.dll
 0000:fffac000       .debug$S                   0000000140000000     kernel32:KERNEL32.dll
 0000:fffac000       .debug$S                   0000000140000000     user32:USER32.dll
 0000:fffac000       .debug$S                   0000000140000000     user32:USER32.dll
 0000:fffac000       .debug$S                   0000000140000000     user32:USER32.dll
 0000:fffac000       .debug$S                   0000000140000000     user32:USER32.dll
 0000:fffac000       .debug$S                   0000000140000000     kernel32:KERNEL32.dll
 0000:fffac000       .debug$S                   0000000140000000     user32:USER32.dll
 0000:fffac000       .debug$S                   0000000140000000     user32:USER32.dll
 0000:fffac000       .debug$S                   0000000140000000     user32:USER32.dll
 0000:fffac000       .debug$S                   0000000140000000     user32:USER32.dll
 0000:fffac000       .debug$S                   0000000140000000     user32:USER32.dll
 0000:fffac000       .debug$S                   0000000140000000     user32:USER32.dll
 0000:fffac000       .debug$S                   0000000140000000     kernel32:KERNEL32.dll
 0000:fffac000       .debug$S                   0000000140000000     kernel32:KERNEL32.dll
 0000:fffac000       .debug$S                   0000000140000000     kernel32:KERNEL32.dll
 0000:fffac000       .debug$S                   0000000140000000     kernel32:KERNEL32.dll
 0000:fffac000       .debug$S                   0000000140000000     kernel32:KERNEL32.dll
 0000:fffac000       .debug$S                   0000000140000000     kernel32:KERNEL32.dll
 0000:fffac000       .debug$S                   0000000140000000     kernel32:KERNEL32.dll
 0000:fffac000       .debug$S                   0000000140000000     kernel32:KERNEL32.dll
 0000:fffac000       .debug$S                   0000000140000000     kernel32:KERNEL32.dll
 0000:fffac000       .debug$S                   0000000140000000     kernel32:KERNEL32.dll
 0000:fffac000       .debug$S                   0000000140000000     kernel32:KERNEL32.dll
 0000:fffac000       .debug$S                   0000000140000000     kernel32:KERNEL32.dll
 0000:fffac000       .debug$S                   0000000140000000     kernel32:KERNEL32.dll
 0000:fffac000       .debug$S                   0000000140000000     kernel32:KERNEL32.dll
 0000:fffac000       .debug$S                   0000000140000000     kernel32:KERNEL32.dll
 0000:fffac000       .debug$S                   0000000140000000     kernel32:KERNEL32.dll
 0000:fffac000       .debug$S                   0000000140000000     kernel32:KERNEL32.dll
 0000:fffac000       .debug$S                   0000000140000000     kernel32:KERNEL32.dll
 0000:fffac000       .debug$S                   0000000140000000     kernel32:KERNEL32.dll
 0000:fffac000       .debug$S                   0000000140000000     kernel32:KERNEL32.dll
 0000:fffac000       .debug$S                   0000000140000000     kernel32:KERNEL32.dll
 0000:fffac000       .debug$S                   0000000140000000     kernel32:KERNEL32.dll
 0001:000005f0       ?Win32MainWindowCallBack@@YA_JPEAUHWND__@@I_K_J@Z 00000001400015f0 f   win32_main.obj
 0001:00000ab0       $$000000                   0000000140001ab0     LIBCMTD:amdsecgs.obj
 0001:00000af0       ?pre_c_initialization@@YAHXZ 0000000140001af0 f   LIBCMTD:exe_winmain.obj
 0001:00000bb0       ?post_pgo_initialization@@YAHXZ 0000000140001bb0 f   LIBCMTD:exe_winmain.obj
 0001:00000bc0       ?pre_cpp_initialization@@YAXXZ 0000000140001bc0 f   LIBCMTD:exe_winmain.obj
 0001:00000be0       ?__scrt_common_main@@YAHXZ 0000000140001be0 f   LIBCMTD:exe_winmain.obj
 0001:00000c00       ?__scrt_common_main_seh@@YAHXZ 0000000140001c00 f   LIBCMTD:exe_winmain.obj
 0001:00000dd0       ?invoke_main@@YAHXZ        0000000140001dd0 f   LIBCMTD:exe_winmain.obj
 0001:00001060       capture_current_context    0000000140002060 f   LIBCMTD:gs_report.obj
 0001:00001060       ?capture_current_context@@YAXQEAU_CONTEXT@@@Z 0000000140002060 f   libucrtd:invalid_parameter.obj
 0001:00001100       capture_previous_context   0000000140002100 f   LIBCMTD:gs_report.obj
 0001:00001260       ?find_pe_section@@YAPEAU_IMAGE_SECTION_HEADER@@QEAE_K@Z 0000000140002260 f   LIBCMTD:utility.obj
 0001:00001330       ?is_potentially_valid_image_base@@YA_NQEAX@Z 0000000140002330 f   LIBCMTD:utility.obj
 0001:00001770       __get_entropy              0000000140002770 f   LIBCMTD:gs_support.obj
 0001:00001910       initialize_global_state_isolation 0000000140002910 f   libucrtd:initialization.obj
 0001:00001910       initialize_environment     0000000140002910 f   libucrtd:initialization.obj
 0001:00001920       init_memcpy_functions      0000000140002920 f   libvcruntimed:initialization.obj
 0001:00002720       ??0<lambda_e157831efee4ea0afb0a2ace5dd5fd0d>@@QEAA@AEBQEAU__acrt_ptd@@@Z 0000000140003720 f i libucrtd:per_thread_data.obj
 0001:00002720       ??0<lambda_5533cddd4bda0037814beee657757329>@@QEAA@AEBH@Z 0000000140003720 f i libucrtd:commit.obj
 0001:00002720       ??0<lambda_d121dba8a4adeaf3a9819e48611155df>@@QEAA@AEBQEAU_onexit_table_t@@@Z 0000000140003720 f i libucrtd:onexit.obj
 0001:00002720       ??0<lambda_8d0ee55de4b1038c4002e0adecdf1839>@@QEAA@AEBQEAU__acrt_ptd@@@Z 0000000140003720 f i libucrtd:per_thread_data.obj
 0001:00002720       ??0<lambda_8f455de75cd7d7f24b4096f044d8b9e6>@@QEAA@AEBQEAU__acrt_ptd@@@Z 0000000140003720 f i libucrtd:per_thread_data.obj
 0001:00002720       ??0<lambda_4e7105787b7b0e0227fbf2b2d883fa65>@@QEAA@AEBH@Z 0000000140003720 f i libucrtd:close.obj
 0001:00002720       ??0<lambda_df1553121bfa390f1154bd84936f2730>@@QEAA@AEAV?$__crt_unique_heap_ptr@PEADU__crt_internal_free_policy@@@@@Z 0000000140003720 f i libucrtd:argv_parsing.obj
 0001:00002780       ?begin@?$argument_list@D@?A0x5f5c8891@@QEBAPEAPEADXZ 0000000140003780 f i libucrtd:argv_wildcards.obj
 0001:00002830       $$000000                   0000000140003830     libvcruntimed:notify.obj
 0001:00002b70       ??0scoped_get_last_error_reset@?A0xef8ec17e@@QEAA@XZ 0000000140003b70 f   libvcruntimed:per_thread_data.obj
 0001:00002b90       ??1scoped_get_last_error_reset@?A0xef8ec17e@@QEAA@XZ 0000000140003b90 f   libvcruntimed:per_thread_data.obj
 0001:00002be0       ?store_and_initialize_ptd@@YA_NQEAU__vcrt_ptd@@@Z 0000000140003be0 f   libvcruntimed:per_thread_data.obj
 0001:00002ff0       ?invalid_function_sentinel@@YAPEAXXZ 0000000140003ff0 f   libvcruntimed:winapi_downlevel.obj
 0001:00002ff0       ?invalid_function_sentinel@@YAPEAXXZ 0000000140003ff0 f   libucrtd:winapi_thunks.obj
 0001:00003000       ?try_get_FlsAlloc@@YAP6AKP6AXPEAX@Z@ZXZ 0000000140004000 f   libvcruntimed:winapi_downlevel.obj
 0001:00003030       ?try_get_FlsFree@@YAP6AHK@ZXZ 0000000140004030 f   libvcruntimed:winapi_downlevel.obj
 0001:00003060       ?try_get_FlsGetValue@@YAP6APEAXK@ZXZ 0000000140004060 f   libvcruntimed:winapi_downlevel.obj
 0001:00003090       ?try_get_FlsSetValue@@YAP6AHKPEAX@ZXZ 0000000140004090 f   libvcruntimed:winapi_downlevel.obj
 0001:000030c0       ?try_get_InitializeCriticalSectionEx@@YAP6AHPEAU_RTL_CRITICAL_SECTION@@KK@ZXZ 00000001400040c0 f   libvcruntimed:winapi_downlevel.obj
 0001:000030f0       ?try_get_first_available_module@@YAPEAUHINSTANCE__@@QEBW4module_id@?A0xbfd18cd1@@0@Z 00000001400040f0 f   libvcruntimed:winapi_downlevel.obj
 0001:00003150       ?try_get_function@@YAPEAXW4function_id@?A0xbfd18cd1@@QEBDQEBW4module_id@2@2@Z 0000000140004150 f   libvcruntimed:winapi_downlevel.obj
 0001:000032f0       ?try_get_module@@YAPEAUHINSTANCE__@@W4module_id@?A0xbfd18cd1@@@Z 00000001400042f0 f   libvcruntimed:winapi_downlevel.obj
 0001:00003450       ?try_get_proc_address_from_first_available_module@@YAPEAXQEBDQEBW4module_id@?A0xbfd18cd1@@1@Z 0000000140004450 f   libvcruntimed:winapi_downlevel.obj
 0001:000034a0       ?try_load_library_from_system_directory@@YAPEAUHINSTANCE__@@QEB_W@Z 00000001400044a0 f   libucrtd:winapi_thunks.obj
 0001:000034a0       ?try_load_library_from_system_directory@@YAPEAUHINSTANCE__@@QEB_W@Z 00000001400044a0 f   libvcruntimed:winapi_downlevel.obj
 0001:00003900       $$000000                   0000000140004900     libvcruntimed:memcpy.obj
 0001:000039b7       MoveSmall                  00000001400049b7     libvcruntimed:memcpy.obj
 0001:00003dd0       ??$SehTransFilter@V__FrameHandler3@@@@YAHPEAU_EXCEPTION_POINTERS@@PEAUEHExceptionRecord@@PEA_KPEAU_CONTEXT@@PEAU_xDISPATCHER_CONTEXT@@PEBU_s_FuncInfo@@PEAH@Z 0000000140004dd0 f   libvcruntimed:risctrnsctrl.obj
 0001:00004600       ?end@?$argument_list@D@?A0x5f5c8891@@QEBAPEAPEADXZ 0000000140005600 f i libucrtd:argv_wildcards.obj
 0001:00004ac0       ?adjustIp@@YA_KPEAU_xDISPATCHER_CONTEXT@@_K@Z 0000000140005ac0 f   libvcruntimed:ehstate.obj
 0001:00004ad0       ??$BuildCatchObjectHelperInternal@V__FrameHandler3@@@@YAHPEAUEHExceptionRecord@@PEAXPEBU_s_HandlerType@@PEBU_s_CatchableType@@@Z 0000000140005ad0 f   libvcruntimed:frame.obj
 0001:00004f50       ??$BuildCatchObjectInternal@V__FrameHandler3@@@@YAXPEAUEHExceptionRecord@@PEAXPEBU_s_HandlerType@@PEBU_s_CatchableType@@@Z 0000000140005f50 f   libvcruntimed:frame.obj
 0001:00005090       ??$CatchIt@V__FrameHandler3@@@@YAXPEAUEHExceptionRecord@@PEA_KPEAU_CONTEXT@@PEAU_xDISPATCHER_CONTEXT@@PEBU_s_FuncInfo@@PEBU_s_HandlerType@@PEBU_s_CatchableType@@PEBU_s_TryBlockMapEntry@@H1EE@Z 0000000140006090 f   libvcruntimed:frame.obj
 0001:000051a0       ??$FindHandler@V__FrameHandler3@@@@YAXPEAUEHExceptionRecord@@PEA_KPEAU_CONTEXT@@PEAU_xDISPATCHER_CONTEXT@@PEBU_s_FuncInfo@@EH1@Z 00000001400061a0 f   libvcruntimed:frame.obj
 0001:00005920       ??$FindHandlerForForeignException@V__FrameHandler3@@@@YAXPEAUEHExceptionRecord@@PEA_KPEAU_CONTEXT@@PEAU_xDISPATCHER_CONTEXT@@PEBU_s_FuncInfo@@HH1@Z 0000000140006920 f   libvcruntimed:frame.obj
 0001:000062d0       ??0<lambda_3b83eb014488ad801d84acef5aaf14d3>@@QEAA@AEBQEAU_onexit_table_t@@AEBQ6AHXZ@Z 00000001400072d0 f i libucrtd:onexit.obj
 0001:000062d0       ??0<lambda_92619d2358a28f41a33ba319515a20b9>@@QEAA@AEBQEAU__acrt_ptd@@AEBQEAPEAU__crt_locale_data@@@Z 00000001400072d0 f i libucrtd:per_thread_data.obj
 0001:000062d0       ??0<lambda_bd5a608237428601b7e45fbdc72b1ae8>@@QEAA@AEBQEAU__acrt_ptd@@AEBQEAPEAU__crt_multibyte_data@@@Z 00000001400072d0 f i libucrtd:mbctype.obj
 0001:00006940       ?ExFilterRethrow@@YAHPEAU_EXCEPTION_POINTERS@@PEAUEHExceptionRecord@@PEAH@Z 0000000140007940 f   libvcruntimed:frame.obj
 0001:00006da0       ?IsInExceptionSpec@@YAEPEAUEHExceptionRecord@@PEBU_s_ESTypeList@@@Z 0000000140007da0 f   libvcruntimed:frame.obj
 0001:00006ed0       ?Is_bad_exception_allowed@@YAEPEBU_s_ESTypeList@@@Z 0000000140007ed0 f   libvcruntimed:frame.obj
 0001:00007090       ?__RethrowException@@YAXPEAUEHExceptionRecord@@@Z 0000000140008090 f   libvcruntimed:frame.obj
 0001:000072b0       $$000000                   00000001400082b0     libvcruntimed:memset.obj
 0001:000073ac       MsetTab                    00000001400083ac     libvcruntimed:memset.obj
 0001:00007470       $$000000                   0000000140008470     libvcruntimed:handlers.obj
 0001:00007850       ?xcptlookup@@YAPEAU__crt_signal_action_t@@KQEAU1@@Z 0000000140008850 f   libucrtd:exception_filter.obj
 0001:00007b40       $LN33                      0000000140008b40     libucrtd:exception_filter.obj
 0001:00007b60       ?issue_debug_notification@@YA_NQEB_W@Z 0000000140008b60 f   libucrtd:report_runtime_error.obj
 0001:00007bc0       ?should_write_error_to_console@@YA_NXZ 0000000140008bc0 f   libucrtd:report_runtime_error.obj
 0001:00007c00       ?write_string_to_console@@YAXQEB_W@Z 0000000140008c00 f   libucrtd:report_runtime_error.obj
 0001:00008180       ??$common_configure_argv@D@@YAHW4_crt_argv_mode@@@Z 0000000140009180 f   libucrtd:argv_parsing.obj
 0001:00008550       ??$parse_command_line@D@@YAXPEADPEAPEAD0PEA_K2@Z 0000000140009550 f   libucrtd:argv_parsing.obj
 0001:00008a00       ??R<lambda_df1553121bfa390f1154bd84936f2730>@@QEBAHXZ 0000000140009a00 f   libucrtd:argv_parsing.obj
 0001:00008a60       ?do_locale_initialization@@YAXD@Z 0000000140009a60 f   libucrtd:argv_parsing.obj
 0001:00008a60       ?do_locale_initialization@@YAXE@Z 0000000140009a60 f   libucrtd:argv_winmain.obj
 0001:00008a80       ?expand_argv_wildcards@@YAHQEAPEADQEAPEAPEAD@Z 0000000140009a80 f   libucrtd:argv_parsing.obj
 0001:00008ab0       ?get_argv@@YAAEAPEAPEADD@Z 0000000140009ab0 f   libucrtd:argv_parsing.obj
 0001:00008ac0       ?get_command_line@@YAPEAEE@Z 0000000140009ac0 f   libucrtd:argv_winmain.obj
 0001:00008ac0       ?get_command_line@@YAPEADD@Z 0000000140009ac0 f   libucrtd:argv_parsing.obj
 0001:00008ad0       ?should_copy_another_character@@YA_ND@Z 0000000140009ad0 f   libucrtd:argv_parsing.obj
 0001:00008c64       ??$common_initialize_environment_nolock@D@@YAHXZ 0000000140009c64 f   libucrtd:environment_initialization.obj
 0001:00008cdc       ??$create_environment@D@@YAQEAPEADQEAD@Z 0000000140009cdc f   libucrtd:environment_initialization.obj
 0001:00008e38       ??$free_environment@_W@@YAXQEAPEA_W@Z 0000000140009e38 f   libucrtd:environment_initialization.obj
 0001:00008e38       ??$free_environment@D@@YAXQEAPEAD@Z 0000000140009e38 f   libucrtd:environment_initialization.obj
 0001:00008e94       ??$uninitialize_environment_internal@D@@YAXAEAPEAPEAD@Z 0000000140009e94 f   libucrtd:environment_initialization.obj
 0001:00008eb0       ??$uninitialize_environment_internal@_W@@YAXAEAPEAPEA_W@Z 0000000140009eb0 f   libucrtd:environment_initialization.obj
 0001:00008f20       ??$common_wincmdln@E@@YAPEAEXZ 0000000140009f20 f   libucrtd:argv_winmain.obj
 0001:00009020       ?should_copy_another_character@@YA_NE@Z 000000014000a020 f   libucrtd:argv_winmain.obj
 0001:00009150       ??$?RV<lambda_d80eeec6fff315bfe5c115232f3240e3>@@AEAV<lambda_6e4b09c48022b2350581041d5f6b0c4c>@@V<lambda_2358e3775559c9db80273638284d5e45>@@@?$__crt_seh_guarded_call@X@@QEAAX$$QEAV<lambda_d80eeec6fff315bfe5c115232f3240e3>@@AEAV<lambda_6e4b09c48022b2350581041d5f6b0c4c>@@$$QEAV<lambda_2358e3775559c9db80273638284d5e45>@@@Z 000000014000a150 f   libucrtd:exit.obj
 0001:00009190       ??$__acrt_lock_and_call@V<lambda_6e4b09c48022b2350581041d5f6b0c4c>@@@@YAXW4__acrt_lock_id@@$$QEAV<lambda_6e4b09c48022b2350581041d5f6b0c4c>@@@Z 000000014000a190 f   libucrtd:exit.obj
 0001:00009230       ??0<lambda_d80eeec6fff315bfe5c115232f3240e3>@@QEAA@AEBW4__acrt_lock_id@@@Z 000000014000a230 f   libucrtd:exit.obj
 0001:00009230       ??0<lambda_6992ecaafeb10aed2b74cb1fae11a551>@@QEAA@AEBW4__acrt_lock_id@@@Z 000000014000a230 f   libucrtd:per_thread_data.obj
 0001:00009230       ??0<lambda_74a0ef281e44d15e1136f792f539efb3>@@QEAA@AEBW4__acrt_lock_id@@@Z 000000014000a230 f   libucrtd:per_thread_data.obj
 0001:00009230       ??0<lambda_38119f0e861e05405d8a144b9b982f0a>@@QEAA@AEBW4__acrt_lock_id@@@Z 000000014000a230 f   libucrtd:wsetlocale.obj
 0001:00009230       ??0<lambda_04ddeca75b7c13fd67716e8dfcef87ee>@@QEAA@AEBW4__acrt_lock_id@@@Z 000000014000a230 f   libucrtd:per_thread_data.obj
 0001:00009230       ??0<lambda_2d41944a1d46af3157314b8a01080d33>@@QEAA@AEBW4__acrt_lock_id@@@Z 000000014000a230 f   libucrtd:per_thread_data.obj
 0001:00009230       ??0<lambda_410d79af7f07d98d83a3f525b3859a53>@@QEAA@AEBW4__acrt_lock_id@@@Z 000000014000a230 f   libucrtd:wsetlocale.obj
 0001:00009230       ??0<lambda_53fc7fc888e23d815d7080162c0aeeb2>@@QEAA@AEBH@Z 000000014000a230 f   libucrtd:close.obj
 0001:00009230       ??0<lambda_aa87e3671a710a21b5dc78c0bdf72e11>@@QEAA@AEBW4__acrt_lock_id@@@Z 000000014000a230 f   libucrtd:per_thread_data.obj
 0001:00009230       ??0<lambda_601a2a7da3b7a96e9554ac7215c4b07c>@@QEAA@AEBW4__acrt_lock_id@@@Z 000000014000a230 f   libucrtd:signal.obj
 0001:00009230       ??0<lambda_aa500f224e6afead328df44964fe2772>@@QEAA@AEBW4__acrt_lock_id@@@Z 000000014000a230 f   libucrtd:per_thread_data.obj
 0001:00009230       ??0<lambda_450d765d439847d4c735a33c368b5fc0>@@QEAA@AEBW4__acrt_lock_id@@@Z 000000014000a230 f   libucrtd:signal.obj
 0001:00009230       ??0<lambda_dce957679fd779aa27c4ca5c39e09098>@@QEAA@AEBW4__acrt_lock_id@@@Z 000000014000a230 f   libucrtd:onexit.obj
 0001:00009230       ??0<lambda_8ddc48ad9d26c778cb15812d1d88fc8a>@@QEAA@AEBH@Z 000000014000a230 f   libucrtd:close.obj
 0001:00009230       ??0<lambda_47cffbaa968af5c721c38a4a6f8da44d>@@QEAA@AEBH@Z 000000014000a230 f   libucrtd:commit.obj
 0001:00009230       ??0<lambda_728235dc0fc2b1f82d1fa5b3e7102d8f>@@QEAA@AEBW4__acrt_lock_id@@@Z 000000014000a230 f   libucrtd:mbctype.obj
 0001:00009230       ??0<lambda_efa02eb69bf647d2f7ff0dd6f1103f72>@@QEAA@AEBW4__acrt_lock_id@@@Z 000000014000a230 f   libucrtd:mbctype.obj
 0001:00009230       ??0<lambda_dc504788e8f1664fe9b84e20bfb512f2>@@QEAA@AEBW4__acrt_lock_id@@@Z 000000014000a230 f   libucrtd:per_thread_data.obj
 0001:00009230       ??0<lambda_6aaa2265f5b6a89667e7d7630012e97a>@@QEAA@AEBW4__acrt_lock_id@@@Z 000000014000a230 f   libucrtd:onexit.obj
 0001:00009230       ??0<lambda_886d6c58226a84441f68b9f2b8217b83>@@QEAA@AEBW4__acrt_lock_id@@@Z 000000014000a230 f   libucrtd:fflush.obj
 0001:00009230       ??0<lambda_2358e3775559c9db80273638284d5e45>@@QEAA@AEBW4__acrt_lock_id@@@Z 000000014000a230 f   libucrtd:exit.obj
 0001:00009230       ??0<lambda_6a47f4c8fd0152770a780fc1d70204eb>@@QEAA@AEBW4__acrt_lock_id@@@Z 000000014000a230 f   libucrtd:onexit.obj
 0001:00009230       ??0<lambda_4e3dbe6921bc0b5a1a6bc6573fdc859e>@@QEAA@AEBH@Z 000000014000a230 f   libucrtd:commit.obj
 0001:00009230       ??0<lambda_0ae27a3a962d80f24befdcbee591983d>@@QEAA@AEBW4__acrt_lock_id@@@Z 000000014000a230 f   libucrtd:per_thread_data.obj
 0001:00009230       ??0<lambda_f7f22ab5edc0698d5f6905b0d3f44752>@@QEAA@AEBW4__acrt_lock_id@@@Z 000000014000a230 f   libucrtd:fflush.obj
 0001:00009230       ??0<lambda_00e911965883f7966597d4c465c83ebc>@@QEAA@AEBW4__acrt_lock_id@@@Z 000000014000a230 f   libucrtd:onexit.obj
 0001:00009250       ??0<lambda_ab61a845afdef5b7c387490eaf3616ee>@@QEAA@AEAHAEB_N0@Z 000000014000a250 f   libucrtd:fflush.obj
 0001:00009250       ??0<lambda_6e4b09c48022b2350581041d5f6b0c4c>@@QEAA@AEBW4_crt_exit_cleanup_mode@@AEBW4_crt_exit_return_mode@@AEA_N@Z 000000014000a250 f   libucrtd:exit.obj
 0001:000092c0       ??R<lambda_dc504788e8f1664fe9b84e20bfb512f2>@@QEBAXXZ 000000014000a2c0 f   libucrtd:per_thread_data.obj
 0001:000092c0       ??R<lambda_04ddeca75b7c13fd67716e8dfcef87ee>@@QEBAXXZ 000000014000a2c0 f   libucrtd:per_thread_data.obj
 0001:000092c0       ??R<lambda_38119f0e861e05405d8a144b9b982f0a>@@QEBAXXZ 000000014000a2c0 f   libucrtd:wsetlocale.obj
 0001:000092c0       ??R<lambda_aa500f224e6afead328df44964fe2772>@@QEBAXXZ 000000014000a2c0 f   libucrtd:per_thread_data.obj
 0001:000092c0       ??R<lambda_601a2a7da3b7a96e9554ac7215c4b07c>@@QEBAXXZ 000000014000a2c0 f   libucrtd:signal.obj
 0001:000092c0       ??R<lambda_6aaa2265f5b6a89667e7d7630012e97a>@@QEBAXXZ 000000014000a2c0 f   libucrtd:onexit.obj
 0001:000092c0       ??R<lambda_00e911965883f7966597d4c465c83ebc>@@QEBAXXZ 000000014000a2c0 f   libucrtd:onexit.obj
 0001:000092c0       ??R<lambda_728235dc0fc2b1f82d1fa5b3e7102d8f>@@QEBAXXZ 000000014000a2c0 f   libucrtd:mbctype.obj
 0001:000092c0       ??R<lambda_f7f22ab5edc0698d5f6905b0d3f44752>@@QEBAXXZ 000000014000a2c0 f   libucrtd:fflush.obj
 0001:000092c0       ??R<lambda_6992ecaafeb10aed2b74cb1fae11a551>@@QEBAXXZ 000000014000a2c0 f   libucrtd:per_thread_data.obj
 0001:000092c0       ??R<lambda_2358e3775559c9db80273638284d5e45>@@QEBAXXZ 000000014000a2c0 f   libucrtd:exit.obj
 0001:000092e0       ??R<lambda_6e4b09c48022b2350581041d5f6b0c4c>@@QEBA@XZ 000000014000a2e0 f   libucrtd:exit.obj
 0001:000093e0       ??R<lambda_d80eeec6fff315bfe5c115232f3240e3>@@QEBAXXZ 000000014000a3e0 f   libucrtd:exit.obj
 0001:000093e0       ??R<lambda_efa02eb69bf647d2f7ff0dd6f1103f72>@@QEBAXXZ 000000014000a3e0 f   libucrtd:mbctype.obj
 0001:000093e0       ??R<lambda_886d6c58226a84441f68b9f2b8217b83>@@QEBAXXZ 000000014000a3e0 f   libucrtd:fflush.obj
 0001:000093e0       ??R<lambda_0ae27a3a962d80f24befdcbee591983d>@@QEBAXXZ 000000014000a3e0 f   libucrtd:per_thread_data.obj
 0001:000093e0       ??R<lambda_aa87e3671a710a21b5dc78c0bdf72e11>@@QEBAXXZ 000000014000a3e0 f   libucrtd:per_thread_data.obj
 0001:000093e0       ??R<lambda_450d765d439847d4c735a33c368b5fc0>@@QEBAXXZ 000000014000a3e0 f   libucrtd:signal.obj
 0001:000093e0       ??R<lambda_74a0ef281e44d15e1136f792f539efb3>@@QEBAXXZ 000000014000a3e0 f   libucrtd:per_thread_data.obj
 0001:000093e0       ??R<lambda_410d79af7f07d98d83a3f525b3859a53>@@QEBAXXZ 000000014000a3e0 f   libucrtd:wsetlocale.obj
 0001:000093e0       ??R<lambda_2d41944a1d46af3157314b8a01080d33>@@QEBAXXZ 000000014000a3e0 f   libucrtd:per_thread_data.obj
 0001:000093e0       ??R<lambda_6a47f4c8fd0152770a780fc1d70204eb>@@QEBAXXZ 000000014000a3e0 f   libucrtd:onexit.obj
 0001:000093e0       ??R<lambda_dce957679fd779aa27c4ca5c39e09098>@@QEBAXXZ 000000014000a3e0 f   libucrtd:onexit.obj
 0001:00009430       ?atexit_exception_filter@@YAHK@Z 000000014000a430 f   libucrtd:exit.obj
 0001:000094d0       ?common_exit@@YAXHW4_crt_exit_cleanup_mode@@W4_crt_exit_return_mode@@@Z 000000014000a4d0 f   libucrtd:exit.obj
 0001:00009560       ?exit_or_terminate_process@@YAXI@Z 000000014000a560 f   libucrtd:exit.obj
 0001:000095a0       ?is_managed_app@@YA_NXZ    000000014000a5a0 f   libucrtd:exit.obj
 0001:00009650       ?should_call_terminate_process@@YA_NXZ 000000014000a650 f   libucrtd:exit.obj
 0001:000096b0       ?try_cor_exit_process@@YAXI@Z 000000014000a6b0 f   libucrtd:exit.obj
 0001:00009940       ??$?RV<lambda_410d79af7f07d98d83a3f525b3859a53>@@AEAV<lambda_3e16ef9562a7dcce91392c22ab16ea36>@@V<lambda_38119f0e861e05405d8a144b9b982f0a>@@@?$__crt_seh_guarded_call@X@@QEAAX$$QEAV<lambda_410d79af7f07d98d83a3f525b3859a53>@@AEAV<lambda_3e16ef9562a7dcce91392c22ab16ea36>@@$$QEAV<lambda_38119f0e861e05405d8a144b9b982f0a>@@@Z 000000014000a940 f   libucrtd:wsetlocale.obj
 0001:00009980       ??$__acrt_lock_and_call@V<lambda_3e16ef9562a7dcce91392c22ab16ea36>@@@@YAXW4__acrt_lock_id@@$$QEAV<lambda_3e16ef9562a7dcce91392c22ab16ea36>@@@Z 000000014000a980 f   libucrtd:wsetlocale.obj
 0001:000099d0       ??$uninitialize@V<lambda_363eea9039da1e8169e2d060c7fe5cbc>@@@?$dual_state_global@PEAU__crt_locale_data@@@__crt_state_management@@QEAAX$$QEAV<lambda_363eea9039da1e8169e2d060c7fe5cbc>@@@Z 000000014000a9d0 f   libucrtd:wsetlocale.obj
 0001:00009a20       ??R<lambda_363eea9039da1e8169e2d060c7fe5cbc>@@QEBAXAEAPEAU__crt_locale_data@@@Z 000000014000aa20 f   libucrtd:wsetlocale.obj
 0001:00009a60       ??R<lambda_3e16ef9562a7dcce91392c22ab16ea36>@@QEBA@XZ 000000014000aa60 f   libucrtd:wsetlocale.obj
 0001:00009de0       ??$?RV<lambda_6a47f4c8fd0152770a780fc1d70204eb>@@AEAV<lambda_d121dba8a4adeaf3a9819e48611155df>@@V<lambda_6aaa2265f5b6a89667e7d7630012e97a>@@@?$__crt_seh_guarded_call@H@@QEAAH$$QEAV<lambda_6a47f4c8fd0152770a780fc1d70204eb>@@AEAV<lambda_d121dba8a4adeaf3a9819e48611155df>@@$$QEAV<lambda_6aaa2265f5b6a89667e7d7630012e97a>@@@Z 000000014000ade0 f   libucrtd:onexit.obj
 0001:00009e30       ??$?RV<lambda_dce957679fd779aa27c4ca5c39e09098>@@AEAV<lambda_3b83eb014488ad801d84acef5aaf14d3>@@V<lambda_00e911965883f7966597d4c465c83ebc>@@@?$__crt_seh_guarded_call@H@@QEAAH$$QEAV<lambda_dce957679fd779aa27c4ca5c39e09098>@@AEAV<lambda_3b83eb014488ad801d84acef5aaf14d3>@@$$QEAV<lambda_00e911965883f7966597d4c465c83ebc>@@@Z 000000014000ae30 f   libucrtd:onexit.obj
 0001:00009e80       ??$__acrt_lock_and_call@V<lambda_3b83eb014488ad801d84acef5aaf14d3>@@@@YAHW4__acrt_lock_id@@$$QEAV<lambda_3b83eb014488ad801d84acef5aaf14d3>@@@Z 000000014000ae80 f   libucrtd:onexit.obj
 0001:00009ed0       ??$__acrt_lock_and_call@V<lambda_d121dba8a4adeaf3a9819e48611155df>@@@@YAHW4__acrt_lock_id@@$$QEAV<lambda_d121dba8a4adeaf3a9819e48611155df>@@@Z 000000014000aed0 f   libucrtd:onexit.obj
 0001:00009f20       ??R<lambda_3b83eb014488ad801d84acef5aaf14d3>@@QEBAHXZ 000000014000af20 f   libucrtd:onexit.obj
 0001:0000a230       ??R<lambda_d121dba8a4adeaf3a9819e48611155df>@@QEBAHXZ 000000014000b230 f   libucrtd:onexit.obj
 0001:0000a580       initialize_global_variables 000000014000b580 f   libucrtd:initialization.obj
 0001:0000a5a0       initialize_c               000000014000b5a0 f   libucrtd:initialization.obj
 0001:0000a5d0       uninitialize_global_state_isolation 000000014000b5d0 f   libucrtd:initialization.obj
 0001:0000a5d0       uninitialize_c             000000014000b5d0 f   libucrtd:initialization.obj
 0001:0000a5e0       uninitialize_environment   000000014000b5e0 f   libucrtd:initialization.obj
 0001:0000a610       initialize_pointers        000000014000b610 f   libucrtd:initialization.obj
 0001:0000a670       uninitialize_vcruntime     000000014000b670 f   libucrtd:initialization.obj
 0001:0000a690       uninitialize_allocated_memory 000000014000b690 f   libucrtd:initialization.obj
 0001:0000a6d0       uninitialize_allocated_io_buffers 000000014000b6d0 f   libucrtd:initialization.obj
 0001:0000a750       report_memory_leaks        000000014000b750 f   libucrtd:initialization.obj
 0001:0000a780       ??$uninitialize@V<lambda_af27fe6ede5d83bbdbd622796c194e9c>@@@?$dual_state_global@PEAU__crt_multibyte_data@@@__crt_state_management@@QEAAX$$QEAV<lambda_af27fe6ede5d83bbdbd622796c194e9c>@@@Z 000000014000b780 f   libucrtd:initialization.obj
 0001:0000a7d0       ??R<lambda_af27fe6ede5d83bbdbd622796c194e9c>@@QEBAXAEAPEAU__crt_multibyte_data@@@Z 000000014000b7d0 f   libucrtd:initialization.obj
 0001:0000aa30       ?block_from_header@@YAPEAEQEAU_CrtMemBlockHeader@@@Z 000000014000ba30 f   libucrtd:debug_heap.obj
 0001:0000aa40       ?check_block@@YA_NQEAU_CrtMemBlockHeader@@@Z 000000014000ba40 f   libucrtd:debug_heap.obj
 0001:0000ae00       ?check_bytes@@YA_NQEBEE_K@Z 000000014000be00 f   libucrtd:debug_heap.obj
 0001:0000ae70       ?dump_all_object_since_nolock@@YAXQEBU_CrtMemState@@@Z 000000014000be70 f   libucrtd:debug_heap.obj
 0001:0000b230       ?free_dbg_nolock@@YAXQEAXH@Z 000000014000c230 f   libucrtd:debug_heap.obj
 0001:0000b880       ?header_from_block@@YAPEAU_CrtMemBlockHeader@@QEBX@Z 000000014000c880 f   libucrtd:debug_heap.obj
 0001:0000b890       ?heap_alloc_dbg@@YAPEAX_KHQEBDH@Z 000000014000c890 f   libucrtd:debug_heap.obj
 0001:0000b930       ?heap_alloc_dbg_internal@@YAPEAX_KHQEBDH@Z 000000014000c930 f   libucrtd:debug_heap.obj
 0001:0000bd70       ?is_bad_read_pointer@@YA_NQEBX_K@Z 000000014000cd70 f   libucrtd:debug_heap.obj
 0001:0000be80       ?is_block_an_aligned_allocation@@YA_NQEBX@Z 000000014000ce80 f   libucrtd:debug_heap.obj
 0001:0000bec0       ?is_block_type_valid@@YA_NH@Z 000000014000cec0 f   libucrtd:debug_heap.obj
 0001:0000bf10       ?print_block_data@@YAXQEAU__crt_locale_pointers@@QEAU_CrtMemBlockHeader@@@Z 000000014000cf10 f   libucrtd:debug_heap.obj
 0001:0000c140       ?realloc_dbg_nolock@@YAPEAXQEAXQEA_KHQEBDH_N@Z 000000014000d140 f   libucrtd:debug_heap.obj
 0001:0000c960       ?validate_heap_if_required_nolock@@YAXXZ 000000014000d960 f   libucrtd:debug_heap.obj
 0001:0000d710       ??$common_tcscpy_s@D@@YAHQEAD_KQEBD@Z 000000014000e710 f   libucrtd:strcpy_s.obj
 0001:0000dc10       $$000000                   000000014000ec10     libucrtd:strcmp.obj
 0001:0000dc90       $$000000                   000000014000ec90     libucrtd:strlen.obj
 0001:0000ddd0       ??$common_message_window@D@@YAHHQEAXQEBD111@Z 000000014000edd0 f   libucrtd:dbgrpt.obj
 0001:0000e4a0       ??$common_message_window@_W@@YAHHQEAXQEB_W111@Z 000000014000f4a0 f   libucrtd:dbgrpt.obj
 0001:0000ecc0       ?get_output_message_format@@YAPEB_WD@Z 000000014000fcc0 f   libucrtd:dbgrpt.obj
 0001:0000ecd0       ?get_output_message_format@@YAPEB_W_W@Z 000000014000fcd0 f   libucrtd:dbgrpt.obj
 0001:0000ece0       ?get_program_name_unknown_text@@YAPEBDD@Z 000000014000fce0 f   libucrtd:dbgrpt.obj
 0001:0000ecf0       ?get_program_name_unknown_text@@YAPEB_W_W@Z 000000014000fcf0 f   libucrtd:dbgrpt.obj
 0001:0000f1a0       ??$common_vsnprintf_s@D@@YAH_KQEAD00QEBDQEAU__crt_locale_pointers@@1@Z 00000001400101a0 f   libucrtd:output.obj
 0001:0000f760       ??$common_vsnprintf_s@_W@@YAH_KQEA_W00QEB_WQEAU__crt_locale_pointers@@QEAD@Z 0000000140010760 f   libucrtd:output.obj
 0001:0000fd30       ??$common_vsprintf@Vformat_validation_base@__crt_stdio_output@@D@@YAH_KQEAD0QEBDQEAU__crt_locale_pointers@@1@Z 0000000140010d30 f   libucrtd:output.obj
 0001:00010210       ??$common_vsprintf@Vformat_validation_base@__crt_stdio_output@@_W@@YAH_KQEA_W0QEB_WQEAU__crt_locale_pointers@@QEAD@Z 0000000140011210 f   libucrtd:output.obj
 0001:000106e0       ??$common_vsprintf_s@D@@YAH_KQEAD0QEBDQEAU__crt_locale_pointers@@1@Z 00000001400116e0 f   libucrtd:output.obj
 0001:0001299c       $LN39                      000000014001399c     libucrtd:output.obj
 0001:00012cfc       $LN39                      0000000140013cfc     libucrtd:output.obj
 0001:000137e8       $LN54                      00000001400147e8     libucrtd:output.obj
 0001:00013810       $LN53                      0000000140014810     libucrtd:output.obj
 0001:00013c68       $LN54                      0000000140014c68     libucrtd:output.obj
 0001:00013c90       $LN53                      0000000140014c90     libucrtd:output.obj
 0001:00014104       $LN44                      0000000140015104     libucrtd:output.obj
 0001:00014134       $LN43                      0000000140015134     libucrtd:output.obj
 0001:0001465c       $LN44                      000000014001565c     libucrtd:output.obj
 0001:0001468c       $LN43                      000000014001568c     libucrtd:output.obj
 0001:00014910       $LN19                      0000000140015910     libucrtd:output.obj
 0001:000188e0       $$000000                   00000001400198e0     libucrtd:strncmp.obj
 0001:000189d0       ??$?RV<lambda_0ae27a3a962d80f24befdcbee591983d>@@AEAV<lambda_8d0ee55de4b1038c4002e0adecdf1839>@@V<lambda_dc504788e8f1664fe9b84e20bfb512f2>@@@?$__crt_seh_guarded_call@X@@QEAAX$$QEAV<lambda_0ae27a3a962d80f24befdcbee591983d>@@AEAV<lambda_8d0ee55de4b1038c4002e0adecdf1839>@@$$QEAV<lambda_dc504788e8f1664fe9b84e20bfb512f2>@@@Z 00000001400199d0 f   libucrtd:per_thread_data.obj
 0001:00018a10       ??$?RV<lambda_2d41944a1d46af3157314b8a01080d33>@@AEAV<lambda_8f455de75cd7d7f24b4096f044d8b9e6>@@V<lambda_aa500f224e6afead328df44964fe2772>@@@?$__crt_seh_guarded_call@X@@QEAAX$$QEAV<lambda_2d41944a1d46af3157314b8a01080d33>@@AEAV<lambda_8f455de75cd7d7f24b4096f044d8b9e6>@@$$QEAV<lambda_aa500f224e6afead328df44964fe2772>@@@Z 0000000140019a10 f   libucrtd:per_thread_data.obj
 0001:00018a50       ??$?RV<lambda_74a0ef281e44d15e1136f792f539efb3>@@AEAV<lambda_e157831efee4ea0afb0a2ace5dd5fd0d>@@V<lambda_04ddeca75b7c13fd67716e8dfcef87ee>@@@?$__crt_seh_guarded_call@X@@QEAAX$$QEAV<lambda_74a0ef281e44d15e1136f792f539efb3>@@AEAV<lambda_e157831efee4ea0afb0a2ace5dd5fd0d>@@$$QEAV<lambda_04ddeca75b7c13fd67716e8dfcef87ee>@@@Z 0000000140019a50 f   libucrtd:per_thread_data.obj
 0001:00018a90       ??$?RV<lambda_aa87e3671a710a21b5dc78c0bdf72e11>@@AEAV<lambda_92619d2358a28f41a33ba319515a20b9>@@V<lambda_6992ecaafeb10aed2b74cb1fae11a551>@@@?$__crt_seh_guarded_call@X@@QEAAX$$QEAV<lambda_aa87e3671a710a21b5dc78c0bdf72e11>@@AEAV<lambda_92619d2358a28f41a33ba319515a20b9>@@$$QEAV<lambda_6992ecaafeb10aed2b74cb1fae11a551>@@@Z 0000000140019a90 f   libucrtd:per_thread_data.obj
 0001:00018ad0       ??$__acrt_lock_and_call@V<lambda_8d0ee55de4b1038c4002e0adecdf1839>@@@@YAXW4__acrt_lock_id@@$$QEAV<lambda_8d0ee55de4b1038c4002e0adecdf1839>@@@Z 0000000140019ad0 f   libucrtd:per_thread_data.obj
 0001:00018b20       ??$__acrt_lock_and_call@V<lambda_8f455de75cd7d7f24b4096f044d8b9e6>@@@@YAXW4__acrt_lock_id@@$$QEAV<lambda_8f455de75cd7d7f24b4096f044d8b9e6>@@@Z 0000000140019b20 f   libucrtd:per_thread_data.obj
 0001:00018b70       ??$__acrt_lock_and_call@V<lambda_92619d2358a28f41a33ba319515a20b9>@@@@YAXW4__acrt_lock_id@@$$QEAV<lambda_92619d2358a28f41a33ba319515a20b9>@@@Z 0000000140019b70 f   libucrtd:per_thread_data.obj
 0001:00018bc0       ??$__acrt_lock_and_call@V<lambda_e157831efee4ea0afb0a2ace5dd5fd0d>@@@@YAXW4__acrt_lock_id@@$$QEAV<lambda_e157831efee4ea0afb0a2ace5dd5fd0d>@@@Z 0000000140019bc0 f   libucrtd:per_thread_data.obj
 0001:00018c50       ??R<lambda_8d0ee55de4b1038c4002e0adecdf1839>@@QEBAXXZ 0000000140019c50 f   libucrtd:per_thread_data.obj
 0001:00018c70       ??R<lambda_8f455de75cd7d7f24b4096f044d8b9e6>@@QEBAXXZ 0000000140019c70 f   libucrtd:per_thread_data.obj
 0001:00018c90       ??R<lambda_92619d2358a28f41a33ba319515a20b9>@@QEBAXXZ 0000000140019c90 f   libucrtd:per_thread_data.obj
 0001:00018cc0       ??R<lambda_e157831efee4ea0afb0a2ace5dd5fd0d>@@QEBAXXZ 0000000140019cc0 f   libucrtd:per_thread_data.obj
 0001:00018d30       ?construct_ptd@@YAXQEAU__acrt_ptd@@QEAPEAU__crt_locale_data@@@Z 0000000140019d30 f   libucrtd:per_thread_data.obj
 0001:00018e10       ?construct_ptd_array@@YAXQEAU__acrt_ptd@@@Z 0000000140019e10 f   libucrtd:per_thread_data.obj
 0001:00018e80       ?destroy_fls@@YAXPEAX@Z    0000000140019e80 f   libucrtd:per_thread_data.obj
 0001:00018ec0       ?destroy_ptd@@YAXQEAU__acrt_ptd@@@Z 0000000140019ec0 f   libucrtd:per_thread_data.obj
 0001:00018fe0       ?destroy_ptd_array@@YAXQEAU__acrt_ptd@@@Z 0000000140019fe0 f   libucrtd:per_thread_data.obj
 0001:00019030       ?internal_get_ptd_head@@YAPEAU__acrt_ptd@@XZ 000000014001a030 f   libucrtd:per_thread_data.obj
 0001:00019160       ?internal_getptd_noexit@@YAPEAU__acrt_ptd@@XZ 000000014001a160 f   libucrtd:per_thread_data.obj
 0001:000191d0       ?replace_current_thread_locale_nolock@@YAXQEAU__acrt_ptd@@QEAU__crt_locale_data@@@Z 000000014001a1d0 f   libucrtd:per_thread_data.obj
 0001:00019290       ?try_get_ptd_head@@YAPEAU__acrt_ptd@@XZ 000000014001a290 f   libucrtd:per_thread_data.obj
 0001:00019800       ??$common_tcscat_s@_W@@YAHQEA_W_KQEB_W@Z 000000014001a800 f   libucrtd:wcscat_s.obj
 0001:00019eb0       ??$common_tcscpy_s@_W@@YAHQEA_W_KQEB_W@Z 000000014001aeb0 f   libucrtd:wcscpy_s.obj
 0001:0001a3c0       ??$common_tcsncpy_s@_W@@YAHQEA_W_KQEB_W1@Z 000000014001b3c0 f   libucrtd:wcsncpy_s.obj
 0001:0001aaa0       ??$common_strnlen@$00G@@YA_KQEBG_K@Z 000000014001baa0 f   libucrtd:strnlen.obj
 0001:0001ab00       ??$common_strnlen@$0A@E@@YA_KQEBE_K@Z 000000014001bb00 f   libucrtd:strnlen.obj
 0001:0001ab60       ??$common_strnlen@$0A@G@@YA_KQEBG_K@Z 000000014001bb60 f   libucrtd:strnlen.obj
 0001:0001abc0       ??$common_strnlen_c@$00G@@YA_KQEBG_K@Z 000000014001bbc0 f   libucrtd:strnlen.obj
 0001:0001ac40       ??$common_strnlen_c@$0A@E@@YA_KQEBE_K@Z 000000014001bc40 f   libucrtd:strnlen.obj
 0001:0001acc0       ??$common_strnlen_c@$0A@G@@YA_KQEBG_K@Z 000000014001bcc0 f   libucrtd:strnlen.obj
 0001:0001ad40       ??$common_strnlen_simd@$00$00G@@YA_KQEBG_K@Z 000000014001bd40 f   libucrtd:strnlen.obj
 0001:0001afe0       ??$common_strnlen_simd@$00$0A@G@@YA_KQEBG_K@Z 000000014001bfe0 f   libucrtd:strnlen.obj
 0001:0001b2d0       ??$common_strnlen_simd@$0A@$00E@@YA_KQEBE_K@Z 000000014001c2d0 f   libucrtd:strnlen.obj
 0001:0001b550       ??$common_strnlen_simd@$0A@$00G@@YA_KQEBG_K@Z 000000014001c550 f   libucrtd:strnlen.obj
 0001:0001b7f0       ??$common_strnlen_simd@$0A@$0A@E@@YA_KQEBE_K@Z 000000014001c7f0 f   libucrtd:strnlen.obj
 0001:0001bac0       ??$common_strnlen_simd@$0A@$0A@G@@YA_KQEBG_K@Z 000000014001cac0 f   libucrtd:strnlen.obj
 0001:0001bdb0       ??$last_reached@$00@@YA_NQEBX0@Z 000000014001cdb0 f   libucrtd:strnlen.obj
 0001:0001bdc0       ??$last_reached@$0A@@@YA_NQEBX0@Z 000000014001cdc0 f   libucrtd:strnlen.obj
 0001:0001c000       ??$common_show_message_box@_W@@YAHQEB_W0I@Z 000000014001d000 f   libucrtd:crtmbox.obj
 0001:0001c300       ?<lambda_invoker_cdecl>@<lambda_a1ce4c8ae42411fd470c77163914f50e>@@CAHPEBX0@Z 000000014001d300 f   libucrtd:argv_wildcards.obj
 0001:0001c330       ??$__acrt_convert_wcs_mbs_cp@D_WV<lambda_7c9dea7b4ca7285d2cdb541a38da6275>@@U__crt_win32_buffer_internal_dynamic_resizing@@@@YAHQEBDAEAV?$__crt_win32_buffer@_WU__crt_win32_buffer_internal_dynamic_resizing@@@@AEBV<lambda_7c9dea7b4ca7285d2cdb541a38da6275>@@I@Z 000000014001d330 f   libucrtd:argv_wildcards.obj
 0001:0001c4d0       ??$__acrt_convert_wcs_mbs_cp@_WDV<lambda_d8593a27d1aa8c02be35c86a17d324c4>@@U__crt_win32_buffer_internal_dynamic_resizing@@@@YAHQEB_WAEAV?$__crt_win32_buffer@DU__crt_win32_buffer_internal_dynamic_resizing@@@@AEBV<lambda_d8593a27d1aa8c02be35c86a17d324c4>@@I@Z 000000014001d4d0 f   libucrtd:argv_wildcards.obj
 0001:0001c710       ??$common_expand_argv_wildcards@D@@YAHQEAPEADQEAPEAPEAD@Z 000000014001d710 f   libucrtd:argv_wildcards.obj
 0001:0001cb40       ??$copy_and_add_argument_to_buffer@D@@YAHQEBD0_KAEAV?$argument_list@D@?A0x5f5c8891@@@Z 000000014001db40 f   libucrtd:argv_wildcards.obj
 0001:0001ccf0       ??$expand_argument_wildcards@D@@YAHQEAD0AEAV?$argument_list@D@?A0x5f5c8891@@@Z 000000014001dcf0 f   libucrtd:argv_wildcards.obj
 0001:0001d1f0       ??0?$argument_list@D@?A0x5f5c8891@@QEAA@XZ 000000014001e1f0 f   libucrtd:argv_wildcards.obj
 0001:0001d280       ??1?$argument_list@D@?A0x5f5c8891@@QEAA@XZ 000000014001e280 f   libucrtd:argv_wildcards.obj
 0001:0001d2f0       ??B<lambda_a1ce4c8ae42411fd470c77163914f50e>@@QEBAP6AHPEBX0@ZXZ 000000014001e2f0 f   libucrtd:argv_wildcards.obj
 0001:0001d300       ??R<lambda_7c9dea7b4ca7285d2cdb541a38da6275>@@QEBAHIQEBDQEA_W_K@Z 000000014001e300 f   libucrtd:argv_wildcards.obj
 0001:0001d350       ??R<lambda_a1ce4c8ae42411fd470c77163914f50e>@@QEBAHPEBX0@Z 000000014001e350 f   libucrtd:argv_wildcards.obj
 0001:0001d390       ??R<lambda_cfae5a0e6efa98e0d1aa03c4cec8f74e>@@QEBA_ND@Z 000000014001e390 f   libucrtd:argv_wildcards.obj
 0001:0001d3e0       ??R<lambda_f788ae46380686e8b737efdd8c720d07>@@QEBAHIQEB_WQEAD_K@Z 000000014001e3e0 f   libucrtd:getmodulefilenamea.obj
 0001:0001d3e0       ??R<lambda_d8593a27d1aa8c02be35c86a17d324c4>@@QEBAHIQEB_WQEAD_K@Z 000000014001e3e0 f   libucrtd:argv_wildcards.obj
 0001:0001d690       ?append@?$argument_list@D@?A0x5f5c8891@@QEAAHQEAD@Z 000000014001e690 f   libucrtd:argv_wildcards.obj
 0001:0001d7d0       ?expand_if_necessary@?$argument_list@D@?A0x5f5c8891@@AEAAHXZ 000000014001e7d0 f   libucrtd:argv_wildcards.obj
 0001:0001d9b0       ?get_file_name@@YAPEADQEAV?$__crt_win32_buffer@DU__crt_win32_buffer_internal_dynamic_resizing@@@@QEA_W@Z 000000014001e9b0 f   libucrtd:argv_wildcards.obj
 0001:0001da00       ?get_wide@@YAPEA_WQEAV?$__crt_win32_buffer@_WU__crt_win32_buffer_internal_dynamic_resizing@@@@QEAD@Z 000000014001ea00 f   libucrtd:argv_wildcards.obj
 0001:0001da50       ?previous_character@@YAPEADQEAD0@Z 000000014001ea50 f   libucrtd:argv_wildcards.obj
 0001:0001dae0       ?size@?$argument_list@D@?A0x5f5c8891@@QEBA_KXZ 000000014001eae0 f   libucrtd:argv_wildcards.obj
 0001:0001db60       ??$__acrt_convert_wcs_mbs_cp@_WDV<lambda_f788ae46380686e8b737efdd8c720d07>@@U__crt_win32_buffer_no_resizing@@@@YAHQEB_WAEAV?$__crt_win32_buffer@DU__crt_win32_buffer_no_resizing@@@@AEBV<lambda_f788ae46380686e8b737efdd8c720d07>@@I@Z 000000014001eb60 f   libucrtd:getmodulefilenamea.obj
 0001:0001e020       ??$?RV<lambda_efa02eb69bf647d2f7ff0dd6f1103f72>@@AEAV<lambda_bd5a608237428601b7e45fbdc72b1ae8>@@V<lambda_728235dc0fc2b1f82d1fa5b3e7102d8f>@@@?$__crt_seh_guarded_call@X@@QEAAX$$QEAV<lambda_efa02eb69bf647d2f7ff0dd6f1103f72>@@AEAV<lambda_bd5a608237428601b7e45fbdc72b1ae8>@@$$QEAV<lambda_728235dc0fc2b1f82d1fa5b3e7102d8f>@@@Z 000000014001f020 f   libucrtd:mbctype.obj
 0001:0001e060       ??$__acrt_lock_and_call@V<lambda_bd5a608237428601b7e45fbdc72b1ae8>@@@@YAXW4__acrt_lock_id@@$$QEAV<lambda_bd5a608237428601b7e45fbdc72b1ae8>@@@Z 000000014001f060 f   libucrtd:mbctype.obj
 0001:0001e190       ??R<lambda_bd5a608237428601b7e45fbdc72b1ae8>@@QEBAXXZ 000000014001f190 f   libucrtd:mbctype.obj
 0001:0001e2b0       ?CPtoLocaleName@@YAPEB_WH@Z 000000014001f2b0 f   libucrtd:mbctype.obj
 0001:0001e350       ?getSystemCP@@YAHH@Z       000000014001f350 f   libucrtd:mbctype.obj
 0001:0001e430       ?setSBCS@@YAXPEAU__crt_multibyte_data@@@Z 000000014001f430 f   libucrtd:mbctype.obj
 0001:0001e530       ?setSBUpLow@@YAXPEAU__crt_multibyte_data@@@Z 000000014001f530 f   libucrtd:mbctype.obj
 0001:0001e920       ?setmbcp_internal@@YAHH_NQEAU__acrt_ptd@@QEAPEAU__crt_multibyte_data@@@Z 000000014001f920 f   libucrtd:mbctype.obj
 0001:0001eb80       ?update_thread_multibyte_data_internal@@YAPEAU__crt_multibyte_data@@QEAU__acrt_ptd@@QEAPEAU1@@Z 000000014001fb80 f   libucrtd:mbctype.obj
 0001:0001f2c0       memcpy_s                   00000001400202c0 f   libucrtd:mbctype.obj
 0001:0001f2c0       memcpy_s                   00000001400202c0 f   libucrtd:cfout.obj
 0001:0001f3fc       ?x_ismbbtype_l@@YAHPEAU__crt_locale_pointers@@IHH@Z 00000001400203fc f   libucrtd:ismbbyte.obj
 0001:0001f4c0       ?filter_mbtowcs_flags@@YAKIK@Z 00000001400204c0 f   libucrtd:multibytetowidechar.obj
 0001:0001f5c0       ?filter_wcstomb_flags@@YAKIK@Z 00000001400205c0 f   libucrtd:widechartomultibyte.obj
 0001:0001f9e0       ??$get_cached_win_policy@Udeveloper_information_policy_properties@?1??__acrt_get_developer_information_policy@@YA?AW4developer_information_policy@@XZ@@@YA?AW4developer_information_policy@@W4AppPolicyShowDeveloperDiagnostic@@@Z 00000001400209e0 f   libucrtd:win_policies.obj
 0001:0001fab0       ??$get_cached_win_policy@Uwindowing_model_policy_properties@?1??__acrt_get_windowing_model_policy@@YA?AW4windowing_model_policy@@XZ@@@YA?AW4windowing_model_policy@@W4AppPolicyWindowingModel@@@Z 0000000140020ab0 f   libucrtd:win_policies.obj
 0001:0001fb80       ??$get_win_policy@Uprocess_end_policy_properties@?1??__acrt_get_process_end_policy@@YA?AW4process_end_policy@@XZ@@@YA?AW4process_end_policy@@W4AppPolicyProcessTerminationMethod@@@Z 0000000140020b80 f   libucrtd:win_policies.obj
 0001:0001fbd0       ?appmodel_get_policy@developer_information_policy_properties@?1??__acrt_get_developer_information_policy@@YA?AW4developer_information_policy@@XZ@SAJPEAW4AppPolicyShowDeveloperDiagnostic@@@Z 0000000140020bd0 f   libucrtd:win_policies.obj
 0001:0001fbf0       ?appmodel_get_policy@process_end_policy_properties@?1??__acrt_get_process_end_policy@@YA?AW4process_end_policy@@XZ@SAJPEAW4AppPolicyProcessTerminationMethod@@@Z 0000000140020bf0 f   libucrtd:win_policies.obj
 0001:0001fc10       ?appmodel_get_policy@windowing_model_policy_properties@?1??__acrt_get_windowing_model_policy@@YA?AW4windowing_model_policy@@XZ@SAJPEAW4AppPolicyWindowingModel@@@Z 0000000140020c10 f   libucrtd:win_policies.obj
 0001:0001fc30       ?appmodel_policy_to_policy_type@developer_information_policy_properties@?1??__acrt_get_developer_information_policy@@YA?AW4developer_information_policy@@XZ@SA?AW43@J@Z 0000000140020c30 f   libucrtd:win_policies.obj
 0001:0001fc50       ?appmodel_policy_to_policy_type@process_end_policy_properties@?1??__acrt_get_process_end_policy@@YA?AW4process_end_policy@@XZ@SA?AW43@W4AppPolicyProcessTerminationMethod@@@Z 0000000140020c50 f   libucrtd:win_policies.obj
 0001:0001fc70       ?appmodel_policy_to_policy_type@windowing_model_policy_properties@?1??__acrt_get_windowing_model_policy@@YA?AW4windowing_model_policy@@XZ@SA?AW43@J@Z 0000000140020c70 f   libucrtd:win_policies.obj
 0001:000204c0       ?get_std_handle_id@@YAKH@Z 00000001400214c0 f   libucrtd:ioinit.obj
 0001:00020510       ?initialize_inherited_file_handles_nolock@@YAXXZ 0000000140021510 f   libucrtd:ioinit.obj
 0001:000206c0       ?initialize_stdio_handles_nolock@@YAXXZ 00000001400216c0 f   libucrtd:ioinit.obj
 0001:00020c20       ??$free_crt_array@D$01@@YAXAEAY01PEAD@Z 0000000140021c20 f   libucrtd:inittime.obj
 0001:00020c20       ??$free_crt_array@_W$01@@YAXAEAY01PEA_W@Z 0000000140021c20 f   libucrtd:inittime.obj
 0001:00020c40       ??$free_crt_array@D$06@@YAXAEAY06PEAD@Z 0000000140021c40 f   libucrtd:inittime.obj
 0001:00020c40       ??$free_crt_array@_W$06@@YAXAEAY06PEA_W@Z 0000000140021c40 f   libucrtd:inittime.obj
 0001:00020c60       ??$free_crt_array@D$0M@@@YAXAEAY0M@PEAD@Z 0000000140021c60 f   libucrtd:inittime.obj
 0001:00020c60       ??$free_crt_array@_W$0M@@@YAXAEAY0M@PEA_W@Z 0000000140021c60 f   libucrtd:inittime.obj
 0001:00020c80       ?free_crt_array_internal@@YAXQEAPEBX_K@Z 0000000140021c80 f   libucrtd:inittime.obj
 0001:00021da0       ?try_get_AppPolicyGetProcessTerminationMethod@@YAP6AJPEAXPEAW4AppPolicyProcessTerminationMethod@@@ZXZ 0000000140022da0 f   libucrtd:winapi_thunks.obj
 0001:00021dd0       ?try_get_AppPolicyGetShowDeveloperDiagnostic@@YAP6AJPEAXPEAW4AppPolicyShowDeveloperDiagnostic@@@ZXZ 0000000140022dd0 f   libucrtd:winapi_thunks.obj
 0001:00021e00       ?try_get_AppPolicyGetWindowingModel@@YAP6AJPEAXPEAW4AppPolicyWindowingModel@@@ZXZ 0000000140022e00 f   libucrtd:winapi_thunks.obj
 0001:00021e30       ?try_get_AreFileApisANSI@@YAP6AHXZXZ 0000000140022e30 f   libucrtd:winapi_thunks.obj
 0001:00021e60       ?try_get_FlsAlloc@@YAP6AKP6AXPEAX@Z@ZXZ 0000000140022e60 f   libucrtd:winapi_thunks.obj
 0001:00021e90       ?try_get_FlsFree@@YAP6AHK@ZXZ 0000000140022e90 f   libucrtd:winapi_thunks.obj
 0001:00021ec0       ?try_get_FlsGetValue@@YAP6APEAXK@ZXZ 0000000140022ec0 f   libucrtd:winapi_thunks.obj
 0001:00021ef0       ?try_get_FlsSetValue@@YAP6AHKPEAX@ZXZ 0000000140022ef0 f   libucrtd:winapi_thunks.obj
 0001:00021f20       ?try_get_GetActiveWindow@@YAP6APEAUHWND__@@XZXZ 0000000140022f20 f   libucrtd:winapi_thunks.obj
 0001:00021f50       ?try_get_GetLastActivePopup@@YAP6APEAUHWND__@@PEAU1@@ZXZ 0000000140022f50 f   libucrtd:winapi_thunks.obj
 0001:00021f80       ?try_get_GetProcessWindowStation@@YAP6APEAUHWINSTA__@@XZXZ 0000000140022f80 f   libucrtd:winapi_thunks.obj
 0001:00021fb0       ?try_get_GetUserObjectInformationW@@YAP6AHPEAXH0KPEAK@ZXZ 0000000140022fb0 f   libucrtd:winapi_thunks.obj
 0001:00021fe0       ?try_get_InitializeCriticalSectionEx@@YAP6AHPEAU_RTL_CRITICAL_SECTION@@KK@ZXZ 0000000140022fe0 f   libucrtd:winapi_thunks.obj
 0001:00022010       ?try_get_LCMapStringEx@@YAP6AHPEB_WK0HPEA_WHPEAU_nlsversioninfo@@PEAX_J@ZXZ 0000000140023010 f   libucrtd:winapi_thunks.obj
 0001:00022040       ?try_get_LocaleNameToLCID@@YAP6AKPEB_WK@ZXZ 0000000140023040 f   libucrtd:winapi_thunks.obj
 0001:00022070       ?try_get_MessageBoxA@@YAP6AHPEAUHWND__@@PEBD1I@ZXZ 0000000140023070 f   libucrtd:winapi_thunks.obj
 0001:000220a0       ?try_get_MessageBoxW@@YAP6AHPEAUHWND__@@PEB_W1I@ZXZ 00000001400230a0 f   libucrtd:winapi_thunks.obj
 0001:000220d0       ?try_get_first_available_module@@YAPEAUHINSTANCE__@@QEBW4module_id@?A0x391cf84c@@0@Z 00000001400230d0 f   libucrtd:winapi_thunks.obj
 0001:00022130       ?try_get_function@@YAPEAXW4function_id@?A0x391cf84c@@QEBDQEBW4module_id@2@2@Z 0000000140023130 f   libucrtd:winapi_thunks.obj
 0001:000222d0       ?try_get_module@@YAPEAUHINSTANCE__@@W4module_id@?A0x391cf84c@@@Z 00000001400232d0 f   libucrtd:winapi_thunks.obj
 0001:00022430       ?try_get_proc_address_from_first_available_module@@YAPEAXQEBDQEBW4module_id@?A0x391cf84c@@1@Z 0000000140023430 f   libucrtd:winapi_thunks.obj
 0001:00022e30       ??$?RV<lambda_450d765d439847d4c735a33c368b5fc0>@@AEAV<lambda_44731a7d0e6d81c3e6aa82d741081786>@@V<lambda_601a2a7da3b7a96e9554ac7215c4b07c>@@@?$__crt_seh_guarded_call@P6AXH@Z@@QEAAP6AXH@Z$$QEAV<lambda_450d765d439847d4c735a33c368b5fc0>@@AEAV<lambda_44731a7d0e6d81c3e6aa82d741081786>@@$$QEAV<lambda_601a2a7da3b7a96e9554ac7215c4b07c>@@@Z 0000000140023e30 f   libucrtd:signal.obj
 0001:00022e80       ??$__acrt_lock_and_call@V<lambda_44731a7d0e6d81c3e6aa82d741081786>@@@@YAP6AXH@ZW4__acrt_lock_id@@$$QEAV<lambda_44731a7d0e6d81c3e6aa82d741081786>@@@Z 0000000140023e80 f   libucrtd:signal.obj
 0001:00022ed0       ??R<lambda_44731a7d0e6d81c3e6aa82d741081786>@@QEBAP6AXH@ZXZ 0000000140023ed0 f   libucrtd:signal.obj
 0001:00022f00       ?get_global_action_nolock@@YAPEAP6AXH@ZH@Z 0000000140023f00 f   libucrtd:signal.obj
 0001:00022f90       ?siglookup@@YAPEAU__crt_signal_action_t@@HQEAU1@@Z 0000000140023f90 f   libucrtd:signal.obj
 0001:00023530       $LN58                      0000000140024530     libucrtd:signal.obj
 0001:0002353c       $LN57                      000000014002453c     libucrtd:signal.obj
 0001:00023670       ?select_heap@@YAPEAXQEAX@Z 0000000140024670 f   libucrtd:free_base.obj
 0001:00023790       ?is_contraction_possible@@YA_N_K@Z 0000000140024790 f   libucrtd:expand.obj
 0001:00025da0       ?fe_to_nearest@@YA_NQEBN_KF@Z 0000000140026da0 f   libucrtd:cvt.obj
 0001:00025ef0       ?fp_format_a@@YAHQEBNPEAD_KQEAD2H_NIQEAU__crt_locale_pointers@@W4__acrt_rounding_mode@@@Z 0000000140026ef0 f   libucrtd:cvt.obj
 0001:00026790       ?fp_format_e@@YAHQEBNQEAD_K12H_NIQEAU__crt_locale_pointers@@W4__acrt_rounding_mode@@@Z 0000000140027790 f   libucrtd:cvt.obj
 0001:000269b0       ?fp_format_e_internal@@YAHQEAD_KH_NIQEAU_strflt@@2QEAU__crt_locale_pointers@@@Z 00000001400279b0 f   libucrtd:cvt.obj
 0001:00026de0       ?fp_format_f@@YAHQEBNQEAD_K12HQEAU__crt_locale_pointers@@W4__acrt_rounding_mode@@@Z 0000000140027de0 f   libucrtd:cvt.obj
 0001:00026f40       ?fp_format_f_internal@@YAHQEAD_KHQEAU_strflt@@_NQEAU__crt_locale_pointers@@@Z 0000000140027f40 f   libucrtd:cvt.obj
 0001:000271e0       ?fp_format_g@@YAHQEBNQEAD_K12H_NIQEAU__crt_locale_pointers@@@Z 00000001400281e0 f   libucrtd:cvt.obj
 0001:00027420       ?fp_format_nan_or_infinity@@YAHW4__acrt_fp_class@@_NPEAD_K1@Z 0000000140028420 f   libucrtd:cvt.obj
 0001:00027590       ?shift_bytes@@YAXQEAD_K0H@Z 0000000140028590 f   libucrtd:cvt.obj
 0001:000275e0       ?should_round_up@@YA_NQEBN_KFW4__acrt_rounding_mode@@@Z 00000001400285e0 f   libucrtd:cvt.obj
 0001:00027cf8       $LN42                      0000000140028cf8     libucrtd:cvt.obj
 0001:00027d0c       $LN41                      0000000140028d0c     libucrtd:cvt.obj
 0001:000282d0       ?shortsort@@YAXPEAD0_KP6AHPEBX2@Z@Z 00000001400292d0 f   libucrtd:qsort.obj
 0001:000283b0       ?swap@@YAXPEAD0_K@Z        00000001400293b0 f   libucrtd:qsort.obj
 0001:00028b50       ??$common_tcsncpy_s@D@@YAHQEAD_KQEBD1@Z 0000000140029b50 f   libucrtd:strncpy_s.obj
 0001:00029210       fallbackMethod             000000014002a210 f   libucrtd:strpbrk.obj
 0001:00029b74       $LN85                      000000014002ab74     libucrtd:strpbrk.obj
 0001:00029bb0       $LN84                      000000014002abb0     libucrtd:strpbrk.obj
 0001:00029bf0       $LN83                      000000014002abf0     libucrtd:strpbrk.obj
 0001:00029d30       ?__acrt_LCMapStringA_stat@@YAHPEAU__crt_locale_pointers@@PEB_WKPEBDHPEADHHH@Z 000000014002ad30 f   libucrtd:lcmapstringa.obj
 0001:0002a3d0       ?initialize_multibyte@@YAHXZ 000000014002b3d0 f   libucrtd:multibyte_initializer.obj
 0001:0002a400       ??$common_xtox@KD@@YAHKQEAD_KI_N@Z 000000014002b400 f   libucrtd:xtoa.obj
 0001:0002a640       ??$common_xtox@K_W@@YAHKQEA_W_KI_N@Z 000000014002b640 f   libucrtd:xtoa.obj
 0001:0002a890       ??$common_xtox_s@KD@@YAHKQEAD_KI_N@Z 000000014002b890 f   libucrtd:xtoa.obj
 0001:0002ac40       ??$common_xtox_s@K_W@@YAHKQEA_W_KI_N@Z 000000014002bc40 f   libucrtd:xtoa.obj
 0001:0002b180       ?GetTableIndexFromLocaleName@@YAHPEB_W@Z 000000014002c180 f   libucrtd:lcidtoname_downlevel.obj
 0001:0002b3a0       ??$?RV<lambda_842d9ff0dc9ef11c61343bbaebe7f885>@@AEAV<lambda_c5860995281e5c4ce005b3de8f5874ee>@@V<lambda_d90129c13df834fdcbf8d2b88dafcf2d>@@@?$__crt_seh_guarded_call@X@@QEAAX$$QEAV<lambda_842d9ff0dc9ef11c61343bbaebe7f885>@@AEAV<lambda_c5860995281e5c4ce005b3de8f5874ee>@@$$QEAV<lambda_d90129c13df834fdcbf8d2b88dafcf2d>@@@Z 000000014002c3a0 f   libucrtd:fflush.obj
 0001:0002b3e0       ??$?RV<lambda_886d6c58226a84441f68b9f2b8217b83>@@AEAV<lambda_ab61a845afdef5b7c387490eaf3616ee>@@V<lambda_f7f22ab5edc0698d5f6905b0d3f44752>@@@?$__crt_seh_guarded_call@X@@QEAAX$$QEAV<lambda_886d6c58226a84441f68b9f2b8217b83>@@AEAV<lambda_ab61a845afdef5b7c387490eaf3616ee>@@$$QEAV<lambda_f7f22ab5edc0698d5f6905b0d3f44752>@@@Z 000000014002c3e0 f   libucrtd:fflush.obj
 0001:0002b420       ??$__acrt_lock_and_call@V<lambda_ab61a845afdef5b7c387490eaf3616ee>@@@@YAXW4__acrt_lock_id@@$$QEAV<lambda_ab61a845afdef5b7c387490eaf3616ee>@@@Z 000000014002c420 f   libucrtd:fflush.obj
 0001:0002b470       ??$__acrt_lock_stream_and_call@V<lambda_c5860995281e5c4ce005b3de8f5874ee>@@@@YAXQEAU_iobuf@@$$QEAV<lambda_c5860995281e5c4ce005b3de8f5874ee>@@@Z 000000014002c470 f   libucrtd:fflush.obj
 0001:0002b4c0       ??0<lambda_842d9ff0dc9ef11c61343bbaebe7f885>@@QEAA@AEBQEAU_iobuf@@@Z 000000014002c4c0 f   libucrtd:fflush.obj
 0001:0002b4c0       ??0<lambda_d90129c13df834fdcbf8d2b88dafcf2d>@@QEAA@AEBQEAU_iobuf@@@Z 000000014002c4c0 f   libucrtd:fflush.obj
 0001:0002b4e0       ??0<lambda_c5860995281e5c4ce005b3de8f5874ee>@@QEAA@AEBV__crt_stdio_stream@@AEAHAEB_N1@Z 000000014002c4e0 f   libucrtd:fflush.obj
 0001:0002b540       ??R<lambda_842d9ff0dc9ef11c61343bbaebe7f885>@@QEBAXXZ 000000014002c540 f   libucrtd:fflush.obj
 0001:0002b560       ??R<lambda_ab61a845afdef5b7c387490eaf3616ee>@@QEBA@XZ 000000014002c560 f   libucrtd:fflush.obj
 0001:0002b650       ??R<lambda_c5860995281e5c4ce005b3de8f5874ee>@@QEBAXXZ 000000014002c650 f   libucrtd:fflush.obj
 0001:0002b6f0       ??R<lambda_d90129c13df834fdcbf8d2b88dafcf2d>@@QEBAXXZ 000000014002c6f0 f   libucrtd:fflush.obj
 0001:0002b760       ?common_flush_all@@YAH_N@Z 000000014002c760 f   libucrtd:fflush.obj
 0001:0002b7d0       ?common_flush_all_should_try_to_flush_stream@@YA_NV__crt_stdio_stream@@QEAH@Z 000000014002c7d0 f   libucrtd:fflush.obj
 0001:0002b880       ?is_stream_allocated@@YA_NJ@Z 000000014002c880 f   libucrtd:fflush.obj
 0001:0002b8b0       ?is_stream_flushable@@YA_NJ@Z 000000014002c8b0 f   libucrtd:fflush.obj
 0001:0002b8e0       ?is_stream_flushable_or_commitable@@YA_NJ@Z 000000014002c8e0 f   libucrtd:fflush.obj
 0001:0002bb70       ?_mbstowcs_l_helper@@YA_KPEA_WPEBD_KPEAU__crt_locale_pointers@@@Z 000000014002cb70 f   libucrtd:mbstowcs.obj
 0001:0002c770       ?_wcstombs_l_helper@@YA_KPEADPEB_W_KPEAU__crt_locale_pointers@@@Z 000000014002d770 f   libucrtd:wcstombs.obj
 0001:0002d020       ?wcsncnt@@YA_KPEB_W_K@Z    000000014002e020 f   libucrtd:wcstombs.obj
 0001:0002d640       ??$common_tcscat_s@D@@YAHQEAD_KQEBD@Z 000000014002e640 f   libucrtd:strcat_s.obj
 0001:0002dd40       ??R<lambda_88e6d024674186fe9d3f7283b675e4c3>@@QEBA_KPEBD@Z 000000014002ed40 f   libucrtd:mbrtowc.obj
 0001:0002e450       ?should_round_up@@YA_NQEBDHW4__acrt_has_trailing_digits@@W4__acrt_rounding_mode@@@Z 000000014002f450 f   libucrtd:_fptostr.obj
 0001:0002ea00       ??$convert_to_fos_high_precision@N@@YA?AW4__acrt_has_trailing_digits@@NIQEAHQEAD_K@Z 000000014002fa00 f   libucrtd:cfout.obj
 0001:0002f120       ??0scoped_fp_state_reset@?A0x71ca7cfb@@QEAA@XZ 0000000140030120 f   libucrtd:cfout.obj
 0001:0002f170       ??1scoped_fp_state_reset@?A0x71ca7cfb@@QEAA@XZ 0000000140030170 f   libucrtd:cfout.obj
 0001:00030fb0       ??$?RV<lambda_4e3dbe6921bc0b5a1a6bc6573fdc859e>@@AEAV<lambda_5533cddd4bda0037814beee657757329>@@V<lambda_47cffbaa968af5c721c38a4a6f8da44d>@@@?$__crt_seh_guarded_call@H@@QEAAH$$QEAV<lambda_4e3dbe6921bc0b5a1a6bc6573fdc859e>@@AEAV<lambda_5533cddd4bda0037814beee657757329>@@$$QEAV<lambda_47cffbaa968af5c721c38a4a6f8da44d>@@@Z 0000000140031fb0 f   libucrtd:commit.obj
 0001:00031000       ??$__acrt_lowio_lock_fh_and_call@V<lambda_5533cddd4bda0037814beee657757329>@@@@YAHH$$QEAV<lambda_5533cddd4bda0037814beee657757329>@@@Z 0000000140032000 f   libucrtd:commit.obj
 0001:00031050       ??R<lambda_8ddc48ad9d26c778cb15812d1d88fc8a>@@QEBAXXZ 0000000140032050 f   libucrtd:close.obj
 0001:00031050       ??R<lambda_47cffbaa968af5c721c38a4a6f8da44d>@@QEBAXXZ 0000000140032050 f   libucrtd:commit.obj
 0001:00031070       ??R<lambda_4e3dbe6921bc0b5a1a6bc6573fdc859e>@@QEBAXXZ 0000000140032070 f   libucrtd:commit.obj
 0001:00031070       ??R<lambda_53fc7fc888e23d815d7080162c0aeeb2>@@QEBAXXZ 0000000140032070 f   libucrtd:close.obj
 0001:00031090       ??R<lambda_5533cddd4bda0037814beee657757329>@@QEBAHXZ 0000000140032090 f   libucrtd:commit.obj
 0001:00031330       ?write_binary_nolock@@YA?AUwrite_result@?A0x17268360@@HQEBDI@Z 0000000140032330 f   libucrtd:write.obj
 0001:00031400       ?write_double_translated_ansi_nolock@@YA?AUwrite_result@?A0x17268360@@HQEBDI@Z 0000000140032400 f   libucrtd:write.obj
 0001:00032360       ?write_double_translated_unicode_nolock@@YA?AUwrite_result@?A0x17268360@@QEBDI@Z 0000000140033360 f   libucrtd:write.obj
 0001:000324c0       ?write_requires_double_translation_nolock@@YA_NH@Z 00000001400334c0 f   libucrtd:write.obj
 0001:000325e0       ?write_text_ansi_nolock@@YA?AUwrite_result@?A0x17268360@@HQEBDI@Z 00000001400335e0 f   libucrtd:write.obj
 0001:00032810       ?write_text_utf16le_nolock@@YA?AUwrite_result@?A0x17268360@@HQEBDI@Z 0000000140033810 f   libucrtd:write.obj
 0001:00032a50       ?write_text_utf8_nolock@@YA?AUwrite_result@?A0x17268360@@HQEBDI@Z 0000000140033a50 f   libucrtd:write.obj
 0001:00033c00       $$000000                   0000000140034c00     libucrtd:log10.obj
 0001:00034740       ??$to_abstract_status@W4__acrt_fenv_machine_sse_status@@@@YA?AW4__acrt_fenv_abstract_status@@W4__acrt_fenv_machine_sse_status@@@Z 0000000140035740 f   libucrtd:_fenvutils.obj
 0001:00034760       ??$translate_control_exception_mask@W4__acrt_fenv_abstract_control@@W4__acrt_fenv_machine_sse_control@@@@YA?AW4__acrt_fenv_abstract_control@@W4__acrt_fenv_machine_sse_control@@@Z 0000000140035760 f   libucrtd:_fenvutils.obj
 0001:00034850       ??$translate_control_exception_mask@W4__acrt_fenv_machine_sse_control@@W4__acrt_fenv_abstract_control@@@@YA?AW4__acrt_fenv_machine_sse_control@@W4__acrt_fenv_abstract_control@@@Z 0000000140035850 f   libucrtd:_fenvutils.obj
 0001:00034940       ??$translate_control_rounding_control@W4__acrt_fenv_abstract_control@@W4__acrt_fenv_machine_sse_control@@@@YA?AW4__acrt_fenv_abstract_control@@W4__acrt_fenv_machine_sse_control@@@Z 0000000140035940 f   libucrtd:_fenvutils.obj
 0001:000349b0       ??$translate_control_rounding_control@W4__acrt_fenv_machine_sse_control@@W4__acrt_fenv_abstract_control@@@@YA?AW4__acrt_fenv_machine_sse_control@@W4__acrt_fenv_abstract_control@@@Z 00000001400359b0 f   libucrtd:_fenvutils.obj
 0001:00034a20       ??$translate_status@W4__acrt_fenv_abstract_status@@W4__acrt_fenv_machine_sse_status@@@@YA?AW4__acrt_fenv_abstract_status@@W4__acrt_fenv_machine_sse_status@@@Z 0000000140035a20 f   libucrtd:_fenvutils.obj
 0001:00034b10       ??$translate_status@W4__acrt_fenv_machine_sse_status@@W4__acrt_fenv_abstract_status@@@@YA?AW4__acrt_fenv_machine_sse_status@@W4__acrt_fenv_abstract_status@@@Z 0000000140035b10 f   libucrtd:_fenvutils.obj
 0001:00034de0       ?get_machine_sse_control@@YA?AW4__acrt_fenv_machine_sse_control@@XZ 0000000140035de0 f   libucrtd:_fenvutils.obj
 0001:00034e00       ?get_machine_sse_status@@YA?AW4__acrt_fenv_machine_sse_status@@XZ 0000000140035e00 f   libucrtd:_fenvutils.obj
 0001:00034e20       ?set_machine_sse_control@@YAXW4__acrt_fenv_machine_sse_control@@@Z 0000000140035e20 f   libucrtd:_fenvutils.obj
 0001:00034e80       ?set_machine_sse_status@@YAXW4__acrt_fenv_machine_sse_status@@@Z 0000000140035e80 f   libucrtd:_fenvutils.obj
 0001:00034ed0       ?to_abstract_control@@YA?AW4__acrt_fenv_abstract_control@@W4__acrt_fenv_machine_sse_control@@@Z 0000000140035ed0 f   libucrtd:_fenvutils.obj
 0001:00034f20       ?to_machine_sse_control@@YA?AW4__acrt_fenv_machine_sse_control@@W4__acrt_fenv_abstract_control@@@Z 0000000140035f20 f   libucrtd:_fenvutils.obj
 0001:00034f80       ?to_machine_sse_status@@YA?AW4__acrt_fenv_machine_sse_status@@W4__acrt_fenv_abstract_status@@@Z 0000000140035f80 f   libucrtd:_fenvutils.obj
 0001:00034fa0       ?translate_control_denormal_control_from_sse@@YA?AW4__acrt_fenv_abstract_control@@W4__acrt_fenv_machine_sse_control@@@Z 0000000140035fa0 f   libucrtd:_fenvutils.obj
 0001:00035020       ?translate_control_denormal_control_to_sse@@YA?AW4__acrt_fenv_machine_sse_control@@W4__acrt_fenv_abstract_control@@@Z 0000000140036020 f   libucrtd:_fenvutils.obj
 0001:00035140       ??$common_lseek_nolock@_J@@YA_JH_JH@Z 0000000140036140 f   libucrtd:lseek.obj
 0001:00035250       ?common_lseek_do_seek_nolock@@YA_JQEAX_JH@Z 0000000140036250 f   libucrtd:lseek.obj
 0001:000356f0       ?combine_second_surrogate@?A0xc60ee810@@YA_U_SPEAU_Mbstatet@@@Z 00000001400366f0 f   libucrtd:c16rtomb.obj
 0001:00035710       ?has_surrogate@?A0xc60ee810@@YA_NPEAU_Mbstatet@@@Z 0000000140036710 f   libucrtd:c16rtomb.obj
 0001:00035740       ?is_first_surrogate@?A0xc60ee810@@YA_N_S@Z 0000000140036740 f   libucrtd:c16rtomb.obj
 0001:00035780       ?is_second_surrogate@?A0xc60ee810@@YA_N_S@Z 0000000140036780 f   libucrtd:c16rtomb.obj
 0001:000357c0       ?store_first_surrogate@?A0xc60ee810@@YAX_SPEAU_Mbstatet@@@Z 00000001400367c0 f   libucrtd:c16rtomb.obj
 0001:00035900       _log_special_common        0000000140036900 f   libucrtd:log_special.obj
 0001:00035a20       _call_matherr              0000000140036a20 f   libucrtd:libm_error.obj
 0001:00035ab0       _exception_enabled         0000000140036ab0 f   libucrtd:libm_error.obj
 0001:00035dd0       _abstract_cw               0000000140036dd0 f   libucrtd:ieee.obj
 0001:00035f20       _abstract_sw               0000000140036f20 f   libucrtd:ieee.obj
 0001:00036000       _hw_cw                     0000000140037000 f   libucrtd:ieee.obj
 0001:00036150       common_control87           0000000140037150 f   libucrtd:ieee.obj
 0001:00036270       ??$?RV<lambda_53fc7fc888e23d815d7080162c0aeeb2>@@AEAV<lambda_4e7105787b7b0e0227fbf2b2d883fa65>@@V<lambda_8ddc48ad9d26c778cb15812d1d88fc8a>@@@?$__crt_seh_guarded_call@H@@QEAAH$$QEAV<lambda_53fc7fc888e23d815d7080162c0aeeb2>@@AEAV<lambda_4e7105787b7b0e0227fbf2b2d883fa65>@@$$QEAV<lambda_8ddc48ad9d26c778cb15812d1d88fc8a>@@@Z 0000000140037270 f   libucrtd:close.obj
 0001:000362c0       ??$__acrt_lowio_lock_fh_and_call@V<lambda_4e7105787b7b0e0227fbf2b2d883fa65>@@@@YAHH$$QEAV<lambda_4e7105787b7b0e0227fbf2b2d883fa65>@@@Z 00000001400372c0 f   libucrtd:close.obj
 0001:00036310       ??R<lambda_4e7105787b7b0e0227fbf2b2d883fa65>@@QEBAHXZ 0000000140037310 f   libucrtd:close.obj
 0001:000363c0       ?close_os_handle_nolock@@YAKH@Z 00000001400373c0 f   libucrtd:close.obj
 0001:00037170       $$000000                   0000000140038170     libucrtd:fpsr.obj
 0001:000374d0       $$000000                   00000001400384d0     LIBCMTD:chkstk.obj
 0001:00037610       $$000000                   0000000140038610     libvcruntimed:memcmp.obj
 0001:00037b10       $$000000                   0000000140038b10     LIBCMTD:guard_dispatch.obj
 0001:00037b30       ?filt$0@?0??__scrt_common_main_seh@@YAHXZ@4HA 0000000140038b30 f   LIBCMTD:exe_winmain.obj
 0001:00037b60       __scrt_is_nonwritable_in_current_image$filt$0 0000000140038b60 f   LIBCMTD:utility.obj
 0001:00037ba0       __DestructExceptionObject$filt$0 0000000140038ba0 f   libvcruntimed:ehhelpers.obj
 0001:00037bd0       ?filt$0@?0???$_CallSETranslator@V__FrameHandler3@@@@YAHPEAUEHExceptionRecord@@PEA_KPEAU_CONTEXT@@PEAU_xDISPATCHER_CONTEXT@@PEBU_s_FuncInfo@@K1@Z@4HA 0000000140038bd0 f   libvcruntimed:risctrnsctrl.obj
 0001:00037c30       ?filt$0@?0???$BuildCatchObjectHelperInternal@V__FrameHandler3@@@@YAHPEAUEHExceptionRecord@@PEAXPEBU_s_HandlerType@@PEBU_s_CatchableType@@@Z@4HA 0000000140038c30 f   libvcruntimed:frame.obj
 0001:00037c30       ?filt$0@?0???$BuildCatchObjectInternal@V__FrameHandler3@@@@YAXPEAUEHExceptionRecord@@PEAXPEBU_s_HandlerType@@PEBU_s_CatchableType@@@Z@4HA 0000000140038c30 f   libvcruntimed:frame.obj
 0001:00037c30       ?filt$0@?0??is_bad_read_pointer@@YA_NQEBX_K@Z@4HA 0000000140038c30 f   libucrtd:debug_heap.obj
 0001:00037c30       terminate$filt$0           0000000140038c30 f   libucrtd:terminate.obj
 0001:00037c50       ?filt$0@?0??CxxCallCatchBlock@__FrameHandler3@@SAPEAXPEAU_EXCEPTION_RECORD@@@Z@4HA 0000000140038c50 f   libvcruntimed:frame.obj
 0001:00037c79       ?fin$1@?0??CxxCallCatchBlock@__FrameHandler3@@SAPEAXPEAU_EXCEPTION_RECORD@@@Z@4HA 0000000140038c79 f   libvcruntimed:frame.obj
 0001:00037d10       ?filt$0@?0??FrameUnwindToState@__FrameHandler3@@SAXPEA_KPEAU_xDISPATCHER_CONTEXT@@PEBU_s_FuncInfo@@H@Z@4HA 0000000140038d10 f   libvcruntimed:frame.obj
 0001:00037d37       ?fin$1@?0??FrameUnwindToState@__FrameHandler3@@SAXPEA_KPEAU_xDISPATCHER_CONTEXT@@PEBU_s_FuncInfo@@H@Z@4HA 0000000140038d37 f   libvcruntimed:frame.obj
 0001:00037d70       ?fin$0@?0???$?RV<lambda_2d41944a1d46af3157314b8a01080d33>@@AEAV<lambda_8f455de75cd7d7f24b4096f044d8b9e6>@@V<lambda_aa500f224e6afead328df44964fe2772>@@@?$__crt_seh_guarded_call@X@@QEAAX$$QEAV<lambda_2d41944a1d46af3157314b8a01080d33>@@AEAV<lambda_8f455de75cd7d7f24b4096f044d8b9e6>@@$$QEAV<lambda_aa500f224e6afead328df44964fe2772>@@@Z@4HA 0000000140038d70 f   libucrtd:per_thread_data.obj
 0001:00037d70       ?fin$0@?0???$?RV<lambda_0ae27a3a962d80f24befdcbee591983d>@@AEAV<lambda_8d0ee55de4b1038c4002e0adecdf1839>@@V<lambda_dc504788e8f1664fe9b84e20bfb512f2>@@@?$__crt_seh_guarded_call@X@@QEAAX$$QEAV<lambda_0ae27a3a962d80f24befdcbee591983d>@@AEAV<lambda_8d0ee55de4b1038c4002e0adecdf1839>@@$$QEAV<lambda_dc504788e8f1664fe9b84e20bfb512f2>@@@Z@4HA 0000000140038d70 f   libucrtd:per_thread_data.obj
 0001:00037d70       ?fin$0@?0???$?RV<lambda_aa87e3671a710a21b5dc78c0bdf72e11>@@AEAV<lambda_92619d2358a28f41a33ba319515a20b9>@@V<lambda_6992ecaafeb10aed2b74cb1fae11a551>@@@?$__crt_seh_guarded_call@X@@QEAAX$$QEAV<lambda_aa87e3671a710a21b5dc78c0bdf72e11>@@AEAV<lambda_92619d2358a28f41a33ba319515a20b9>@@$$QEAV<lambda_6992ecaafeb10aed2b74cb1fae11a551>@@@Z@4HA 0000000140038d70 f   libucrtd:per_thread_data.obj
 0001:00037d70       ?fin$0@?0???$?RV<lambda_886d6c58226a84441f68b9f2b8217b83>@@AEAV<lambda_ab61a845afdef5b7c387490eaf3616ee>@@V<lambda_f7f22ab5edc0698d5f6905b0d3f44752>@@@?$__crt_seh_guarded_call@X@@QEAAX$$QEAV<lambda_886d6c58226a84441f68b9f2b8217b83>@@AEAV<lambda_ab61a845afdef5b7c387490eaf3616ee>@@$$QEAV<lambda_f7f22ab5edc0698d5f6905b0d3f44752>@@@Z@4HA 0000000140038d70 f   libucrtd:fflush.obj
 0001:00037d70       ?fin$0@?0???$?RV<lambda_efa02eb69bf647d2f7ff0dd6f1103f72>@@AEAV<lambda_bd5a608237428601b7e45fbdc72b1ae8>@@V<lambda_728235dc0fc2b1f82d1fa5b3e7102d8f>@@@?$__crt_seh_guarded_call@X@@QEAAX$$QEAV<lambda_efa02eb69bf647d2f7ff0dd6f1103f72>@@AEAV<lambda_bd5a608237428601b7e45fbdc72b1ae8>@@$$QEAV<lambda_728235dc0fc2b1f82d1fa5b3e7102d8f>@@@Z@4HA 0000000140038d70 f   libucrtd:mbctype.obj
 0001:00037d70       ?fin$0@?0???$?RV<lambda_74a0ef281e44d15e1136f792f539efb3>@@AEAV<lambda_e157831efee4ea0afb0a2ace5dd5fd0d>@@V<lambda_04ddeca75b7c13fd67716e8dfcef87ee>@@@?$__crt_seh_guarded_call@X@@QEAAX$$QEAV<lambda_74a0ef281e44d15e1136f792f539efb3>@@AEAV<lambda_e157831efee4ea0afb0a2ace5dd5fd0d>@@$$QEAV<lambda_04ddeca75b7c13fd67716e8dfcef87ee>@@@Z@4HA 0000000140038d70 f   libucrtd:per_thread_data.obj
 0001:00037d70       ?fin$0@?0???$?RV<lambda_410d79af7f07d98d83a3f525b3859a53>@@AEAV<lambda_3e16ef9562a7dcce91392c22ab16ea36>@@V<lambda_38119f0e861e05405d8a144b9b982f0a>@@@?$__crt_seh_guarded_call@X@@QEAAX$$QEAV<lambda_410d79af7f07d98d83a3f525b3859a53>@@AEAV<lambda_3e16ef9562a7dcce91392c22ab16ea36>@@$$QEAV<lambda_38119f0e861e05405d8a144b9b982f0a>@@@Z@4HA 0000000140038d70 f   libucrtd:wsetlocale.obj
 0001:00037d70       ?fin$0@?0???$?RV<lambda_d80eeec6fff315bfe5c115232f3240e3>@@AEAV<lambda_6e4b09c48022b2350581041d5f6b0c4c>@@V<lambda_2358e3775559c9db80273638284d5e45>@@@?$__crt_seh_guarded_call@X@@QEAAX$$QEAV<lambda_d80eeec6fff315bfe5c115232f3240e3>@@AEAV<lambda_6e4b09c48022b2350581041d5f6b0c4c>@@$$QEAV<lambda_2358e3775559c9db80273638284d5e45>@@@Z@4HA 0000000140038d70 f   libucrtd:exit.obj
 0001:00037d90       ?filt$0@?0???R<lambda_6e4b09c48022b2350581041d5f6b0c4c>@@QEBA@XZ@4HA 0000000140038d90 f   libucrtd:exit.obj
 0001:00037dc0       ?fin$0@?0???$?RV<lambda_450d765d439847d4c735a33c368b5fc0>@@AEAV<lambda_44731a7d0e6d81c3e6aa82d741081786>@@V<lambda_601a2a7da3b7a96e9554ac7215c4b07c>@@@?$__crt_seh_guarded_call@P6AXH@Z@@QEAAP6AXH@Z$$QEAV<lambda_450d765d439847d4c735a33c368b5fc0>@@AEAV<lambda_44731a7d0e6d81c3e6aa82d741081786>@@$$QEAV<lambda_601a2a7da3b7a96e9554ac7215c4b07c>@@@Z@4HA 0000000140038dc0 f   libucrtd:signal.obj
 0001:00037dc0       ?fin$0@?0???$?RV<lambda_dce957679fd779aa27c4ca5c39e09098>@@AEAV<lambda_3b83eb014488ad801d84acef5aaf14d3>@@V<lambda_00e911965883f7966597d4c465c83ebc>@@@?$__crt_seh_guarded_call@H@@QEAAH$$QEAV<lambda_dce957679fd779aa27c4ca5c39e09098>@@AEAV<lambda_3b83eb014488ad801d84acef5aaf14d3>@@$$QEAV<lambda_00e911965883f7966597d4c465c83ebc>@@@Z@4HA 0000000140038dc0 f   libucrtd:onexit.obj
 0001:00037dc0       ?fin$0@?0???$?RV<lambda_6a47f4c8fd0152770a780fc1d70204eb>@@AEAV<lambda_d121dba8a4adeaf3a9819e48611155df>@@V<lambda_6aaa2265f5b6a89667e7d7630012e97a>@@@?$__crt_seh_guarded_call@H@@QEAAH$$QEAV<lambda_6a47f4c8fd0152770a780fc1d70204eb>@@AEAV<lambda_d121dba8a4adeaf3a9819e48611155df>@@$$QEAV<lambda_6aaa2265f5b6a89667e7d7630012e97a>@@@Z@4HA 0000000140038dc0 f   libucrtd:onexit.obj
 0001:00037de0       ?dtor$0@?0???R<lambda_d121dba8a4adeaf3a9819e48611155df>@@QEBAHXZ@4HA 0000000140038de0 f   libucrtd:onexit.obj
 0001:00037e00       _CrtMemCheckpoint$fin$0    0000000140038e00 f   libucrtd:debug_heap.obj
 0001:00037e00       ?fin$0@?0??heap_alloc_dbg_internal@@YAPEAX_KHQEBDH@Z@4HA 0000000140038e00 f   libucrtd:debug_heap.obj
 0001:00037e20       ?fin$0@?0??validate_heap_if_required_nolock@@YAXXZ@4HA 0000000140038e20 f   libucrtd:debug_heap.obj
 0001:00037e40       _CrtMemDumpAllObjectsSince$fin$0 0000000140038e40 f   libucrtd:debug_heap.obj
 0001:00037e40       _CrtCheckMemory$fin$0      0000000140038e40 f   libucrtd:debug_heap.obj
 0001:00037e40       _msize_dbg$fin$0           0000000140038e40 f   libucrtd:debug_heap.obj
 0001:00037e40       _realloc_dbg$fin$0         0000000140038e40 f   libucrtd:debug_heap.obj
 0001:00037e40       _CrtSetDbgFlag$fin$0       0000000140038e40 f   libucrtd:debug_heap.obj
 0001:00037e60       _query_new_handler$fin$0   0000000140038e60 f   libucrtd:new_handler.obj
 0001:00037e60       _free_dbg$fin$0            0000000140038e60 f   libucrtd:debug_heap.obj
 0001:00037e80       ?fin$0@?0??update_thread_multibyte_data_internal@@YAPEAU__crt_multibyte_data@@QEAU__acrt_ptd@@QEAPEAU1@@Z@4HA 0000000140038e80 f   libucrtd:mbctype.obj
 0001:00037ea0       __acrt_lowio_ensure_fh_exists$fin$0 0000000140038ea0 f   libucrtd:osfinfo.obj
 0001:00037ec0       __acrt_initialize_lowio$fin$0 0000000140038ec0 f   libucrtd:ioinit.obj
 0001:00037ee0       __acrt_update_thread_locale_data$fin$0 0000000140038ee0 f   libucrtd:locale_refcounting.obj
 0001:00037f00       raise$fin$0                0000000140038f00 f   libucrtd:signal.obj
 0001:00037f30       _VCrtDbgReportA$fin$0      0000000140038f30 f   libucrtd:dbgrptt.obj
 0001:00037f4b       _VCrtDbgReportA$fin$1      0000000140038f4b f   libucrtd:dbgrptt.obj
 0001:00037f70       _VCrtDbgReportW$fin$0      0000000140038f70 f   libucrtd:dbgrptt.obj
 0001:00037f8b       _VCrtDbgReportW$fin$1      0000000140038f8b f   libucrtd:dbgrptt.obj
 0001:00037fb0       ?dtor$0@?0??fp_format_a@@YAHQEBNPEAD_KQEAD2H_NIQEAU__crt_locale_pointers@@W4__acrt_rounding_mode@@@Z@4HA 0000000140038fb0 f   libucrtd:cvt.obj
 0001:00037fd0       ?dtor$0@?0??shortsort@@YAXPEAD0_KP6AHPEBX2@Z@Z@4HA 0000000140038fd0 f   libucrtd:qsort.obj
 0001:00037ff0       ?fin$0@?0???$?RV<lambda_842d9ff0dc9ef11c61343bbaebe7f885>@@AEAV<lambda_c5860995281e5c4ce005b3de8f5874ee>@@V<lambda_d90129c13df834fdcbf8d2b88dafcf2d>@@@?$__crt_seh_guarded_call@X@@QEAAX$$QEAV<lambda_842d9ff0dc9ef11c61343bbaebe7f885>@@AEAV<lambda_c5860995281e5c4ce005b3de8f5874ee>@@$$QEAV<lambda_d90129c13df834fdcbf8d2b88dafcf2d>@@@Z@4HA 0000000140038ff0 f   libucrtd:fflush.obj
 0001:00038010       ?dtor$0@?0??_wcstombs_l_helper@@YA_KPEADPEB_W_KPEAU__crt_locale_pointers@@@Z@4HA 0000000140039010 f   libucrtd:wcstombs.obj
 0001:00038030       _fcloseall$fin$0           0000000140039030 f   libucrtd:closeall.obj
 0001:00038050       ?fin$0@?0???$?RV<lambda_53fc7fc888e23d815d7080162c0aeeb2>@@AEAV<lambda_4e7105787b7b0e0227fbf2b2d883fa65>@@V<lambda_8ddc48ad9d26c778cb15812d1d88fc8a>@@@?$__crt_seh_guarded_call@H@@QEAAH$$QEAV<lambda_53fc7fc888e23d815d7080162c0aeeb2>@@AEAV<lambda_4e7105787b7b0e0227fbf2b2d883fa65>@@$$QEAV<lambda_8ddc48ad9d26c778cb15812d1d88fc8a>@@@Z@4HA 0000000140039050 f   libucrtd:close.obj
 0001:00038050       ?fin$0@?0???$?RV<lambda_4e3dbe6921bc0b5a1a6bc6573fdc859e>@@AEAV<lambda_5533cddd4bda0037814beee657757329>@@V<lambda_47cffbaa968af5c721c38a4a6f8da44d>@@@?$__crt_seh_guarded_call@H@@QEAAH$$QEAV<lambda_4e3dbe6921bc0b5a1a6bc6573fdc859e>@@AEAV<lambda_5533cddd4bda0037814beee657757329>@@$$QEAV<lambda_47cffbaa968af5c721c38a4a6f8da44d>@@@Z@4HA 0000000140039050 f   libucrtd:commit.obj
 0001:00038070       _write$fin$0               0000000140039070 f   libucrtd:write.obj
 0001:00038090       fclose$fin$0               0000000140039090 f   libucrtd:fclose.obj
 0001:000380c0       common_control87$filt$0    00000001400390c0 f   libucrtd:ieee.obj
 0001:00038110       _ctrlfp$filt$0             0000000140039110 f   libucrtd:fpctrl.obj
 0001:00038160       _IsNonwritableInCurrentImage$filt$0 0000000140039160 f   LIBCMTD:pesect.obj
 0002:000002f8       ?pre_cpp_initializer@@3P6AXXZEA 000000014003a2f8     LIBCMTD:exe_winmain.obj
 0002:00000310       ?pre_c_initializer@@3P6AHXZEA 000000014003a310     LIBCMTD:exe_winmain.obj
 0002:00000318       ?post_pgo_initializer@@3P6AHXZEA 000000014003a318     LIBCMTD:exe_winmain.obj
 0002:00000380       $SG147471                  000000014003a380     win32_main.obj
 0002:00000390       $SG147473                  000000014003a390     win32_main.obj
 0002:000003a0       $SG147475                  000000014003a3a0     win32_main.obj
 0002:000003c0       $SG147476                  000000014003a3c0     win32_main.obj
 0002:000003e8       $SG147477                  000000014003a3e8     win32_main.obj
 0002:00000400       $SG147478                  000000014003a400     win32_main.obj
 0002:00000450       GS_ExceptionPointers       000000014003a450     LIBCMTD:gs_report.obj
 0002:000004c0       ?module_names@?A0xbfd18cd1@@3QBQEB_WB 000000014003a4c0     libvcruntimed:winapi_downlevel.obj
 0002:00000750       ?candidate_modules@?1??try_get_FlsAlloc@@YAP6AKP6AXPEAX@Z@ZXZ@4QBW4module_id@?A0xbfd18cd1@@B 000000014003a750     libvcruntimed:winapi_downlevel.obj
 0002:00000768       ?candidate_modules@?1??try_get_FlsFree@@YAP6AHK@ZXZ@4QBW4module_id@?A0xbfd18cd1@@B 000000014003a768     libvcruntimed:winapi_downlevel.obj
 0002:00000778       ?candidate_modules@?1??try_get_FlsGetValue@@YAP6APEAXK@ZXZ@4QBW4module_id@?A0xbfd18cd1@@B 000000014003a778     libvcruntimed:winapi_downlevel.obj
 0002:00000790       ?candidate_modules@?1??try_get_FlsSetValue@@YAP6AHKPEAX@ZXZ@4QBW4module_id@?A0xbfd18cd1@@B 000000014003a790     libvcruntimed:winapi_downlevel.obj
 0002:000007a8       ?candidate_modules@?1??try_get_InitializeCriticalSectionEx@@YAP6AHPEAU_RTL_CRITICAL_SECTION@@KK@ZXZ@4QBW4module_id@?A0xbfd18cd1@@B 000000014003a7a8     libvcruntimed:winapi_downlevel.obj
 0002:000007d0       ?tokenTable@@3QBQEBDB      000000014003a7d0     libvcruntimed:undname.obj
 0002:00000850       ?nameTable@@3QBQEBDB       000000014003a850     libvcruntimed:undname.obj
 0002:00000ae0       ?rttiTable@@3QBQEBDB       000000014003aae0     libvcruntimed:undname.obj
 0002:000011a0       ?ExceptionTemplate@?1??UnwindNestedFrames@__FrameHandler3@@SAXPEA_KPEAUEHExceptionRecord@@PEAU_CONTEXT@@0PEAXPEBU_s_FuncInfo@@HHPEBU_s_HandlerType@@PEAU_xDISPATCHER_CONTEXT@@E@Z@4U_EXCEPTION_RECORD@@B 000000014003b1a0     libvcruntimed:risctrnsctrl.obj
 0002:00001380       ?ExceptionTemplate@?1??_CxxThrowException@@9@4UEHExceptionRecord@@B 000000014003b380     libvcruntimed:throw.obj
 0002:00002008       $cppxdata$??R<lambda_d121dba8a4adeaf3a9819e48611155df>@@QEBAHXZ 000000014003c008     libucrtd:onexit.obj
 0002:00002070       __acrt_initializers        000000014003c070     libucrtd:initialization.obj
 0002:00002170       ?block_use_names@@3QBQEBDB 000000014003c170     libucrtd:debug_heap.obj
 0002:000032e0       ?report_type_messages@@3QBQEB_WB 000000014003d2e0     libucrtd:dbgrpt.obj
 0002:00003340       ?more_info_string@@3QEB_WEB 000000014003d340     libucrtd:dbgrpt.obj
 0002:0000364e       ?empty_string@?1???$common_message_window@D@@YAHHQEAXQEBD111@Z@4QBDB 000000014003d64e     libucrtd:dbgrpt.obj
 0002:000038c8       ?empty_string@?1???$common_message_window@_W@@YAHHQEAXQEB_W111@Z@4QB_WB 000000014003d8c8     libucrtd:dbgrpt.obj
 0002:00005f00       ?errtable@@3QBUerrentry@?A0x31fdb9ec@@B 000000014003ff00     libucrtd:errno.obj
 0002:00006090       $cppxdata$??1?$__crt_win32_buffer@DU__crt_win32_buffer_internal_dynamic_resizing@@@@QEAA@XZ 0000000140040090     libucrtd:argv_wildcards.obj
 0002:00006090       $cppxdata$??1?$__crt_win32_buffer@_WU__crt_win32_buffer_internal_dynamic_resizing@@@@QEAA@XZ 0000000140040090     libucrtd:argv_wildcards.obj
 0002:000064a8       $cppxdata$??1?$__crt_win32_buffer@DU__crt_win32_buffer_no_resizing@@@@QEAA@XZ 00000001400404a8     libucrtd:getmodulefilenamea.obj
 0002:000064d0       ?_mb_locale_names@@3QBQEB_WB 00000001400404d0     libucrtd:mbctype.obj
 0002:00007ad0       ?module_names@?A0x391cf84c@@3QBQEB_WB 0000000140041ad0     libucrtd:winapi_thunks.obj
 0002:00008044       ?candidate_modules@?1??try_get_AreFileApisANSI@@YAP6AHXZXZ@4QBW4module_id@?A0x391cf84c@@B 0000000140042044     libucrtd:winapi_thunks.obj
 0002:00008058       ?candidate_modules@?1??try_get_FlsAlloc@@YAP6AKP6AXPEAX@Z@ZXZ@4QBW4module_id@?A0x391cf84c@@B 0000000140042058     libucrtd:winapi_thunks.obj
 0002:00008060       ?candidate_modules@?1??try_get_FlsFree@@YAP6AHK@ZXZ@4QBW4module_id@?A0x391cf84c@@B 0000000140042060     libucrtd:winapi_thunks.obj
 0002:00008068       ?candidate_modules@?1??try_get_FlsGetValue@@YAP6APEAXK@ZXZ@4QBW4module_id@?A0x391cf84c@@B 0000000140042068     libucrtd:winapi_thunks.obj
 0002:00008070       ?candidate_modules@?1??try_get_FlsSetValue@@YAP6AHKPEAX@ZXZ@4QBW4module_id@?A0x391cf84c@@B 0000000140042070     libucrtd:winapi_thunks.obj
 0002:00008078       ?candidate_modules@?1??try_get_GetActiveWindow@@YAP6APEAUHWND__@@XZXZ@4QBW4module_id@?A0x391cf84c@@B 0000000140042078     libucrtd:winapi_thunks.obj
 0002:00008090       ?candidate_modules@?1??try_get_GetLastActivePopup@@YAP6APEAUHWND__@@PEAU2@@ZXZ@4QBW4module_id@?A0x391cf84c@@B 0000000140042090     libucrtd:winapi_thunks.obj
 0002:000080b0       ?candidate_modules@?1??try_get_GetProcessWindowStation@@YAP6APEAUHWINSTA__@@XZXZ@4QBW4module_id@?A0x391cf84c@@B 00000001400420b0     libucrtd:winapi_thunks.obj
 0002:000080d0       ?candidate_modules@?1??try_get_GetUserObjectInformationW@@YAP6AHPEAXH0KPEAK@ZXZ@4QBW4module_id@?A0x391cf84c@@B 00000001400420d0     libucrtd:winapi_thunks.obj
 0002:000080f8       ?candidate_modules@?1??try_get_InitializeCriticalSectionEx@@YAP6AHPEAU_RTL_CRITICAL_SECTION@@KK@ZXZ@4QBW4module_id@?A0x391cf84c@@B 00000001400420f8     libucrtd:winapi_thunks.obj
 0002:00008100       ?candidate_modules@?1??try_get_LCMapStringEx@@YAP6AHPEB_WK0HPEA_WHPEAU_nlsversioninfo@@PEAX_J@ZXZ@4QBW4module_id@?A0x391cf84c@@B 0000000140042100     libucrtd:winapi_thunks.obj
 0002:00008118       ?candidate_modules@?1??try_get_LocaleNameToLCID@@YAP6AKPEB_WK@ZXZ@4QBW4module_id@?A0x391cf84c@@B 0000000140042118     libucrtd:winapi_thunks.obj
 0002:00008138       ?candidate_modules@?1??try_get_MessageBoxA@@YAP6AHPEAUHWND__@@PEBD1I@ZXZ@4QBW4module_id@?A0x391cf84c@@B 0000000140042138     libucrtd:winapi_thunks.obj
 0002:00008150       ?candidate_modules@?1??try_get_MessageBoxW@@YAP6AHPEAUHWND__@@PEB_W1I@ZXZ@4QBW4module_id@?A0x391cf84c@@B 0000000140042150     libucrtd:winapi_thunks.obj
 0002:00008164       ?candidate_modules@?1??try_get_AppPolicyGetProcessTerminationMethod@@YAP6AJPEAXPEAW4AppPolicyProcessTerminationMethod@@@ZXZ@4QBW4module_id@?A0x391cf84c@@B 0000000140042164     libucrtd:winapi_thunks.obj
 0002:00008190       ?candidate_modules@?1??try_get_AppPolicyGetShowDeveloperDiagnostic@@YAP6AJPEAXPEAW4AppPolicyShowDeveloperDiagnostic@@@ZXZ@4QBW4module_id@?A0x391cf84c@@B 0000000140042190     libucrtd:winapi_thunks.obj
 0002:000081bc       ?candidate_modules@?1??try_get_AppPolicyGetWindowingModel@@YAP6AJPEAXPEAW4AppPolicyWindowingModel@@@ZXZ@4QBW4module_id@?A0x391cf84c@@B 00000001400421bc     libucrtd:winapi_thunks.obj
 0002:000095b0       $cppxdata$?fp_format_a@@YAHQEBNPEAD_KQEAD2H_NIQEAU__crt_locale_pointers@@W4__acrt_rounding_mode@@@Z 00000001400435b0     libucrtd:cvt.obj
 0002:000095e0       ?strings@?1??fp_format_nan_or_infinity@@YAHW4__acrt_fp_class@@_NPEAD_K1@Z@4QAY03QEBDA 00000001400435e0     libucrtd:cvt.obj
 0002:00009cc0       $cppxdata$?shortsort@@YAXPEAD0_KP6AHPEBX2@Z@Z 0000000140043cc0     libucrtd:qsort.obj
 0002:0000a0a0       ?LcidToLocaleNameTable@?A0x881e4c05@@3QBULcidToLocaleName@1@B 00000001400440a0     libucrtd:lcidtoname_downlevel.obj
 0002:0000baf0       ?LocaleNameToIndexTable@?A0x881e4c05@@3QBULocaleNameIndex@1@B 0000000140045af0     libucrtd:lcidtoname_downlevel.obj
 0002:0000d5d0       $cppxdata$?_wcstombs_l_helper@@YA_KPEADPEB_W_KPEAU__crt_locale_pointers@@@Z 00000001400475d0     libucrtd:wcstombs.obj
 0002:0000eba0       __real_ninf                0000000140048ba0     libucrtd:log10.obj
 0002:0000ebb0       __real_inf                 0000000140048bb0     libucrtd:log10.obj
 0002:0000ebc0       __real_neg_qnan            0000000140048bc0     libucrtd:log10.obj
 0002:0000ebd0       __real_qnanbit             0000000140048bd0     libucrtd:log10.obj
 0002:0000ebe0       __int_1023                 0000000140048be0     libucrtd:log10.obj
 0002:0000ebf0       __mask_001                 0000000140048bf0     libucrtd:log10.obj
 0002:0000ec00       __mask_mant                0000000140048c00     libucrtd:log10.obj
 0002:0000ec10       __mask_mant_top8           0000000140048c10     libucrtd:log10.obj
 0002:0000ec20       __mask_mant9               0000000140048c20     libucrtd:log10.obj
 0002:0000ec30       __real_log10_e             0000000140048c30     libucrtd:log10.obj
 0002:0000ec40       __real_log10_e_lead        0000000140048c40     libucrtd:log10.obj
 0002:0000ec50       __real_log10_e_tail        0000000140048c50     libucrtd:log10.obj
 0002:0000ec60       __real_log10_2_lead        0000000140048c60     libucrtd:log10.obj
 0002:0000ec70       __real_log10_2_tail        0000000140048c70     libucrtd:log10.obj
 0002:0000ec80       __real_two                 0000000140048c80     libucrtd:log10.obj
 0002:0000ec90       __real_one                 0000000140048c90     libucrtd:log10.obj
 0002:0000eca0       __real_half                0000000140048ca0     libucrtd:log10.obj
 0002:0000ecb0       __mask_100                 0000000140048cb0     libucrtd:log10.obj
 0002:0000ecc0       __real_1_over_512          0000000140048cc0     libucrtd:log10.obj
 0002:0000ecd0       __real_1_over_2            0000000140048cd0     libucrtd:log10.obj
 0002:0000ece0       __real_1_over_3            0000000140048ce0     libucrtd:log10.obj
 0002:0000ecf0       __real_1_over_4            0000000140048cf0     libucrtd:log10.obj
 0002:0000ed00       __real_1_over_5            0000000140048d00     libucrtd:log10.obj
 0002:0000ed10       __real_1_over_6            0000000140048d10     libucrtd:log10.obj
 0002:0000ed20       __real_neg_1023            0000000140048d20     libucrtd:log10.obj
 0002:0000ed30       __mask_2045                0000000140048d30     libucrtd:log10.obj
 0002:0000ed40       __real_threshold           0000000140048d40     libucrtd:log10.obj
 0002:0000ed50       __real_near_one_lt         0000000140048d50     libucrtd:log10.obj
 0002:0000ed60       __real_near_one_gt         0000000140048d60     libucrtd:log10.obj
 0002:0000ed70       __real_min_norm            0000000140048d70     libucrtd:log10.obj
 0002:0000ed80       __real_notsign             0000000140048d80     libucrtd:log10.obj
 0002:0000ed90       __real_ca1                 0000000140048d90     libucrtd:log10.obj
 0002:0000eda0       __real_ca2                 0000000140048da0     libucrtd:log10.obj
 0002:0000edb0       __real_ca3                 0000000140048db0     libucrtd:log10.obj
 0002:0000edc0       __real_ca4                 0000000140048dc0     libucrtd:log10.obj
 0002:0000edd0       __mask_lower               0000000140048dd0     libucrtd:log10.obj
 0002:0000ede0       __flag_x_zero              0000000140048de0     libucrtd:log10.obj
 0002:0000ede4       __flag_x_neg               0000000140048de4     libucrtd:log10.obj
 0002:0000ede8       __flag_x_nan               0000000140048de8     libucrtd:log10.obj
 0002:00010960       __real@433fffffffffffff    000000014004a960     libucrtd:fpsr.obj
 0002:00010968       __real@c33fffffffffffff    000000014004a968     libucrtd:fpsr.obj
 0002:00010f80       $unwind$WinMain            000000014004af80     win32_main.obj
 0002:00010f94       $unwind$?Win32MainWindowCallBack@@YA_JPEAUHWND__@@I_K_J@Z 000000014004af94     win32_main.obj
 0002:00010fa4       $unwind$?V2i@@YA?ATv2i@@HH@Z 000000014004afa4     win32_main.obj
 0002:00010fb4       $unwind$_invalid_parameter_noinfo 000000014004afb4     libucrtd:invalid_parameter.obj
 0002:00010fb4       $unwind$__scrt_is_managed_app 000000014004afb4     LIBCMTD:utility_desktop.obj
 0002:00010fb4       $unwind$__scrt_initialize_default_local_stdio_options 000000014004afb4     LIBCMTD:default_local_stdio_options.obj
 0002:00010fb4       $unwind$_errno             000000014004afb4     libucrtd:errno.obj
 0002:00010fb4       $unwind$__acrt_can_show_message_box 000000014004afb4     libucrtd:winapi_thunks.obj
 0002:00010fb4       $unwind$?initialize_multibyte@@YAHXZ 000000014004afb4     libucrtd:multibyte_initializer.obj
 0002:00010fb4       $unwind$__security_init_cookie 000000014004afb4     LIBCMTD:gs_support.obj
 0002:00010fb4       $unwind$_clearfp           000000014004afb4     libucrtd:ieee.obj
 0002:00010fb4       $unwind$__vcrt_initialize_locks 000000014004afb4     libvcruntimed:locks.obj
 0002:00010fb4       $unwind$_clrfp             000000014004afb4     libucrtd:fpctrl.obj
 0002:00010fb4       $unwind$abort              000000014004afb4     libucrtd:abort.obj
 0002:00010fb4       $unwind$__doserrno         000000014004afb4     libucrtd:errno.obj
 0002:00010fb4       $unwind$__acrt_uninitialize_stdio 000000014004afb4     libucrtd:_file.obj
 0002:00010fb4       $unwind$?set_commode@__scrt_file_policy@@SAXXZ 000000014004afb4     LIBCMTD:exe_winmain.obj
 0002:00010fb4       $unwind$_guard_icall_checks_enforced 000000014004afb4     LIBCMTD:guard_support.obj
 0002:00010fb4       $unwind$__vcrt_getptd      000000014004afb4     libvcruntimed:per_thread_data.obj
 0002:00010fb4       $unwind$?invoke_main@@YAHXZ 000000014004afb4     LIBCMTD:exe_winmain.obj
 0002:00010fb4       $unwind$_statfp            000000014004afb4     libucrtd:fpctrl.obj
 0002:00010fb4       $unwind$?try_get_ptd_head@@YAPEAU__acrt_ptd@@XZ 000000014004afb4     libucrtd:per_thread_data.obj
 0002:00010fb4       $unwind$?Win32GetClock@@YA?AT_LARGE_INTEGER@@XZ 000000014004afb4     win32_main.obj
 0002:00010fb4       $unwind$?should_write_error_to_console@@YA_NXZ 000000014004afb4     libucrtd:report_runtime_error.obj
 0002:00010fb4       $unwind$__acrt_initialize_multibyte 000000014004afb4     libucrtd:mbctype.obj
 0002:00010fb4       $unwind$__acrt_has_user_matherr 000000014004afb4     libucrtd:matherr.obj
 0002:00010fb4       $unwind$__pctype_func      000000014004afb4     libucrtd:ctype.obj
 0002:00010fb4       $unwind$initialize_pointers 000000014004afb4     libucrtd:initialization.obj
 0002:00010fb4       $unwind$__vcrt_initialize_pure_virtual_call_handler 000000014004afb4     libvcruntimed:purevirt_data.obj
 0002:00010fb4       $unwind$__acrt_update_thread_multibyte_data 000000014004afb4     libucrtd:mbctype.obj
 0002:00010fb4       $unwind$__acrt_fenv_get_status 000000014004afb4     libucrtd:_fenvutils.obj
 0002:00010fb4       $unwind$__acrt_fenv_get_control 000000014004afb4     libucrtd:_fenvutils.obj
 0002:00010fb4       $unwind$__vcrt_uninitialize_locks 000000014004afb4     libvcruntimed:locks.obj
 0002:00010fb4       $unwind$__acrt_getptd      000000014004afb4     libucrtd:per_thread_data.obj
 0002:00010fb4       $unwind$__acrt_initialize_locks 000000014004afb4     libucrtd:locks.obj
 0002:00010fb4       $unwind$?get_machine_sse_status@@YA?AW4__acrt_fenv_machine_sse_status@@XZ 000000014004afb4     libucrtd:_fenvutils.obj
 0002:00010fb4       $unwind$?get_machine_sse_control@@YA?AW4__acrt_fenv_machine_sse_control@@XZ 000000014004afb4     libucrtd:_fenvutils.obj
 0002:00010fb4       $unwind$__acrt_AreFileApisANSI 000000014004afb4     libucrtd:winapi_thunks.obj
 0002:00010fb4       $unwind$?should_call_terminate_process@@YA_NXZ 000000014004afb4     libucrtd:exit.obj
 0002:00010fb4       $unwind$?is_managed_app@@YA_NXZ 000000014004afb4     libucrtd:exit.obj
 0002:00010fb4       $unwind$__acrt_getptd_head 000000014004afb4     libucrtd:per_thread_data.obj
 0002:00010fbc       $unwind$?Win32GetLastFileTime@@YA?AU_FILETIME@@PEAD@Z 000000014004afbc     win32_main.obj
 0002:00010fcc       $unwind$?Win32LoadDemoCode@@YAXPEAUprog_demo_code@@@Z 000000014004afcc     win32_main.obj
 0002:00010fdc       $unwind$__GSHandlerCheckCommon 000000014004afdc     LIBCMTD:gshandler.obj
 0002:00010fdc       $unwind$__ascii_wcsnicmp   000000014004afdc     libucrtd:wcsnicmp.obj
 0002:00010fdc       $unwind$??$TypeMatchHelper@V__FrameHandler3@@@@YAHPEBU_s_HandlerType@@PEBU_s_CatchableType@@PEBU_s_ThrowInfo@@@Z 000000014004afdc     libvcruntimed:frame.obj
 0002:00010fe4       $unwind$??0?$output_adapter_data@_WV?$string_output_adapter@_W@__crt_stdio_output@@@__crt_stdio_output@@IEAA@AEBV?$string_output_adapter@_W@1@_KQEB_WQEAU__crt_locale_pointers@@QEAD@Z 000000014004afe4     libucrtd:output.obj
 0002:00010fe4       $unwind$__GSHandlerCheck   000000014004afe4     LIBCMTD:gshandler.obj
 0002:00010fe4       $unwind$?BuildCatchObject@__FrameHandler3@@SAXPEAUEHExceptionRecord@@PEAXPEBU_s_HandlerType@@PEBU_s_CatchableType@@@Z 000000014004afe4     libvcruntimed:frame.obj
 0002:00010fe4       $unwind$??$message_box@PEAUHWND__@@AEBQEB_WAEBQEB_WAEBI@?$__crt_char_traits@_W@@SAH$$QEAPEAUHWND__@@AEBQEB_W1AEBI@Z 000000014004afe4     libucrtd:crtmbox.obj
 0002:00010fe4       $unwind$?shift_bytes@@YAXQEAD_K0H@Z 000000014004afe4     libucrtd:cvt.obj
 0002:00010fe4       $unwind$??$message_box@$$TAEBQEB_WAEBQEB_WK@?$__crt_char_traits@_W@@SAH$$QEA$$TAEBQEB_W1$$QEAK@Z 000000014004afe4     libucrtd:crtmbox.obj
 0002:00010fe4       $unwind$_invoke_watson     000000014004afe4     libucrtd:invalid_parameter.obj
 0002:00010fe4       $unwind$wcsncpy_s          000000014004afe4     libucrtd:wcsncpy_s.obj
 0002:00010fe4       $unwind$??$tcsncpy_s@PEAD_KAEBQEBDAEB_K@?$__crt_char_traits@D@@SAH$$QEAPEAD$$QEA_KAEBQEBDAEB_K@Z 000000014004afe4     libucrtd:argv_wildcards.obj
 0002:00010fe4       $unwind$??0?$output_adapter_data@DV?$string_output_adapter@D@__crt_stdio_output@@@__crt_stdio_output@@IEAA@AEBV?$string_output_adapter@D@1@_KQEBDQEAU__crt_locale_pointers@@QEAD@Z 000000014004afe4     libucrtd:output.obj
 0002:00010fe4       $unwind$strncpy_s          000000014004afe4     libucrtd:strncpy_s.obj
 0002:00010fe4       $unwind$??$tcsncpy_s@AEAPEAD_KAEAPEADAEB_K@?$__crt_char_traits@D@@SAHAEAPEAD$$QEA_K0AEB_K@Z 000000014004afe4     libucrtd:argv_wildcards.obj
 0002:00010fe4       $unwind$??$tcsncpy_s@PEADAEB_KAEBQEBDAEB_K@?$__crt_char_traits@D@@SAH$$QEAPEADAEB_KAEBQEBD1@Z 000000014004afe4     libucrtd:argv_wildcards.obj
 0002:00010ff0       $xdatasym                  000000014004aff0     LIBCMTD:amdsecgs.obj
 0002:00010ff4       $unwind$?try_get_GetActiveWindow@@YAP6APEAUHWND__@@XZXZ 000000014004aff4     libucrtd:winapi_thunks.obj
 0002:00010ff4       $unwind$__acrt_initialize_ptd 000000014004aff4     libucrtd:per_thread_data.obj
 0002:00010ff4       $unwind$?configure_argv@__scrt_narrow_argv_policy@@SAHXZ 000000014004aff4     LIBCMTD:exe_winmain.obj
 0002:00010ff4       $unwind$?try_get_GetProcessWindowStation@@YAP6APEAUHWINSTA__@@XZXZ 000000014004aff4     libucrtd:winapi_thunks.obj
 0002:00010ff4       $unwind$?try_get_GetUserObjectInformationW@@YAP6AHPEAXH0KPEAK@ZXZ 000000014004aff4     libucrtd:winapi_thunks.obj
 0002:00010ff4       $unwind$??$uninitialize_environment_internal@D@@YAXAEAPEAPEAD@Z 000000014004aff4     libucrtd:environment_initialization.obj
 0002:00010ff4       $unwind$__dcrt_uninitialize_environments_nolock 000000014004aff4     libucrtd:environment_initialization.obj
 0002:00010ff4       $unwind$__report_rangecheckfailure 000000014004aff4     LIBCMTD:gs_report.obj
 0002:00010ff4       $unwind$_query_new_mode    000000014004aff4     libucrtd:new_mode.obj
 0002:00010ff4       $unwind$?__scrt_initialize_type_info@@YAXXZ 000000014004aff4     LIBCMTD:tncleanup.obj
 0002:00010ff4       $unwind$?initialize_environment@__scrt_narrow_environment_policy@@SAHXZ 000000014004aff4     LIBCMTD:exe_winmain.obj
 0002:00010ff4       $unwind$?try_get_FlsFree@@YAP6AHK@ZXZ 000000014004aff4     libucrtd:winapi_thunks.obj
 0002:00010ff4       $unwind$?set_app_type@__scrt_winmain_policy@@SAXXZ 000000014004aff4     LIBCMTD:exe_winmain.obj
 0002:00010ff4       $unwind$?set_fmode@__scrt_file_policy@@SAXXZ 000000014004aff4     LIBCMTD:exe_winmain.obj
 0002:00010ff4       $unwind$fegetround         000000014004aff4     libucrtd:fegetround.obj
 0002:00010ff4       $unwind$__acrt_initialize  000000014004aff4     libucrtd:initialization.obj
 0002:00010ff4       $unwind$__acrt_initialize_heap 000000014004aff4     libucrtd:heap_handle.obj
 0002:00010ff4       $unwind$initialize_global_variables 000000014004aff4     libucrtd:initialization.obj
 0002:00010ff4       $unwind$initialize_c       000000014004aff4     libucrtd:initialization.obj
 0002:00010ff4       $unwind$?try_get_GetLastActivePopup@@YAP6APEAUHWND__@@PEAU1@@ZXZ 000000014004aff4     libucrtd:winapi_thunks.obj
 0002:00010ff4       $unwind$?post_pgo_initialization@@YAHXZ 000000014004aff4     LIBCMTD:exe_winmain.obj
 0002:00010ff4       $unwind$??$uninitialize_environment_internal@_W@@YAXAEAPEAPEA_W@Z 000000014004aff4     libucrtd:environment_initialization.obj
 0002:00010ff4       $unwind$?pre_cpp_initialization@@YAXXZ 000000014004aff4     LIBCMTD:exe_winmain.obj
 0002:00010ff4       $unwind$?try_get_AppPolicyGetWindowingModel@@YAP6AJPEAXPEAW4AppPolicyWindowingModel@@@ZXZ 000000014004aff4     libucrtd:winapi_thunks.obj
 0002:00010ff4       $unwind$__scrt_initialize_mta 000000014004aff4     LIBCMTD:utility_desktop.obj
 0002:00010ff4       $unwind$?try_get_FlsAlloc@@YAP6AKP6AXPEAX@Z@ZXZ 000000014004aff4     libucrtd:winapi_thunks.obj
 0002:00010ff4       $unwind$_get_narrow_winmain_command_line 000000014004aff4     libucrtd:argv_winmain.obj
 0002:00010ff4       $unwind$_flushall          000000014004aff4     libucrtd:fflush.obj
 0002:00010ff4       $unwind$?try_get_InitializeCriticalSectionEx@@YAP6AHPEAU_RTL_CRITICAL_SECTION@@KK@ZXZ 000000014004aff4     libucrtd:winapi_thunks.obj
 0002:00010ff4       $unwind$?try_get_AreFileApisANSI@@YAP6AHXZXZ 000000014004aff4     libucrtd:winapi_thunks.obj
 0002:00010ff4       $unwind$?__scrt_common_main@@YAHXZ 000000014004aff4     LIBCMTD:exe_winmain.obj
 0002:00010ff4       $unwind$?try_get_AppPolicyGetShowDeveloperDiagnostic@@YAP6AJPEAXPEAW4AppPolicyShowDeveloperDiagnostic@@@ZXZ 000000014004aff4     libucrtd:winapi_thunks.obj
 0002:00010ff4       $unwind$?try_get_FlsSetValue@@YAP6AHKPEAX@ZXZ 000000014004aff4     libucrtd:winapi_thunks.obj
 0002:00010ff4       $unwind$__acrt_getptd_noexit 000000014004aff4     libucrtd:per_thread_data.obj
 0002:00010ff4       $unwind$?try_get_FlsGetValue@@YAP6APEAXK@ZXZ 000000014004aff4     libucrtd:winapi_thunks.obj
 0002:00010ff4       $unwind$__fpecode          000000014004aff4     libucrtd:signal.obj
 0002:00010ff4       $unwind$?try_get_AppPolicyGetProcessTerminationMethod@@YAP6AJPEAXPEAW4AppPolicyProcessTerminationMethod@@@ZXZ 000000014004aff4     libucrtd:winapi_thunks.obj
 0002:00010ff4       $unwind$?try_get_LCMapStringEx@@YAP6AHPEB_WK0HPEA_WHPEAU_nlsversioninfo@@PEAX_J@ZXZ 000000014004aff4     libucrtd:winapi_thunks.obj
 0002:00010ff4       $unwind$__scrt_set_unhandled_exception_filter 000000014004aff4     LIBCMTD:utility_desktop.obj
 0002:00010ff4       $unwind$?try_get_MessageBoxW@@YAP6AHPEAUHWND__@@PEB_W1I@ZXZ 000000014004aff4     libucrtd:winapi_thunks.obj
 0002:00010ff4       $unwind$_cexit             000000014004aff4     libucrtd:exit.obj
 0002:00010ff4       $unwind$?try_get_MessageBoxA@@YAP6AHPEAUHWND__@@PEBD1I@ZXZ 000000014004aff4     libucrtd:winapi_thunks.obj
 0002:00010ff4       $unwind$__dcrt_terminate_console_output 000000014004aff4     libucrtd:initcon.obj
 0002:00010ff4       $unwind$_c_exit            000000014004aff4     libucrtd:exit.obj
 0002:00010ff4       $unwind$_GetThrowImageBase 000000014004aff4     libvcruntimed:risctrnsctrl.obj
 0002:00010ff4       $unwind$_GetImageBase      000000014004aff4     libvcruntimed:risctrnsctrl.obj
 0002:00010ff4       $unwind$?pre_c_initialization@@YAHXZ 000000014004aff4     LIBCMTD:exe_winmain.obj
 0002:00010ff4       $unwind$?try_get_LocaleNameToLCID@@YAP6AKPEB_WK@ZXZ 000000014004aff4     libucrtd:winapi_thunks.obj
 0002:00010ff4       $unwind$?try_get_InitializeCriticalSectionEx@@YAP6AHPEAU_RTL_CRITICAL_SECTION@@KK@ZXZ 000000014004aff4     libvcruntimed:winapi_downlevel.obj
 0002:00010ff4       $unwind$?try_get_FlsSetValue@@YAP6AHKPEAX@ZXZ 000000014004aff4     libvcruntimed:winapi_downlevel.obj
 0002:00010ff4       $unwind$?try_get_FlsGetValue@@YAP6APEAXK@ZXZ 000000014004aff4     libvcruntimed:winapi_downlevel.obj
 0002:00010ff4       $unwind$?try_get_FlsFree@@YAP6AHK@ZXZ 000000014004aff4     libvcruntimed:winapi_downlevel.obj
 0002:00010ff4       $unwind$?try_get_FlsAlloc@@YAP6AKP6AXPEAX@Z@ZXZ 000000014004aff4     libvcruntimed:winapi_downlevel.obj
 0002:00010ff4       $unwind$__acrt_initialize_command_line 000000014004aff4     libucrtd:argv_data.obj
 0002:00010ff4       $unwind$__vcrt_initialize  000000014004aff4     libvcruntimed:initialization.obj
 0002:00010ff4       $unwind$__vcrt_initialize_ptd 000000014004aff4     libvcruntimed:per_thread_data.obj
 0002:00010ff4       $unwind$__acrt_get_process_end_policy 000000014004aff4     libucrtd:win_policies.obj
 0002:00010ff4       $unwind$__acrt_get_developer_information_policy 000000014004aff4     libucrtd:win_policies.obj
 0002:00010ff4       $unwind$__acrt_get_windowing_model_policy 000000014004aff4     libucrtd:win_policies.obj
 0002:00010ff4       $unwind$__vcrt_uninitialize_ptd 000000014004aff4     libvcruntimed:per_thread_data.obj
 0002:00010ff4       $unwind$WinMainCRTStartup  000000014004aff4     LIBCMTD:exe_winmain.obj
 0002:00010ffc       $unwind$?__scrt_common_main_seh@@YAHXZ 000000014004affc     LIBCMTD:exe_winmain.obj
 0002:0001101c       $unwind$?fin$0@?0???$?RV<lambda_0ae27a3a962d80f24befdcbee591983d>@@AEAV<lambda_8d0ee55de4b1038c4002e0adecdf1839>@@V<lambda_dc504788e8f1664fe9b84e20bfb512f2>@@@?$__crt_seh_guarded_call@X@@QEAAX$$QEAV<lambda_0ae27a3a962d80f24befdcbee591983d>@@AEAV<lambda_8d0ee55de4b1038c4002e0adecdf1839>@@$$QEAV<lambda_dc504788e8f1664fe9b84e20bfb512f2>@@@Z@4HA 000000014004b01c     libucrtd:per_thread_data.obj
 0002:0001101c       $unwind$__DestructExceptionObject$filt$0 000000014004b01c     libvcruntimed:ehhelpers.obj
 0002:0001101c       $unwind$__acrt_initialize_lowio$fin$0 000000014004b01c     libucrtd:ioinit.obj
 0002:0001101c       $unwind$?filt$0@?0??__scrt_common_main_seh@@YAHXZ@4HA 000000014004b01c     LIBCMTD:exe_winmain.obj
 0002:0001101c       $unwind$?fin$0@?0???$?RV<lambda_aa87e3671a710a21b5dc78c0bdf72e11>@@AEAV<lambda_92619d2358a28f41a33ba319515a20b9>@@V<lambda_6992ecaafeb10aed2b74cb1fae11a551>@@@?$__crt_seh_guarded_call@X@@QEAAX$$QEAV<lambda_aa87e3671a710a21b5dc78c0bdf72e11>@@AEAV<lambda_92619d2358a28f41a33ba319515a20b9>@@$$QEAV<lambda_6992ecaafeb10aed2b74cb1fae11a551>@@@Z@4HA 000000014004b01c     libucrtd:per_thread_data.obj
 0002:0001101c       $unwind$?fin$0@?0???$?RV<lambda_53fc7fc888e23d815d7080162c0aeeb2>@@AEAV<lambda_4e7105787b7b0e0227fbf2b2d883fa65>@@V<lambda_8ddc48ad9d26c778cb15812d1d88fc8a>@@@?$__crt_seh_guarded_call@H@@QEAAH$$QEAV<lambda_53fc7fc888e23d815d7080162c0aeeb2>@@AEAV<lambda_4e7105787b7b0e0227fbf2b2d883fa65>@@$$QEAV<lambda_8ddc48ad9d26c778cb15812d1d88fc8a>@@@Z@4HA 000000014004b01c     libucrtd:close.obj
 0002:0001101c       $unwind$?fin$0@?0???$?RV<lambda_450d765d439847d4c735a33c368b5fc0>@@AEAV<lambda_44731a7d0e6d81c3e6aa82d741081786>@@V<lambda_601a2a7da3b7a96e9554ac7215c4b07c>@@@?$__crt_seh_guarded_call@P6AXH@Z@@QEAAP6AXH@Z$$QEAV<lambda_450d765d439847d4c735a33c368b5fc0>@@AEAV<lambda_44731a7d0e6d81c3e6aa82d741081786>@@$$QEAV<lambda_601a2a7da3b7a96e9554ac7215c4b07c>@@@Z@4HA 000000014004b01c     libucrtd:signal.obj
 0002:0001101c       $unwind$?dtor$0@?0??fp_format_a@@YAHQEBNPEAD_KQEAD2H_NIQEAU__crt_locale_pointers@@W4__acrt_rounding_mode@@@Z@4HA 000000014004b01c     libucrtd:cvt.obj
 0002:0001101c       $unwind$?fin$0@?0???$?RV<lambda_efa02eb69bf647d2f7ff0dd6f1103f72>@@AEAV<lambda_bd5a608237428601b7e45fbdc72b1ae8>@@V<lambda_728235dc0fc2b1f82d1fa5b3e7102d8f>@@@?$__crt_seh_guarded_call@X@@QEAAX$$QEAV<lambda_efa02eb69bf647d2f7ff0dd6f1103f72>@@AEAV<lambda_bd5a608237428601b7e45fbdc72b1ae8>@@$$QEAV<lambda_728235dc0fc2b1f82d1fa5b3e7102d8f>@@@Z@4HA 000000014004b01c     libucrtd:mbctype.obj
 0002:0001101c       $unwind$?filt$0@?0??FrameUnwindToState@__FrameHandler3@@SAXPEA_KPEAU_xDISPATCHER_CONTEXT@@PEBU_s_FuncInfo@@H@Z@4HA 000000014004b01c     libvcruntimed:frame.obj
 0002:0001101c       $unwind$?fin$1@?0??FrameUnwindToState@__FrameHandler3@@SAXPEA_KPEAU_xDISPATCHER_CONTEXT@@PEBU_s_FuncInfo@@H@Z@4HA 000000014004b01c     libvcruntimed:frame.obj
 0002:0001101c       $unwind$_ctrlfp$filt$0     000000014004b01c     libucrtd:fpctrl.obj
 0002:0001101c       $unwind$?fin$0@?0??update_thread_multibyte_data_internal@@YAPEAU__crt_multibyte_data@@QEAU__acrt_ptd@@QEAPEAU1@@Z@4HA 000000014004b01c     libucrtd:mbctype.obj
 0002:0001101c       $unwind$?filt$0@?0??CxxCallCatchBlock@__FrameHandler3@@SAPEAXPEAU_EXCEPTION_RECORD@@@Z@4HA 000000014004b01c     libvcruntimed:frame.obj
 0002:0001101c       $unwind$?filt$0@?0??is_bad_read_pointer@@YA_NQEBX_K@Z@4HA 000000014004b01c     libucrtd:debug_heap.obj
 0002:0001101c       $unwind$_free_dbg$fin$0    000000014004b01c     libucrtd:debug_heap.obj
 0002:0001101c       $unwind$?fin$1@?0??CxxCallCatchBlock@__FrameHandler3@@SAPEAXPEAU_EXCEPTION_RECORD@@@Z@4HA 000000014004b01c     libvcruntimed:frame.obj
 0002:0001101c       $unwind$?filt$0@?0???$BuildCatchObjectHelperInternal@V__FrameHandler3@@@@YAHPEAUEHExceptionRecord@@PEAXPEBU_s_HandlerType@@PEBU_s_CatchableType@@@Z@4HA 000000014004b01c     libvcruntimed:frame.obj
 0002:0001101c       $unwind$?filt$0@?0???$BuildCatchObjectInternal@V__FrameHandler3@@@@YAXPEAUEHExceptionRecord@@PEAXPEBU_s_HandlerType@@PEBU_s_CatchableType@@@Z@4HA 000000014004b01c     libvcruntimed:frame.obj
 0002:0001101c       $unwind$?fin$0@?0???$?RV<lambda_74a0ef281e44d15e1136f792f539efb3>@@AEAV<lambda_e157831efee4ea0afb0a2ace5dd5fd0d>@@V<lambda_04ddeca75b7c13fd67716e8dfcef87ee>@@@?$__crt_seh_guarded_call@X@@QEAAX$$QEAV<lambda_74a0ef281e44d15e1136f792f539efb3>@@AEAV<lambda_e157831efee4ea0afb0a2ace5dd5fd0d>@@$$QEAV<lambda_04ddeca75b7c13fd67716e8dfcef87ee>@@@Z@4HA 000000014004b01c     libucrtd:per_thread_data.obj
 0002:0001101c       $unwind$terminate$filt$0   000000014004b01c     libucrtd:terminate.obj
 0002:0001101c       $unwind$?fin$0@?0???$?RV<lambda_2d41944a1d46af3157314b8a01080d33>@@AEAV<lambda_8f455de75cd7d7f24b4096f044d8b9e6>@@V<lambda_aa500f224e6afead328df44964fe2772>@@@?$__crt_seh_guarded_call@X@@QEAAX$$QEAV<lambda_2d41944a1d46af3157314b8a01080d33>@@AEAV<lambda_8f455de75cd7d7f24b4096f044d8b9e6>@@$$QEAV<lambda_aa500f224e6afead328df44964fe2772>@@@Z@4HA 000000014004b01c     libucrtd:per_thread_data.obj
 0002:0001101c       $unwind$?fin$0@?0???$?RV<lambda_6a47f4c8fd0152770a780fc1d70204eb>@@AEAV<lambda_d121dba8a4adeaf3a9819e48611155df>@@V<lambda_6aaa2265f5b6a89667e7d7630012e97a>@@@?$__crt_seh_guarded_call@H@@QEAAH$$QEAV<lambda_6a47f4c8fd0152770a780fc1d70204eb>@@AEAV<lambda_d121dba8a4adeaf3a9819e48611155df>@@$$QEAV<lambda_6aaa2265f5b6a89667e7d7630012e97a>@@@Z@4HA 000000014004b01c     libucrtd:onexit.obj
 0002:0001101c       $unwind$_query_new_handler$fin$0 000000014004b01c     libucrtd:new_handler.obj
 0002:0001101c       $unwind$?fin$0@?0???$?RV<lambda_842d9ff0dc9ef11c61343bbaebe7f885>@@AEAV<lambda_c5860995281e5c4ce005b3de8f5874ee>@@V<lambda_d90129c13df834fdcbf8d2b88dafcf2d>@@@?$__crt_seh_guarded_call@X@@QEAAX$$QEAV<lambda_842d9ff0dc9ef11c61343bbaebe7f885>@@AEAV<lambda_c5860995281e5c4ce005b3de8f5874ee>@@$$QEAV<lambda_d90129c13df834fdcbf8d2b88dafcf2d>@@@Z@4HA 000000014004b01c     libucrtd:fflush.obj
 0002:0001101c       $unwind$?dtor$0@?0??shortsort@@YAXPEAD0_KP6AHPEBX2@Z@Z@4HA 000000014004b01c     libucrtd:qsort.obj
 0002:0001101c       $unwind$_fcloseall$fin$0   000000014004b01c     libucrtd:closeall.obj
 0002:0001101c       $unwind$__scrt_is_nonwritable_in_current_image$filt$0 000000014004b01c     LIBCMTD:utility.obj
 0002:0001101c       $unwind$?fin$0@?0???$?RV<lambda_dce957679fd779aa27c4ca5c39e09098>@@AEAV<lambda_3b83eb014488ad801d84acef5aaf14d3>@@V<lambda_00e911965883f7966597d4c465c83ebc>@@@?$__crt_seh_guarded_call@H@@QEAAH$$QEAV<lambda_dce957679fd779aa27c4ca5c39e09098>@@AEAV<lambda_3b83eb014488ad801d84acef5aaf14d3>@@$$QEAV<lambda_00e911965883f7966597d4c465c83ebc>@@@Z@4HA 000000014004b01c     libucrtd:onexit.obj
 0002:0001101c       $unwind$__acrt_update_thread_locale_data$fin$0 000000014004b01c     libucrtd:locale_refcounting.obj
 0002:0001101c       $unwind$?dtor$0@?0??_wcstombs_l_helper@@YA_KPEADPEB_W_KPEAU__crt_locale_pointers@@@Z@4HA 000000014004b01c     libucrtd:wcstombs.obj
 0002:0001101c       $unwind$?dtor$0@?0???R<lambda_d121dba8a4adeaf3a9819e48611155df>@@QEBAHXZ@4HA 000000014004b01c     libucrtd:onexit.obj
 0002:0001101c       $unwind$?fin$0@?0???$?RV<lambda_886d6c58226a84441f68b9f2b8217b83>@@AEAV<lambda_ab61a845afdef5b7c387490eaf3616ee>@@V<lambda_f7f22ab5edc0698d5f6905b0d3f44752>@@@?$__crt_seh_guarded_call@X@@QEAAX$$QEAV<lambda_886d6c58226a84441f68b9f2b8217b83>@@AEAV<lambda_ab61a845afdef5b7c387490eaf3616ee>@@$$QEAV<lambda_f7f22ab5edc0698d5f6905b0d3f44752>@@@Z@4HA 000000014004b01c     libucrtd:fflush.obj
 0002:0001101c       $unwind$?fin$0@?0???$?RV<lambda_4e3dbe6921bc0b5a1a6bc6573fdc859e>@@AEAV<lambda_5533cddd4bda0037814beee657757329>@@V<lambda_47cffbaa968af5c721c38a4a6f8da44d>@@@?$__crt_seh_guarded_call@H@@QEAAH$$QEAV<lambda_4e3dbe6921bc0b5a1a6bc6573fdc859e>@@AEAV<lambda_5533cddd4bda0037814beee657757329>@@$$QEAV<lambda_47cffbaa968af5c721c38a4a6f8da44d>@@@Z@4HA 000000014004b01c     libucrtd:commit.obj
 0002:0001101c       $unwind$_IsNonwritableInCurrentImage$filt$0 000000014004b01c     LIBCMTD:pesect.obj
 0002:0001101c       $unwind$?fin$0@?0???$?RV<lambda_410d79af7f07d98d83a3f525b3859a53>@@AEAV<lambda_3e16ef9562a7dcce91392c22ab16ea36>@@V<lambda_38119f0e861e05405d8a144b9b982f0a>@@@?$__crt_seh_guarded_call@X@@QEAAX$$QEAV<lambda_410d79af7f07d98d83a3f525b3859a53>@@AEAV<lambda_3e16ef9562a7dcce91392c22ab16ea36>@@$$QEAV<lambda_38119f0e861e05405d8a144b9b982f0a>@@@Z@4HA 000000014004b01c     libucrtd:wsetlocale.obj
 0002:0001101c       $unwind$?fin$0@?0???$?RV<lambda_d80eeec6fff315bfe5c115232f3240e3>@@AEAV<lambda_6e4b09c48022b2350581041d5f6b0c4c>@@V<lambda_2358e3775559c9db80273638284d5e45>@@@?$__crt_seh_guarded_call@X@@QEAAX$$QEAV<lambda_d80eeec6fff315bfe5c115232f3240e3>@@AEAV<lambda_6e4b09c48022b2350581041d5f6b0c4c>@@$$QEAV<lambda_2358e3775559c9db80273638284d5e45>@@@Z@4HA 000000014004b01c     libucrtd:exit.obj
 0002:0001101c       $unwind$?filt$0@?0???R<lambda_6e4b09c48022b2350581041d5f6b0c4c>@@QEBA@XZ@4HA 000000014004b01c     libucrtd:exit.obj
 0002:00011024       $unwind$__report_securityfailure 000000014004b024     LIBCMTD:gs_report.obj
 0002:00011024       $unwind$__acrt_uninitialize_ptd 000000014004b024     libucrtd:per_thread_data.obj
 0002:00011024       $unwind$__scrt_release_startup_lock 000000014004b024     LIBCMTD:utility.obj
 0002:00011024       $unwind$__scrt_initialize_crt 000000014004b024     LIBCMTD:utility.obj
 0002:00011024       $unwind$__ascii_towupper   000000014004b024     libucrtd:atox.obj
 0002:00011024       $unwind$__vcrt_uninitialize 000000014004b024     libvcruntimed:initialization.obj
 0002:00011024       $unwind$__acrt_lowio_unlock_fh 000000014004b024     libucrtd:osfinfo.obj
 0002:00011024       $unwind$__acrt_lowio_lock_fh 000000014004b024     libucrtd:osfinfo.obj
 0002:00011024       $unwind$__acrt_lock        000000014004b024     libucrtd:locks.obj
 0002:00011024       $unwind$?__acrt_fenv_shift_abstract_sse_status@@YA?AW4__acrt_fenv_abstract_status@@W41@@Z 000000014004b024     libucrtd:_fenvutils.obj
 0002:00011024       $unwind$?__acrt_fenv_unshift_abstract_sse_status@@YA?AW4__acrt_fenv_abstract_status@@W41@@Z 000000014004b024     libucrtd:_fenvutils.obj
 0002:00011024       $unwind$report_memory_leaks 000000014004b024     libucrtd:initialization.obj
 0002:00011024       $unwind$uninitialize_allocated_io_buffers 000000014004b024     libucrtd:initialization.obj
 0002:00011024       $unwind$uninitialize_vcruntime 000000014004b024     libucrtd:initialization.obj
 0002:00011024       $unwind$_configure_narrow_argv 000000014004b024     libucrtd:argv_parsing.obj
 0002:00011024       $unwind$uninitialize_environment 000000014004b024     libucrtd:initialization.obj
 0002:00011024       $unwind$__acrt_uninitialize 000000014004b024     libucrtd:initialization.obj
 0002:00011024       $unwind$?do_locale_initialization@@YAXD@Z 000000014004b024     libucrtd:argv_parsing.obj
 0002:00011024       $unwind$?is_stream_flushable_or_commitable@@YA_NJ@Z 000000014004b024     libucrtd:fflush.obj
 0002:00011024       $unwind$__acrt_fenv_set_status 000000014004b024     libucrtd:_fenvutils.obj
 0002:00011024       $unwind$__acrt_fenv_set_control 000000014004b024     libucrtd:_fenvutils.obj
 0002:00011024       $unwind$__acrt_fenv_get_common_round_control 000000014004b024     libucrtd:_fenvutils.obj
 0002:00011024       $unwind$?to_machine_sse_status@@YA?AW4__acrt_fenv_machine_sse_status@@W4__acrt_fenv_abstract_status@@@Z 000000014004b024     libucrtd:_fenvutils.obj
 0002:00011024       $unwind$__ascii_towlower   000000014004b024     libucrtd:wsetlocale.obj
 0002:00011024       $unwind$?do_locale_initialization@@YAXE@Z 000000014004b024     libucrtd:argv_winmain.obj
 0002:00011024       $unwind$?exit_or_terminate_process@@YAXI@Z 000000014004b024     libucrtd:exit.obj
 0002:00011024       $unwind$??$to_abstract_status@W4__acrt_fenv_machine_sse_status@@@@YA?AW4__acrt_fenv_abstract_status@@W4__acrt_fenv_machine_sse_status@@@Z 000000014004b024     libucrtd:_fenvutils.obj
 0002:00011024       $unwind$exit               000000014004b024     libucrtd:exit.obj
 0002:00011024       $unwind$_exit              000000014004b024     libucrtd:exit.obj
 0002:00011024       $unwind$__acrt_unlock      000000014004b024     libucrtd:locks.obj
 0002:0001102c       $unwind$__acrt_initialize_invalid_parameter_handler 000000014004b02c     libucrtd:invalid_parameter.obj
 0002:0001102c       $unwind$_callnewh          000000014004b02c     libucrtd:new_handler.obj
 0002:0001102c       $unwind$?release@?$__crt_unique_heap_ptr@U__acrt_ptd@@U__crt_internal_free_policy@@@@QEAAXXZ 000000014004b02c     libucrtd:per_thread_data.obj
 0002:0001102c       $unwind$?destroy_ptd_array@@YAXQEAU__acrt_ptd@@@Z 000000014004b02c     libucrtd:per_thread_data.obj
 0002:0001102c       $unwind$?is_in_use@__crt_stdio_stream@@QEBA_NXZ 000000014004b02c     libucrtd:closeall.obj
 0002:0001102c       $unwind$??R<lambda_e157831efee4ea0afb0a2ace5dd5fd0d>@@QEBAXXZ 000000014004b02c     libucrtd:per_thread_data.obj
 0002:0001102c       $unwind$?construct_ptd_array@@YAXQEAU__acrt_ptd@@@Z 000000014004b02c     libucrtd:per_thread_data.obj
 0002:0001102c       $unwind$free               000000014004b02c     libucrtd:free.obj
 0002:0001102c       $unwind$?parse_digit@__crt_strtox@@YAI_W@Z 000000014004b02c     libucrtd:atox.obj
 0002:0001102c       $unwind$?type_case_s@?$output_processor@_WV?$string_output_adapter@_W@__crt_stdio_output@@V?$format_validation_base@_WV?$string_output_adapter@_W@__crt_stdio_output@@@2@@__crt_stdio_output@@AEAA_NXZ 000000014004b02c     libucrtd:output.obj
 0002:0001102c       $unwind$?type_case_Z@?$output_processor@_WV?$string_output_adapter@_W@__crt_stdio_output@@V?$format_validation_base@_WV?$string_output_adapter@_W@__crt_stdio_output@@@2@@__crt_stdio_output@@AEAA_NXZ 000000014004b02c     libucrtd:output.obj
 0002:0001102c       $unwind$?state_case_flag@?$output_processor@_WV?$string_output_adapter@_W@__crt_stdio_output@@V?$format_validation_base@_WV?$string_output_adapter@_W@__crt_stdio_output@@@2@@__crt_stdio_output@@AEAA_NXZ 000000014004b02c     libucrtd:output.obj
 0002:0001102c       $unwind$?type_case_s@?$output_processor@DV?$string_output_adapter@D@__crt_stdio_output@@V?$format_validation_base@DV?$string_output_adapter@D@__crt_stdio_output@@@2@@__crt_stdio_output@@AEAA_NXZ 000000014004b02c     libucrtd:output.obj
 0002:0001102c       $unwind$?type_case_Z@?$output_processor@DV?$string_output_adapter@D@__crt_stdio_output@@V?$format_validation_base@DV?$string_output_adapter@D@__crt_stdio_output@@@2@@__crt_stdio_output@@AEAA_NXZ 000000014004b02c     libucrtd:output.obj
 0002:0001102c       $unwind$?state_case_flag@?$output_processor@DV?$string_output_adapter@D@__crt_stdio_output@@V?$format_validation_base@DV?$string_output_adapter@D@__crt_stdio_output@@@2@@__crt_stdio_output@@AEAA_NXZ 000000014004b02c     libucrtd:output.obj
 0002:0001102c       $unwind$?destroy_ptd@@YAXQEAU__acrt_ptd@@@Z 000000014004b02c     libucrtd:per_thread_data.obj
 0002:0001102c       $unwind$??$scratch_data@D@formatting_buffer@__crt_stdio_output@@QEAAPEADXZ 000000014004b02c     libucrtd:output.obj
 0002:0001102c       $unwind$?is_string_backed@__crt_stdio_stream@@QEBA_NXZ 000000014004b02c     libucrtd:output.obj
 0002:0001102c       $unwind$?close@__crt_findfile_traits@@SA_NPEAX@Z 000000014004b02c     libucrtd:argv_wildcards.obj
 0002:0001102c       $unwind$?is_block_an_aligned_allocation@@YA_NQEBX@Z 000000014004b02c     libucrtd:debug_heap.obj
 0002:0001102c       $unwind$_free_base         000000014004b02c     libucrtd:free_base.obj
 0002:0001102c       $unwind$feholdexcept       000000014004b02c     libucrtd:feholdexcept.obj
 0002:0001102c       $unwind$?release@?$__crt_unique_heap_ptr@P6AXXZU__crt_internal_free_policy@@@@QEAAXXZ 000000014004b02c     libucrtd:onexit.obj
 0002:0001102c       $unwind$_execute_onexit_table 000000014004b02c     libucrtd:onexit.obj
 0002:0001102c       $unwind$??1?$argument_list@D@?A0x5f5c8891@@QEAA@XZ 000000014004b02c     libucrtd:argv_wildcards.obj
 0002:0001102c       $unwind$_initialize_onexit_table 000000014004b02c     libucrtd:onexit.obj
 0002:0001102c       $unwind$?translate_control_denormal_control_from_sse@@YA?AW4__acrt_fenv_abstract_control@@W4__acrt_fenv_machine_sse_control@@@Z 000000014004b02c     libucrtd:_fenvutils.obj
 0002:0001102c       $unwind$?to_abstract_control@@YA?AW4__acrt_fenv_abstract_control@@W4__acrt_fenv_machine_sse_control@@@Z 000000014004b02c     libucrtd:_fenvutils.obj
 0002:0001102c       $unwind$??$translate_control_exception_mask@W4__acrt_fenv_abstract_control@@W4__acrt_fenv_machine_sse_control@@@@YA?AW4__acrt_fenv_abstract_control@@W4__acrt_fenv_machine_sse_control@@@Z 000000014004b02c     libucrtd:_fenvutils.obj
 0002:0001102c       $unwind$??$translate_control_rounding_control@W4__acrt_fenv_abstract_control@@W4__acrt_fenv_machine_sse_control@@@@YA?AW4__acrt_fenv_abstract_control@@W4__acrt_fenv_machine_sse_control@@@Z 000000014004b02c     libucrtd:_fenvutils.obj
 0002:0001102c       $unwind$?release@?$__crt_unique_heap_ptr@U__crt_multibyte_data@@U__crt_internal_free_policy@@@@QEAAXXZ 000000014004b02c     libucrtd:wsetlocale.obj
 0002:0001102c       $unwind$?set_machine_sse_control@@YAXW4__acrt_fenv_machine_sse_control@@@Z 000000014004b02c     libucrtd:_fenvutils.obj
 0002:0001102c       $unwind$?close@__crt_hmodule_traits@@SA_NPEAUHINSTANCE__@@@Z 000000014004b02c     libucrtd:exit.obj
 0002:0001102c       $unwind$_register_thread_local_exe_atexit_callback 000000014004b02c     libucrtd:exit.obj
 0002:0001102c       $unwind$??R<lambda_df1553121bfa390f1154bd84936f2730>@@QEBAHXZ 000000014004b02c     libucrtd:argv_parsing.obj
 0002:0001102c       $unwind$?release@?$__crt_unique_heap_ptr@PEADU__crt_internal_free_policy@@@@QEAAXXZ 000000014004b02c     libucrtd:argv_parsing.obj
 0002:0001102c       $unwind$?release@?$__crt_unique_heap_ptr@EU__crt_internal_free_policy@@@@QEAAXXZ 000000014004b02c     libucrtd:argv_parsing.obj
 0002:0001102c       $unwind$__acrt_invoke_user_matherr 000000014004b02c     libucrtd:matherr.obj
 0002:0001102c       $unwind$__setusermatherr   000000014004b02c     libucrtd:matherr.obj
 0002:0001102c       $unwind$?release@?$__crt_unique_heap_ptr@DU__crt_public_free_policy@@@@QEAAXXZ 000000014004b02c     libvcruntimed:std_exception.obj
 0002:0001102c       $unwind$?getESTypes@__FrameHandler3@@SAPEBU_s_ESTypeList@@PEBU_s_FuncInfo@@@Z 000000014004b02c     libvcruntimed:frame.obj
 0002:0001102c       $unwind$??R<lambda_bd5a608237428601b7e45fbdc72b1ae8>@@QEBAXXZ 000000014004b02c     libucrtd:mbctype.obj
 0002:0001102c       $unwind$_FindAndUnlinkFrame 000000014004b02c     libvcruntimed:risctrnsctrl.obj
 0002:0001102c       $unwind$_lock_file         000000014004b02c     libucrtd:_file.obj
 0002:0001102c       $unwind$?try_load_library_from_system_directory@@YAPEAUHINSTANCE__@@QEB_W@Z 000000014004b02c     libvcruntimed:winapi_downlevel.obj
 0002:0001102c       $unwind$_unlock_file       000000014004b02c     libucrtd:_file.obj
 0002:0001102c       $unwind$__vcrt_FlsAlloc    000000014004b02c     libvcruntimed:winapi_downlevel.obj
 0002:0001102c       $unwind$??R<lambda_4e7105787b7b0e0227fbf2b2d883fa65>@@QEBAHXZ 000000014004b02c     libucrtd:close.obj
 0002:0001102c       $unwind$?release@?$__crt_unique_heap_ptr@U__vcrt_ptd@@U__crt_internal_free_policy@@@@QEAAXXZ 000000014004b02c     libvcruntimed:per_thread_data.obj
 0002:0001102c       $unwind$?try_load_library_from_system_directory@@YAPEAUHINSTANCE__@@QEB_W@Z 000000014004b02c     libucrtd:winapi_thunks.obj
 0002:0001102c       $unwind$?release@?$__crt_unique_heap_ptr@PEAU__crt_stdio_stream_data@@U__crt_internal_free_policy@@@@QEAAXXZ 000000014004b02c     libucrtd:_file.obj
 0002:0001102c       $unwind$_IsExceptionObjectToBeDestroyed 000000014004b02c     libvcruntimed:ehhelpers.obj
 0002:0001102c       $unwind$__except_validate_context_record 000000014004b02c     libvcruntimed:jbcxrval.obj
 0002:0001102c       $unwind$?release@?$__crt_unique_heap_ptr@U__crt_lowio_handle_data@@U__crt_internal_free_policy@@@@QEAAXXZ 000000014004b02c     libucrtd:osfinfo.obj
 0002:0001102c       $unwind$?release@?$__crt_unique_heap_ptr@DU__crt_internal_free_policy@@@@QEAAXXZ 000000014004b02c     libvcruntimed:std_type_info.obj
 0002:0001102c       $unwind$?__acrt_stdio_reset_buffer@@YAXV__crt_stdio_stream@@@Z 000000014004b02c     libucrtd:fflush.obj
 0002:0001102c       $unwind$__scrt_unhandled_exception_filter 000000014004b02c     LIBCMTD:utility_desktop.obj
 0002:0001102c       $unwind$__acrt_AppPolicyGetWindowingModelInternal 000000014004b02c     libucrtd:winapi_thunks.obj
 0002:0001102c       $unwind$__acrt_add_locale_ref 000000014004b02c     libucrtd:locale_refcounting.obj
 0002:0001102c       $unwind$__acrt_AppPolicyGetShowDeveloperDiagnosticInternal 000000014004b02c     libucrtd:winapi_thunks.obj
 0002:0001102c       $unwind$__acrt_release_locale_ref 000000014004b02c     libucrtd:locale_refcounting.obj
 0002:0001102c       $unwind$__acrt_AppPolicyGetProcessTerminationMethodInternal 000000014004b02c     libucrtd:winapi_thunks.obj
 0002:0001102c       $unwind$atexit             000000014004b02c     LIBCMTD:utility.obj
 0002:0001102c       $unwind$_set_statfp        000000014004b02c     libucrtd:fpctrl.obj
 0002:0001102c       $unwind$__report_gsfailure 000000014004b02c     LIBCMTD:gs_report.obj
 0002:0001102c       $unwind$_fflush_nolock     000000014004b02c     libucrtd:fflush.obj
 0002:0001102c       $unwind$__acrt_DownlevelLocaleNameToLCID 000000014004b02c     libucrtd:lcidtoname_downlevel.obj
 0002:0001102c       $unwind$__acrt_FlsAlloc    000000014004b02c     libucrtd:winapi_thunks.obj
 0002:00011034       $unwind$?capture_current_context@@YAXQEAU_CONTEXT@@@Z 000000014004b034     libucrtd:invalid_parameter.obj
 0002:00011034       $unwind$capture_current_context 000000014004b034     LIBCMTD:gs_report.obj
 0002:00011034       $unwind$capture_previous_context 000000014004b034     LIBCMTD:gs_report.obj
 0002:0001103c       $unwind$??R<lambda_92619d2358a28f41a33ba319515a20b9>@@QEBAXXZ 000000014004b03c     libucrtd:per_thread_data.obj
 0002:0001103c       $unwind$??R<lambda_8f455de75cd7d7f24b4096f044d8b9e6>@@QEBAXXZ 000000014004b03c     libucrtd:per_thread_data.obj
 0002:0001103c       $unwind$??1?$common_data@_W@__crt_stdio_output@@QEAA@XZ 000000014004b03c     libucrtd:output.obj
 0002:0001103c       $unwind$?destroy_fls@@YAXPEAX@Z 000000014004b03c     libucrtd:per_thread_data.obj
 0002:0001103c       $unwind$??1__crt_scoped_get_last_error_reset@@QEAA@XZ 000000014004b03c     libucrtd:per_thread_data.obj
 0002:0001103c       $unwind$?tchar_string@?$common_data@_W@__crt_stdio_output@@IEAAAEAPEA_WXZ 000000014004b03c     libucrtd:output.obj
 0002:0001103c       $unwind$??1?$__crt_unique_heap_ptr@EU__crt_internal_free_policy@@@@QEAA@XZ 000000014004b03c     libucrtd:argv_parsing.obj
 0002:0001103c       $unwind$??3@YAXPEAX@Z      000000014004b03c     LIBCMTD:delete_scalar.obj
 0002:0001103c       $unwind$_ValidateImageBase 000000014004b03c     LIBCMTD:pesect.obj
 0002:0001103c       $unwind$??0__crt_scoped_get_last_error_reset@@QEAA@XZ 000000014004b03c     libucrtd:per_thread_data.obj
 0002:0001103c       $unwind$??$__crt_fast_decode_pointer@P6AH_K@Z@@YAP6AH_K@ZQ6AH0@Z@Z 000000014004b03c     libucrtd:new_handler.obj
 0002:0001103c       $unwind$??0?$common_data@_W@__crt_stdio_output@@IEAA@XZ 000000014004b03c     libucrtd:output.obj
 0002:0001103c       $unwind$??1?$__crt_unique_heap_ptr@U__acrt_ptd@@U__crt_internal_free_policy@@@@QEAA@XZ 000000014004b03c     libucrtd:per_thread_data.obj
 0002:0001103c       $unwind$??B?$__crt_unique_heap_ptr@EU__crt_internal_free_policy@@@@QEBA_NXZ 000000014004b03c     libucrtd:argv_parsing.obj
 0002:0001103c       $unwind$??R<lambda_4e3dbe6921bc0b5a1a6bc6573fdc859e>@@QEBAXXZ 000000014004b03c     libucrtd:commit.obj
 0002:0001103c       $unwind$??1?$common_data@D@__crt_stdio_output@@QEAA@XZ 000000014004b03c     libucrtd:output.obj
 0002:0001103c       $unwind$?value@?$dual_state_global@P6AH_K@Z@__crt_state_management@@QEAAAEAP6AH_K@ZXZ 000000014004b03c     libucrtd:new_handler.obj
 0002:0001103c       $unwind$??1?$output_adapter_data@DV?$string_output_adapter@D@__crt_stdio_output@@@__crt_stdio_output@@QEAA@XZ 000000014004b03c     libucrtd:output.obj
 0002:0001103c       $unwind$__raise_securityfailure 000000014004b03c     LIBCMTD:gs_report.obj
 0002:0001103c       $unwind$?state_case_precision@?$output_processor@DV?$string_output_adapter@D@__crt_stdio_output@@V?$format_validation_base@DV?$string_output_adapter@D@__crt_stdio_output@@@2@@__crt_stdio_output@@AEAA_NXZ 000000014004b03c     libucrtd:output.obj
 0002:0001103c       $unwind$?tchar_string@?$common_data@D@__crt_stdio_output@@IEAAAEAPEADXZ 000000014004b03c     libucrtd:output.obj
 0002:0001103c       $unwind$??0?$common_data@D@__crt_stdio_output@@IEAA@XZ 000000014004b03c     libucrtd:output.obj
 0002:0001103c       $unwind$??1scoped_fp_state_reset@?A0x71ca7cfb@@QEAA@XZ 000000014004b03c     libucrtd:cfout.obj
 0002:0001103c       $unwind$??0scoped_fp_state_reset@?A0x71ca7cfb@@QEAA@XZ 000000014004b03c     libucrtd:cfout.obj
 0002:0001103c       $unwind$?is_potentially_valid_image_base@@YA_NQEAX@Z 000000014004b03c     LIBCMTD:utility.obj
 0002:0001103c       $unwind$??R<lambda_47cffbaa968af5c721c38a4a6f8da44d>@@QEBAXXZ 000000014004b03c     libucrtd:commit.obj
 0002:0001103c       $unwind$??1formatting_buffer@__crt_stdio_output@@QEAA@XZ 000000014004b03c     libucrtd:output.obj
 0002:0001103c       $unwind$??$__crt_fast_decode_pointer@PEAP6AXXZ@@YAPEAP6AXXZQEAP6AXXZ@Z 000000014004b03c     LIBCMTD:utility.obj
 0002:0001103c       $unwind$??$__crt_fast_encode_pointer@PEAP6AXXZ@@YAPEAP6AXXZQEAP6AXXZ@Z 000000014004b03c     LIBCMTD:utility.obj
 0002:0001103c       $unwind$??R<lambda_f7f22ab5edc0698d5f6905b0d3f44752>@@QEBAXXZ 000000014004b03c     libucrtd:fflush.obj
 0002:0001103c       $unwind$??0formatting_buffer@__crt_stdio_output@@QEAA@XZ 000000014004b03c     libucrtd:output.obj
 0002:0001103c       $unwind$?get_flags@__crt_stdio_stream@@QEBAJXZ 000000014004b03c     libucrtd:output.obj
 0002:0001103c       $unwind$?update_field_width@?$standard_base@DV?$string_output_adapter@D@__crt_stdio_output@@@__crt_stdio_output@@IEAA_NXZ 000000014004b03c     libucrtd:output.obj
 0002:0001103c       $unwind$?get@__crt_deferred_errno_cache@@QEAAAEAHXZ 000000014004b03c     libucrtd:output.obj
 0002:0001103c       $unwind$?update_precision@?$standard_base@DV?$string_output_adapter@D@__crt_stdio_output@@@__crt_stdio_output@@IEAA_NXZ 000000014004b03c     libucrtd:output.obj
 0002:0001103c       $unwind$??$__crt_fast_decode_pointer@P6AXH@Z@@YAP6AXH@ZQ6AXH@Z@Z 000000014004b03c     libucrtd:signal.obj
 0002:0001103c       $unwind$??R<lambda_886d6c58226a84441f68b9f2b8217b83>@@QEBAXXZ 000000014004b03c     libucrtd:fflush.obj
 0002:0001103c       $unwind$??$?B$$A6AXH@Z@__crt_fast_encoded_nullptr_t@@QEBAP6AXH@ZXZ 000000014004b03c     libucrtd:signal.obj
 0002:0001103c       $unwind$??$__crt_fast_encode_pointer@P6AXH@Z@@YAP6AXH@ZQ6AXH@Z@Z 000000014004b03c     libucrtd:signal.obj
 0002:0001103c       $unwind$??R<lambda_44731a7d0e6d81c3e6aa82d741081786>@@QEBAP6AXH@ZXZ 000000014004b03c     libucrtd:signal.obj
 0002:0001103c       $unwind$ReadPointerNoFence 000000014004b03c     LIBCMTD:guard_support.obj
 0002:0001103c       $unwind$?type_case_d@?$output_processor@DV?$string_output_adapter@D@__crt_stdio_output@@V?$format_validation_base@DV?$string_output_adapter@D@__crt_stdio_output@@@2@@__crt_stdio_output@@AEAA_NXZ 000000014004b03c     libucrtd:output.obj
 0002:0001103c       $unwind$??1?$standard_base@DV?$string_output_adapter@D@__crt_stdio_output@@@__crt_stdio_output@@QEAA@XZ 000000014004b03c     libucrtd:output.obj
 0002:0001103c       $unwind$??R<lambda_450d765d439847d4c735a33c368b5fc0>@@QEBAXXZ 000000014004b03c     libucrtd:signal.obj
 0002:0001103c       $unwind$__acrt_locale_free_lc_time_if_unreferenced 000000014004b03c     libucrtd:locale_refcounting.obj
 0002:0001103c       $unwind$??R<lambda_601a2a7da3b7a96e9554ac7215c4b07c>@@QEBAXXZ 000000014004b03c     libucrtd:signal.obj
 0002:0001103c       $unwind$??R<lambda_efa02eb69bf647d2f7ff0dd6f1103f72>@@QEBAXXZ 000000014004b03c     libucrtd:mbctype.obj
 0002:0001103c       $unwind$??B?$__crt_unique_heap_ptr@U__acrt_ptd@@U__crt_internal_free_policy@@@@QEBA_NXZ 000000014004b03c     libucrtd:per_thread_data.obj
 0002:0001103c       $unwind$malloc             000000014004b03c     libucrtd:malloc.obj
 0002:0001103c       $unwind$??$tcslen@AEBQEB_W@?$__crt_char_traits@_W@@SA_KAEBQEB_W@Z 000000014004b03c     libucrtd:dbgrpt.obj
 0002:0001103c       $unwind$?__acrt_stdio_free_stream@@YAXV__crt_stdio_stream@@@Z 000000014004b03c     libucrtd:stream.obj
 0002:0001103c       $unwind$??$tcslen@AEAY0BAF@_W@?$__crt_char_traits@_W@@SA_KAEAY0BAF@_W@Z 000000014004b03c     libucrtd:dbgrpt.obj
 0002:0001103c       $unwind$??R<lambda_8ddc48ad9d26c778cb15812d1d88fc8a>@@QEBAXXZ 000000014004b03c     libucrtd:close.obj
 0002:0001103c       $unwind$??1?$__crt_scoped_stack_ptr@_W@@QEAA@XZ 000000014004b03c     libucrtd:getstringtypea.obj
 0002:0001103c       $unwind$?state_case_width@?$output_processor@DV?$string_output_adapter@D@__crt_stdio_output@@V?$format_validation_base@DV?$string_output_adapter@D@__crt_stdio_output@@@2@@__crt_stdio_output@@AEAA_NXZ 000000014004b03c     libucrtd:output.obj
 0002:0001103c       $unwind$??$output_debug_string@AEBQEB_W@?$__crt_char_traits@_W@@SAXAEBQEB_W@Z 000000014004b03c     libucrtd:crtmbox.obj
 0002:0001103c       $unwind$??1?$output_adapter_data@_WV?$string_output_adapter@_W@__crt_stdio_output@@@__crt_stdio_output@@QEAA@XZ 000000014004b03c     libucrtd:output.obj
 0002:0001103c       $unwind$??R<lambda_728235dc0fc2b1f82d1fa5b3e7102d8f>@@QEBAXXZ 000000014004b03c     libucrtd:mbctype.obj
 0002:0001103c       $unwind$??1?$__crt_unique_heap_ptr@DU__crt_internal_free_policy@@@@QEAA@XZ 000000014004b03c     libvcruntimed:std_type_info.obj
 0002:0001103c       $unwind$??$tcslen@AEBQEBD@?$__crt_char_traits@D@@SA_KAEBQEBD@Z 000000014004b03c     libucrtd:dbgrpt.obj
 0002:0001103c       $unwind$??$tcslen@AEAY0BAF@D@?$__crt_char_traits@D@@SA_KAEAY0BAF@D@Z 000000014004b03c     libucrtd:dbgrpt.obj
 0002:0001103c       $unwind$?update_field_width@?$standard_base@_WV?$string_output_adapter@_W@__crt_stdio_output@@@__crt_stdio_output@@IEAA_NXZ 000000014004b03c     libucrtd:output.obj
 0002:0001103c       $unwind$??B?$__crt_unique_heap_ptr@DU__crt_internal_free_policy@@@@QEBA_NXZ 000000014004b03c     libvcruntimed:std_type_info.obj
 0002:0001103c       $unwind$?update_precision@?$standard_base@_WV?$string_output_adapter@_W@__crt_stdio_output@@@__crt_stdio_output@@IEAA_NXZ 000000014004b03c     libucrtd:output.obj
 0002:0001103c       $unwind$??R<lambda_d90129c13df834fdcbf8d2b88dafcf2d>@@QEBAXXZ 000000014004b03c     libucrtd:fflush.obj
 0002:0001103c       $unwind$??R<lambda_53fc7fc888e23d815d7080162c0aeeb2>@@QEBAXXZ 000000014004b03c     libucrtd:close.obj
 0002:0001103c       $unwind$??1?$standard_base@_WV?$string_output_adapter@_W@__crt_stdio_output@@@__crt_stdio_output@@QEAA@XZ 000000014004b03c     libucrtd:output.obj
 0002:0001103c       $unwind$?state_case_normal_common@?$output_processor@DV?$string_output_adapter@D@__crt_stdio_output@@V?$format_validation_base@DV?$string_output_adapter@D@__crt_stdio_output@@@2@@__crt_stdio_output@@AEAA_NXZ 000000014004b03c     libucrtd:output.obj
 0002:0001103c       $unwind$??$__crt_fast_decode_pointer@P6AHPEAU_exception@@@Z@@YAP6AHPEAU_exception@@@ZQ6AH0@Z@Z 000000014004b03c     libucrtd:matherr.obj
 0002:0001103c       $unwind$??$free_crt_array@_W$01@@YAXAEAY01PEA_W@Z 000000014004b03c     libucrtd:inittime.obj
 0002:0001103c       $unwind$??1?$format_validation_base@DV?$string_output_adapter@D@__crt_stdio_output@@@__crt_stdio_output@@QEAA@XZ 000000014004b03c     libucrtd:output.obj
 0002:0001103c       $unwind$??$free_crt_array@_W$0M@@@YAXAEAY0M@PEA_W@Z 000000014004b03c     libucrtd:inittime.obj
 0002:0001103c       $unwind$?set_to_nullptr@?$__crt_win32_buffer@_WU__crt_win32_buffer_internal_dynamic_resizing@@@@QEAAXXZ 000000014004b03c     libucrtd:argv_wildcards.obj
 0002:0001103c       $unwind$??$free_crt_array@_W$06@@YAXAEAY06PEA_W@Z 000000014004b03c     libucrtd:inittime.obj
 0002:0001103c       $unwind$??R<lambda_0ae27a3a962d80f24befdcbee591983d>@@QEBAXXZ 000000014004b03c     libucrtd:per_thread_data.obj
 0002:0001103c       $unwind$??$free_crt_array@D$01@@YAXAEAY01PEAD@Z 000000014004b03c     libucrtd:inittime.obj
 0002:0001103c       $unwind$??$__crt_fast_encode_pointer@P6AHPEAU_exception@@@Z@@YAP6AHPEAU_exception@@@ZQ6AH0@Z@Z 000000014004b03c     libucrtd:matherr.obj
 0002:0001103c       $unwind$??$free_crt_array@D$0M@@@YAXAEAY0M@PEAD@Z 000000014004b03c     libucrtd:inittime.obj
 0002:0001103c       $unwind$__vcrt_freefls     000000014004b03c     libvcruntimed:per_thread_data.obj
 0002:0001103c       $unwind$??$free_crt_array@D$06@@YAXAEAY06PEAD@Z 000000014004b03c     libucrtd:inittime.obj
 0002:0001103c       $unwind$??0scoped_get_last_error_reset@?A0xef8ec17e@@QEAA@XZ 000000014004b03c     libvcruntimed:per_thread_data.obj
 0002:0001103c       $unwind$?_deallocate@?$__crt_win32_buffer@_WU__crt_win32_buffer_internal_dynamic_resizing@@@@AEAAXXZ 000000014004b03c     libucrtd:argv_wildcards.obj
 0002:0001103c       $unwind$??1scoped_get_last_error_reset@?A0xef8ec17e@@QEAA@XZ 000000014004b03c     libvcruntimed:per_thread_data.obj
 0002:0001103c       $unwind$__acrt_locale_free_time 000000014004b03c     libucrtd:inittime.obj
 0002:0001103c       $unwind$?store_and_initialize_ptd@@YA_NQEAU__vcrt_ptd@@@Z 000000014004b03c     libvcruntimed:per_thread_data.obj
 0002:0001103c       $unwind$??1?$__crt_unique_heap_ptr@U__vcrt_ptd@@U__crt_internal_free_policy@@@@QEAA@XZ 000000014004b03c     libvcruntimed:per_thread_data.obj
 0002:0001103c       $unwind$??1?$format_validation_base@_WV?$string_output_adapter@_W@__crt_stdio_output@@@__crt_stdio_output@@QEAA@XZ 000000014004b03c     libucrtd:output.obj
 0002:0001103c       $unwind$??1_LocaleUpdate@@QEAA@XZ 000000014004b03c     libucrtd:debug_heap.obj
 0002:0001103c       $unwind$_CrtIsValidHeapPointer 000000014004b03c     libucrtd:debug_heap.obj
 0002:0001103c       $unwind$??B?$__crt_unique_heap_ptr@U__vcrt_ptd@@U__crt_internal_free_policy@@@@QEBA_NXZ 000000014004b03c     libvcruntimed:per_thread_data.obj
 0002:0001103c       $unwind$?set_to_nullptr@?$__crt_win32_buffer@DU__crt_win32_buffer_internal_dynamic_resizing@@@@QEAAXXZ 000000014004b03c     libucrtd:argv_wildcards.obj
 0002:0001103c       $unwind$??1?$__crt_unique_heap_ptr@PEAU__crt_stdio_stream_data@@U__crt_internal_free_policy@@@@QEAA@XZ 000000014004b03c     libucrtd:_file.obj
 0002:0001103c       $unwind$__acrt_locale_free_numeric 000000014004b03c     libucrtd:initnum.obj
 0002:0001103c       $unwind$??R<lambda_dc504788e8f1664fe9b84e20bfb512f2>@@QEBAXXZ 000000014004b03c     libucrtd:per_thread_data.obj
 0002:0001103c       $unwind$__acrt_locale_free_monetary 000000014004b03c     libucrtd:initmon.obj
 0002:0001103c       $unwind$?type_case_u@?$output_processor@DV?$string_output_adapter@D@__crt_stdio_output@@V?$format_validation_base@DV?$string_output_adapter@D@__crt_stdio_output@@@2@@__crt_stdio_output@@AEAA_NXZ 000000014004b03c     libucrtd:output.obj
 0002:0001103c       $unwind$?_deallocate@?$__crt_win32_buffer@DU__crt_win32_buffer_internal_dynamic_resizing@@@@AEAAXXZ 000000014004b03c     libucrtd:argv_wildcards.obj
 0002:0001103c       $unwind$??R<lambda_842d9ff0dc9ef11c61343bbaebe7f885>@@QEBAXXZ 000000014004b03c     libucrtd:fflush.obj
 0002:0001103c       $unwind$__acrt_initialize_new_handler 000000014004b03c     libucrtd:new_handler.obj
 0002:0001103c       $unwind$fegetenv           000000014004b03c     libucrtd:fegetenv.obj
 0002:0001103c       $unwind$?value@?$dual_state_global@P6AHPEAU_exception@@@Z@__crt_state_management@@QEAAAEAP6AHPEAU_exception@@@ZXZ 000000014004b03c     libucrtd:matherr.obj
 0002:0001103c       $unwind$??R<lambda_aa87e3671a710a21b5dc78c0bdf72e11>@@QEBAXXZ 000000014004b03c     libucrtd:per_thread_data.obj
 0002:0001103c       $unwind$__acrt_initialize_user_matherr 000000014004b03c     libucrtd:matherr.obj
 0002:0001103c       $unwind$??R<lambda_6992ecaafeb10aed2b74cb1fae11a551>@@QEBAXXZ 000000014004b03c     libucrtd:per_thread_data.obj
 0002:0001103c       $unwind$__acrt_initialize_signal_handlers 000000014004b03c     libucrtd:signal.obj
 0002:0001103c       $unwind$??$count@D@formatting_buffer@__crt_stdio_output@@QEBA_KXZ 000000014004b03c     libucrtd:output.obj
 0002:0001103c       $unwind$?type_case_c@?$output_processor@DV?$string_output_adapter@D@__crt_stdio_output@@V?$format_validation_base@DV?$string_output_adapter@D@__crt_stdio_output@@@2@@__crt_stdio_output@@AEAA_NXZ 000000014004b03c     libucrtd:output.obj
 0002:0001103c       $unwind$??$?BX@__crt_fast_encoded_nullptr_t@@QEBAPEAXXZ 000000014004b03c     libvcruntimed:winapi_downlevel.obj
 0002:0001103c       $unwind$??R<lambda_74a0ef281e44d15e1136f792f539efb3>@@QEBAXXZ 000000014004b03c     libucrtd:per_thread_data.obj
 0002:0001103c       $unwind$??$__crt_interlocked_read_pointer@UHINSTANCE__@@@@YAPEAUHINSTANCE__@@PEDSEAU0@@Z 000000014004b03c     libvcruntimed:winapi_downlevel.obj
 0002:0001103c       $unwind$?value@?$dual_state_global@P6AXH@Z@__crt_state_management@@QEAAAEAP6AXH@ZXZ 000000014004b03c     libucrtd:signal.obj
 0002:0001103c       $unwind$??R<lambda_04ddeca75b7c13fd67716e8dfcef87ee>@@QEBAXXZ 000000014004b03c     libucrtd:per_thread_data.obj
 0002:0001103c       $unwind$??$scratch_count@D@formatting_buffer@__crt_stdio_output@@QEBA_KXZ 000000014004b03c     libucrtd:output.obj
 0002:0001103c       $unwind$??R<lambda_6aaa2265f5b6a89667e7d7630012e97a>@@QEBAXXZ 000000014004b03c     libucrtd:onexit.obj
 0002:0001103c       $unwind$??R<lambda_6a47f4c8fd0152770a780fc1d70204eb>@@QEBAXXZ 000000014004b03c     libucrtd:onexit.obj
 0002:0001103c       $unwind$??$__crt_interlocked_read_pointer@X@@YAPEAXPEDSEAX@Z 000000014004b03c     libvcruntimed:winapi_downlevel.obj
 0002:0001103c       $unwind$??B?$__crt_unique_heap_ptr@U__crt_lowio_handle_data@@U__crt_internal_free_policy@@@@QEBA_NXZ 000000014004b03c     libucrtd:osfinfo.obj
 0002:0001103c       $unwind$??$__crt_fast_decode_pointer@PEAX@@YAPEAXQEAX@Z 000000014004b03c     libvcruntimed:winapi_downlevel.obj
 0002:0001103c       $unwind$??R<lambda_00e911965883f7966597d4c465c83ebc>@@QEBAXXZ 000000014004b03c     libucrtd:onexit.obj
 0002:0001103c       $unwind$??$__crt_fast_encode_pointer@PEAX@@YAPEAXQEAX@Z 000000014004b03c     libvcruntimed:winapi_downlevel.obj
 0002:0001103c       $unwind$??R<lambda_dce957679fd779aa27c4ca5c39e09098>@@QEBAXXZ 000000014004b03c     libucrtd:onexit.obj
 0002:0001103c       $unwind$?lowio_handle@__crt_stdio_stream@@QEBAHXZ 000000014004b03c     libucrtd:fileno.obj
 0002:0001103c       $unwind$??$__crt_fast_encode_pointer@P6AHXZ@@YAP6AHXZQ6AHXZ@Z 000000014004b03c     libucrtd:onexit.obj
 0002:0001103c       $unwind$??$set_program_name@PEAD@?$__crt_char_traits@D@@SAX$$QEAPEAD@Z 000000014004b03c     libucrtd:argv_parsing.obj
 0002:0001103c       $unwind$??1?$__crt_unique_heap_ptr@U__crt_lowio_handle_data@@U__crt_internal_free_policy@@@@QEAA@XZ 000000014004b03c     libucrtd:osfinfo.obj
 0002:0001103c       $unwind$??$?B$$A6AXXZ@__crt_fast_encoded_nullptr_t@@QEBAP6AXXZXZ 000000014004b03c     libvcruntimed:purevirt_data.obj
 0002:0001103c       $unwind$??$__crt_fast_encode_pointer@P6AXXZ@@YAP6AXXZQ6AXXZ@Z 000000014004b03c     libvcruntimed:purevirt_data.obj
 0002:0001103c       $unwind$??1?$__crt_unique_heap_ptr@P6AXXZU__crt_internal_free_policy@@@@QEAA@XZ 000000014004b03c     libucrtd:onexit.obj
 0002:0001103c       $unwind$??$?BP6AXXZ@__crt_fast_encoded_nullptr_t@@QEBAPEAP6AXXZXZ 000000014004b03c     libucrtd:onexit.obj
 0002:0001103c       $unwind$??$__crt_fast_decode_pointer@P6AXXZ@@YAP6AXXZQ6AXXZ@Z 000000014004b03c     libvcruntimed:purevirt.obj
 0002:0001103c       $unwind$_crt_atexit        000000014004b03c     libucrtd:onexit.obj
 0002:0001103c       $unwind$??R<lambda_2d41944a1d46af3157314b8a01080d33>@@QEBAXXZ 000000014004b03c     libucrtd:per_thread_data.obj
 0002:0001103c       $unwind$??1?$__crt_unique_handle_t@U__crt_findfile_traits@@@@QEAA@XZ 000000014004b03c     libucrtd:argv_wildcards.obj
 0002:0001103c       $unwind$?close@?$__crt_unique_handle_t@U__crt_findfile_traits@@@@QEAAXXZ 000000014004b03c     libucrtd:argv_wildcards.obj
 0002:0001103c       $unwind$??0big_integer@__crt_strtox@@QEAA@XZ 000000014004b03c     libucrtd:cfout.obj
 0002:0001103c       $unwind$??R<lambda_aa500f224e6afead328df44964fe2772>@@QEBAXXZ 000000014004b03c     libucrtd:per_thread_data.obj
 0002:0001103c       $unwind$??$data@_W@formatting_buffer@__crt_stdio_output@@QEAAPEA_WXZ 000000014004b03c     libucrtd:output.obj
 0002:0001103c       $unwind$?value@?$dual_state_global@J@__crt_state_management@@QEAAAEAJXZ 000000014004b03c     libucrtd:new_mode.obj
 0002:0001103c       $unwind$??R<lambda_38119f0e861e05405d8a144b9b982f0a>@@QEBAXXZ 000000014004b03c     libucrtd:wsetlocale.obj
 0002:0001103c       $unwind$_SetImageBase      000000014004b03c     libvcruntimed:risctrnsctrl.obj
 0002:0001103c       $unwind$??$count@_W@formatting_buffer@__crt_stdio_output@@QEBA_KXZ 000000014004b03c     libucrtd:output.obj
 0002:0001103c       $unwind$_SetThrowImageBase 000000014004b03c     libvcruntimed:risctrnsctrl.obj
 0002:0001103c       $unwind$??R<lambda_410d79af7f07d98d83a3f525b3859a53>@@QEBAXXZ 000000014004b03c     libucrtd:wsetlocale.obj
 0002:0001103c       $unwind$??B?$__crt_unique_heap_ptr@U__crt_multibyte_data@@U__crt_internal_free_policy@@@@QEBA_NXZ 000000014004b03c     libucrtd:wsetlocale.obj
 0002:0001103c       $unwind$??1?$output_processor@_WV?$string_output_adapter@_W@__crt_stdio_output@@V?$format_validation_base@_WV?$string_output_adapter@_W@__crt_stdio_output@@@2@@__crt_stdio_output@@QEAA@XZ 000000014004b03c     libucrtd:output.obj
 0002:0001103c       $unwind$?set_to_nullptr@?$__crt_win32_buffer@DU__crt_win32_buffer_no_resizing@@@@QEAAXXZ 000000014004b03c     libucrtd:getmodulefilenamea.obj
 0002:0001103c       $unwind$?type_case_p@?$output_processor@_WV?$string_output_adapter@_W@__crt_stdio_output@@V?$format_validation_base@_WV?$string_output_adapter@_W@__crt_stdio_output@@@2@@__crt_stdio_output@@AEAA_NXZ 000000014004b03c     libucrtd:output.obj
 0002:0001103c       $unwind$?appmodel_get_policy@windowing_model_policy_properties@?1??__acrt_get_windowing_model_policy@@YA?AW4windowing_model_policy@@XZ@SAJPEAW4AppPolicyWindowingModel@@@Z 000000014004b03c     libucrtd:win_policies.obj
 0002:0001103c       $unwind$?type_case_x@?$output_processor@_WV?$string_output_adapter@_W@__crt_stdio_output@@V?$format_validation_base@_WV?$string_output_adapter@_W@__crt_stdio_output@@@2@@__crt_stdio_output@@AEAA_NXZ 000000014004b03c     libucrtd:output.obj
 0002:0001103c       $unwind$?type_case_X@?$output_processor@_WV?$string_output_adapter@_W@__crt_stdio_output@@V?$format_validation_base@_WV?$string_output_adapter@_W@__crt_stdio_output@@@2@@__crt_stdio_output@@AEAA_NXZ 000000014004b03c     libucrtd:output.obj
 0002:0001103c       $unwind$?_deallocate@?$__crt_win32_buffer@DU__crt_win32_buffer_no_resizing@@@@AEAAXXZ 000000014004b03c     libucrtd:getmodulefilenamea.obj
 0002:0001103c       $unwind$?type_case_o@?$output_processor@_WV?$string_output_adapter@_W@__crt_stdio_output@@V?$format_validation_base@_WV?$string_output_adapter@_W@__crt_stdio_output@@@2@@__crt_stdio_output@@AEAA_NXZ 000000014004b03c     libucrtd:output.obj
 0002:0001103c       $unwind$?type_case_u@?$output_processor@_WV?$string_output_adapter@_W@__crt_stdio_output@@V?$format_validation_base@_WV?$string_output_adapter@_W@__crt_stdio_output@@@2@@__crt_stdio_output@@AEAA_NXZ 000000014004b03c     libucrtd:output.obj
 0002:0001103c       $unwind$?appmodel_get_policy@developer_information_policy_properties@?1??__acrt_get_developer_information_policy@@YA?AW4developer_information_policy@@XZ@SAJPEAW4AppPolicyShowDeveloperDiagnostic@@@Z 000000014004b03c     libucrtd:win_policies.obj
 0002:0001103c       $unwind$?type_case_d@?$output_processor@_WV?$string_output_adapter@_W@__crt_stdio_output@@V?$format_validation_base@_WV?$string_output_adapter@_W@__crt_stdio_output@@@2@@__crt_stdio_output@@AEAA_NXZ 000000014004b03c     libucrtd:output.obj
 0002:0001103c       $unwind$?value@?$dual_state_global@P6AXPEB_W00I_K@Z@__crt_state_management@@QEAAAEAP6AXPEB_W00I_K@ZXZ 000000014004b03c     libucrtd:invalid_parameter.obj
 0002:0001103c       $unwind$??1?$__crt_unique_heap_ptr@U__crt_multibyte_data@@U__crt_internal_free_policy@@@@QEAA@XZ 000000014004b03c     libucrtd:wsetlocale.obj
 0002:0001103c       $unwind$?appmodel_get_policy@process_end_policy_properties@?1??__acrt_get_process_end_policy@@YA?AW4process_end_policy@@XZ@SAJPEAW4AppPolicyProcessTerminationMethod@@@Z 000000014004b03c     libucrtd:win_policies.obj
 0002:0001103c       $unwind$?value@?$dual_state_global@PEAU__crt_locale_data@@@__crt_state_management@@QEAAAEAPEAU__crt_locale_data@@XZ 000000014004b03c     libucrtd:wsetlocale.obj
 0002:0001103c       $unwind$wcslen             000000014004b03c     libucrtd:strnlen.obj
 0002:0001103c       $unwind$??$data@D@formatting_buffer@__crt_stdio_output@@QEAAPEADXZ 000000014004b03c     libucrtd:output.obj
 0002:0001103c       $unwind$?type_case_c@?$output_processor@_WV?$string_output_adapter@_W@__crt_stdio_output@@V?$format_validation_base@_WV?$string_output_adapter@_W@__crt_stdio_output@@@2@@__crt_stdio_output@@AEAA_NXZ 000000014004b03c     libucrtd:output.obj
 0002:0001103c       $unwind$__vcrt_EncodePointer 000000014004b03c     libvcruntimed:frame.obj
 0002:0001103c       $unwind$?value@?$dual_state_global@H@__crt_state_management@@QEAAAEAHXZ 000000014004b03c     libucrtd:setmode.obj
 0002:0001103c       $unwind$?state_case_precision@?$output_processor@_WV?$string_output_adapter@_W@__crt_stdio_output@@V?$format_validation_base@_WV?$string_output_adapter@_W@__crt_stdio_output@@@2@@__crt_stdio_output@@AEAA_NXZ 000000014004b03c     libucrtd:output.obj
 0002:0001103c       $unwind$??$__crt_fast_decode_pointer@P6AXPEB_W00I_K@Z@@YAP6AXPEB_W00I_K@ZQ6AX000I1@Z@Z 000000014004b03c     libucrtd:invalid_parameter.obj
 0002:0001103c       $unwind$??R<lambda_2358e3775559c9db80273638284d5e45>@@QEBAXXZ 000000014004b03c     libucrtd:exit.obj
 0002:0001103c       $unwind$??R<lambda_d80eeec6fff315bfe5c115232f3240e3>@@QEBAXXZ 000000014004b03c     libucrtd:exit.obj
 0002:0001103c       $unwind$??$__crt_interlocked_read@J@@YAJPEDJ@Z 000000014004b03c     libucrtd:exit.obj
 0002:0001103c       $unwind$?state_case_width@?$output_processor@_WV?$string_output_adapter@_W@__crt_stdio_output@@V?$format_validation_base@_WV?$string_output_adapter@_W@__crt_stdio_output@@@2@@__crt_stdio_output@@AEAA_NXZ 000000014004b03c     libucrtd:output.obj
 0002:0001103c       $unwind$?state_case_normal_common@?$output_processor@_WV?$string_output_adapter@_W@__crt_stdio_output@@V?$format_validation_base@_WV?$string_output_adapter@_W@__crt_stdio_output@@@2@@__crt_stdio_output@@AEAA_NXZ 000000014004b03c     libucrtd:output.obj
 0002:0001103c       $unwind$?type_case_o@?$output_processor@DV?$string_output_adapter@D@__crt_stdio_output@@V?$format_validation_base@DV?$string_output_adapter@D@__crt_stdio_output@@@2@@__crt_stdio_output@@AEAA_NXZ 000000014004b03c     libucrtd:output.obj
 0002:0001103c       $unwind$??$__crt_fast_decode_pointer@P6AXPEAXK0@Z@@YAP6AXPEAXK0@ZQ6AX0K0@Z@Z 000000014004b03c     libucrtd:exit.obj
 0002:0001103c       $unwind$??$__crt_fast_encode_pointer@P6AXPEAXK0@Z@@YAP6AXPEAXK0@ZQ6AX0K0@Z@Z 000000014004b03c     libucrtd:exit.obj
 0002:0001103c       $unwind$??$?B$$A6AXPEAXK0@Z@__crt_fast_encoded_nullptr_t@@QEBAP6AXPEAXK0@ZXZ 000000014004b03c     libucrtd:exit.obj
 0002:0001103c       $unwind$??1?$output_processor@DV?$string_output_adapter@D@__crt_stdio_output@@V?$format_validation_base@DV?$string_output_adapter@D@__crt_stdio_output@@@2@@__crt_stdio_output@@QEAA@XZ 000000014004b03c     libucrtd:output.obj
 0002:0001103c       $unwind$??1exception@std@@UEAA@XZ 000000014004b03c     libvcruntimed:frame.obj
 0002:0001103c       $unwind$?close@?$__crt_unique_handle_t@U__crt_hmodule_traits@@@@QEAAXXZ 000000014004b03c     libucrtd:exit.obj
 0002:0001103c       $unwind$??1?$__crt_unique_handle_t@U__crt_hmodule_traits@@@@QEAA@XZ 000000014004b03c     libucrtd:exit.obj
 0002:0001103c       $unwind$??0bad_exception@std@@QEAA@XZ 000000014004b03c     libvcruntimed:frame.obj
 0002:0001103c       $unwind$?type_case_p@?$output_processor@DV?$string_output_adapter@D@__crt_stdio_output@@V?$format_validation_base@DV?$string_output_adapter@D@__crt_stdio_output@@@2@@__crt_stdio_output@@AEAA_NXZ 000000014004b03c     libucrtd:output.obj
 0002:0001103c       $unwind$??1bad_exception@std@@UEAA@XZ 000000014004b03c     libvcruntimed:frame.obj
 0002:0001103c       $unwind$??R<lambda_c5860995281e5c4ce005b3de8f5874ee>@@QEBAXXZ 000000014004b03c     libucrtd:fflush.obj
 0002:0001103c       $unwind$?value@?$dual_state_global@PEAE@__crt_state_management@@QEAAAEAPEAEXZ 000000014004b03c     libucrtd:mbctype.obj
 0002:0001103c       $unwind$?type_case_x@?$output_processor@DV?$string_output_adapter@D@__crt_stdio_output@@V?$format_validation_base@DV?$string_output_adapter@D@__crt_stdio_output@@@2@@__crt_stdio_output@@AEAA_NXZ 000000014004b03c     libucrtd:output.obj
 0002:0001103c       $unwind$?type_case_X@?$output_processor@DV?$string_output_adapter@D@__crt_stdio_output@@V?$format_validation_base@DV?$string_output_adapter@D@__crt_stdio_output@@@2@@__crt_stdio_output@@AEAA_NXZ 000000014004b03c     libucrtd:output.obj
 0002:0001103c       $unwind$?has_crt_buffer@__crt_stdio_stream@@QEBA_NXZ 000000014004b03c     libucrtd:_freebuf.obj
 0002:0001103c       $unwind$?__RethrowException@@YAXPEAUEHExceptionRecord@@@Z 000000014004b03c     libvcruntimed:frame.obj
 0002:0001103c       $unwind$?value@?$dual_state_global@PEAU__crt_multibyte_data@@@__crt_state_management@@QEAAAEAPEAU__crt_multibyte_data@@XZ 000000014004b03c     libucrtd:mbctype.obj
 0002:0001103c       $unwind$__std_exception_destroy 000000014004b03c     libvcruntimed:std_exception.obj
 0002:0001103c       $unwind$??1?$__crt_unique_heap_ptr@DU__crt_public_free_policy@@@@QEAA@XZ 000000014004b03c     libvcruntimed:std_exception.obj
 0002:0001103c       $unwind$??1?$__crt_unique_heap_ptr@PEADU__crt_internal_free_policy@@@@QEAA@XZ 000000014004b03c     libucrtd:argv_parsing.obj
 0002:0001103c       $unwind$_putwch_nolock     000000014004b03c     libucrtd:putwch.obj
 0002:0001103c       $unwind$??B?$__crt_unique_heap_ptr@DU__crt_public_free_policy@@@@QEBA_NXZ 000000014004b03c     libvcruntimed:std_exception.obj
 0002:00011044       $unwind$__acrt_stdio_free_buffer_nolock 000000014004b044     libucrtd:_freebuf.obj
 0002:00011044       $unwind$?state_case_normal@?$output_processor@DV?$string_output_adapter@D@__crt_stdio_output@@V?$format_validation_base@DV?$string_output_adapter@D@__crt_stdio_output@@@2@@__crt_stdio_output@@AEAA_NXZ 000000014004b044     libucrtd:output.obj
 0002:00011044       $unwind$?state_case_normal@?$output_processor@_WV?$string_output_adapter@_W@__crt_stdio_output@@V?$format_validation_base@_WV?$string_output_adapter@_W@__crt_stdio_output@@@2@@__crt_stdio_output@@AEAA_NXZ 000000014004b044     libucrtd:output.obj
 0002:00011044       $unwind$?validate@?$string_output_adapter@D@__crt_stdio_output@@QEBA_NXZ 000000014004b044     libucrtd:output.obj
 0002:00011044       $unwind$?issue_debug_notification@@YA_NQEB_W@Z 000000014004b044     libucrtd:report_runtime_error.obj
 0002:00011044       $unwind$__acrt_lowio_destroy_handle_array 000000014004b044     libucrtd:osfinfo.obj
 0002:00011044       $unwind$_fileno            000000014004b044     libucrtd:fileno.obj
 0002:00011044       $unwind$?is_contraction_possible@@YA_N_K@Z 000000014004b044     libucrtd:expand.obj
 0002:00011044       $unwind$?validate@?$c_string_character_source@D@__crt_strtox@@QEBA_NXZ 000000014004b044     libucrtd:atox.obj
 0002:00011044       $unwind$?validate@?$c_string_character_source@_W@__crt_strtox@@QEBA_NXZ 000000014004b044     libucrtd:atox.obj
 0002:00011044       $unwind$?validate_and_update_state_at_end_of_format_string@?$format_validation_base@_WV?$string_output_adapter@_W@__crt_stdio_output@@@__crt_stdio_output@@IEBA_NXZ 000000014004b044     libucrtd:output.obj
 0002:00011044       $unwind$__FrameUnwindFilter 000000014004b044     libvcruntimed:ehhelpers.obj
 0002:00011044       $unwind$?validate_and_update_state_at_end_of_format_string@?$format_validation_base@DV?$string_output_adapter@D@__crt_stdio_output@@@__crt_stdio_output@@IEBA_NXZ 000000014004b044     libucrtd:output.obj
 0002:00011044       $unwind$_freea_crt         000000014004b044     libucrtd:getstringtypea.obj
 0002:00011044       $unwind$?validate@?$string_output_adapter@_W@__crt_stdio_output@@QEBA_NXZ 000000014004b044     libucrtd:output.obj
 0002:00011044       $unwind$__acrt_free_locale 000000014004b044     libucrtd:locale_refcounting.obj
 0002:00011044       $unwind$__acrt_stdio_flush_nolock 000000014004b044     libucrtd:fflush.obj
 0002:00011044       $unwind$_onexit            000000014004b044     LIBCMTD:utility.obj
 0002:00011044       $unwind$_malloc_base       000000014004b044     libucrtd:malloc_base.obj
 0002:00011044       $unwind$?GetTableIndexFromLocaleName@@YAHPEB_W@Z 000000014004b044     libucrtd:lcidtoname_downlevel.obj
 0002:00011044       $unwind$??R<lambda_5533cddd4bda0037814beee657757329>@@QEBAHXZ 000000014004b044     libucrtd:commit.obj
 0002:0001104c       $unwind$__scrt_is_nonwritable_in_current_image 000000014004b04c     LIBCMTD:utility.obj
 0002:0001106c       $unwind$__scrt_acquire_startup_lock 000000014004b06c     LIBCMTD:utility.obj
 0002:0001106c       $unwind$?internal_getptd_noexit@@YAPEAU__acrt_ptd@@XZ 000000014004b06c     libucrtd:per_thread_data.obj
 0002:0001106c       $unwind$?initialize_stdio_handles_nolock@@YAXXZ 000000014004b06c     libucrtd:ioinit.obj
 0002:0001106c       $unwind$??$common_wincmdln@E@@YAPEAEXZ 000000014004b06c     libucrtd:argv_winmain.obj
 0002:0001106c       $unwind$__acrt_initialize_fmode 000000014004b06c     libucrtd:txtmode.obj
 0002:00011074       $unwind$??$is_overflow_condition@K@__crt_strtox@@YA_NIK@Z 000000014004b074     libucrtd:atox.obj
 0002:00011074       $unwind$__scrt_uninitialize_crt 000000014004b074     LIBCMTD:utility.obj
 0002:00011074       $unwind$_control87         000000014004b074     libucrtd:ieee.obj
 0002:0001107c       $unwind$__scrt_initialize_onexit_tables 000000014004b07c     LIBCMTD:utility.obj
 0002:00011088       $unwind$iswctype           000000014004b088     libucrtd:iswctype.obj
 0002:00011088       $unwind$?get_wide@@YAPEA_WQEAV?$__crt_win32_buffer@_WU__crt_win32_buffer_internal_dynamic_resizing@@@@QEAD@Z 000000014004b088     libucrtd:argv_wildcards.obj
 0002:00011088       $unwind$?common_flush_all_should_try_to_flush_stream@@YA_NV__crt_stdio_stream@@QEAH@Z 000000014004b088     libucrtd:fflush.obj
 0002:00011088       $unwind$?_CallMemberFunction0@@YAXQEAX0@Z 000000014004b088     libvcruntimed:ehhelpers.obj
 0002:00011088       $unwind$?find_pe_section@@YAPEAU_IMAGE_SECTION_HEADER@@QEAE_K@Z 000000014004b088     LIBCMTD:utility.obj
 0002:00011088       $unwind$?allocate@?$__crt_win32_buffer@_WU__crt_win32_buffer_internal_dynamic_resizing@@@@QEAAH_K@Z 000000014004b088     libucrtd:argv_wildcards.obj
 0002:00011088       $unwind$?force_decimal_point@__crt_stdio_output@@YAXPEADQEAU__crt_locale_pointers@@@Z 000000014004b088     libucrtd:output.obj
 0002:00011088       $unwind$?free_crt_array_internal@@YAXQEAPEBX_K@Z 000000014004b088     libucrtd:inittime.obj
 0002:00011088       $unwind$?get_file_name@@YAPEADQEAV?$__crt_win32_buffer@DU__crt_win32_buffer_internal_dynamic_resizing@@@@QEA_W@Z 000000014004b088     libucrtd:argv_wildcards.obj
 0002:00011088       $unwind$??$common_strnlen_c@$00G@@YA_KQEBG_K@Z 000000014004b088     libucrtd:strnlen.obj
 0002:00011088       $unwind$??$common_strnlen_c@$0A@G@@YA_KQEBG_K@Z 000000014004b088     libucrtd:strnlen.obj
 0002:00011088       $unwind$_initterm          000000014004b088     libucrtd:initterm.obj
 0002:00011088       $unwind$?allocate@?$__crt_win32_buffer@DU__crt_win32_buffer_internal_dynamic_resizing@@@@QEAAH_K@Z 000000014004b088     libucrtd:argv_wildcards.obj
 0002:00011088       $unwind$_realloc_base      000000014004b088     libucrtd:realloc_base.obj
 0002:00011088       $unwind$??8type_info@@QEBA_NAEBV0@@Z 000000014004b088     libvcruntimed:frame.obj
 0002:00011088       $unwind$??$initialize_from_array@$$BY10BAB@E@?$dual_state_global@PEAE@__crt_state_management@@QEAAXAEAY10BAB@E@Z 000000014004b088     libucrtd:mbctype.obj
 0002:00011088       $unwind$?is_space@__crt_strtox@@YA_N_WPEAU__crt_locale_pointers@@@Z 000000014004b088     libucrtd:atox.obj
 0002:00011088       $unwind$??$uninitialize@V<lambda_af27fe6ede5d83bbdbd622796c194e9c>@@@?$dual_state_global@PEAU__crt_multibyte_data@@@__crt_state_management@@QEAAX$$QEAV<lambda_af27fe6ede5d83bbdbd622796c194e9c>@@@Z 000000014004b088     libucrtd:initialization.obj
 0002:00011088       $unwind$??$common_strnlen_c@$0A@E@@YA_KQEBE_K@Z 000000014004b088     libucrtd:strnlen.obj
 0002:00011088       $unwind$?append@?$argument_list@D@?A0x5f5c8891@@QEAAHQEAD@Z 000000014004b088     libucrtd:argv_wildcards.obj
 0002:00011088       $unwind$?try_get_first_available_module@@YAPEAUHINSTANCE__@@QEBW4module_id@?A0x391cf84c@@0@Z 000000014004b088     libucrtd:winapi_thunks.obj
 0002:00011088       $unwind$?try_get_first_available_module@@YAPEAUHINSTANCE__@@QEBW4module_id@?A0xbfd18cd1@@0@Z 000000014004b088     libvcruntimed:winapi_downlevel.obj
 0002:00011088       $unwind$_updatetlocinfoEx_nolock 000000014004b088     libucrtd:locale_refcounting.obj
 0002:00011088       $unwind$??$extract_argument_from_va_list@U_CRT_DOUBLE@@U1@@?$standard_base@_WV?$string_output_adapter@_W@__crt_stdio_output@@@__crt_stdio_output@@IEAA_NAEAU_CRT_DOUBLE@@@Z 000000014004b088     libucrtd:output.obj
 0002:00011088       $unwind$??0big_integer@__crt_strtox@@QEAA@AEBU01@@Z 000000014004b088     libucrtd:cfout.obj
 0002:00011088       $unwind$?ExecutionInCatch@__FrameHandler3@@SA_NPEAU_xDISPATCHER_CONTEXT@@PEBU_s_FuncInfo@@@Z 000000014004b088     libvcruntimed:risctrnsctrl.obj
 0002:00011088       $unwind$??4big_integer@__crt_strtox@@QEAAAEAU01@AEBU01@@Z 000000014004b088     libucrtd:cfout.obj
 0002:00011088       $unwind$??$extract_argument_from_va_list@U_CRT_DOUBLE@@U1@@?$standard_base@DV?$string_output_adapter@D@__crt_stdio_output@@@__crt_stdio_output@@IEAA_NAEAU_CRT_DOUBLE@@@Z 000000014004b088     libucrtd:output.obj
 0002:00011088       $unwind$_CreateFrameInfo   000000014004b088     libvcruntimed:risctrnsctrl.obj
 0002:00011088       $unwind$?allocate@?$__crt_win32_buffer@DU__crt_win32_buffer_no_resizing@@@@QEAAH_K@Z 000000014004b088     libucrtd:getmodulefilenamea.obj
 0002:00011088       $unwind$??9__crt_strtox@@YA_NAEBUbig_integer@0@0@Z 000000014004b088     libucrtd:cfout.obj
 0002:00011088       $unwind$__acrt_execute_uninitializers 000000014004b088     libucrtd:shared_initialization.obj
 0002:00011088       $unwind$??9iterator@HandlerMap@__FrameHandler3@@QEBA_NAEBV012@@Z 000000014004b088     libvcruntimed:frame.obj
 0002:00011088       $unwind$?StateFromControlPc@__FrameHandler3@@SAHPEBU_s_FuncInfo@@PEAU_xDISPATCHER_CONTEXT@@@Z 000000014004b088     libvcruntimed:ehstate.obj
 0002:00011088       $unwind$?type_case_c_tchar@?$output_processor@_WV?$string_output_adapter@_W@__crt_stdio_output@@V?$format_validation_base@_WV?$string_output_adapter@_W@__crt_stdio_output@@@2@@__crt_stdio_output@@AEAA_N_W@Z 000000014004b088     libucrtd:output.obj
 0002:00011088       $unwind$??$uninitialize@V<lambda_363eea9039da1e8169e2d060c7fe5cbc>@@@?$dual_state_global@PEAU__crt_locale_data@@@__crt_state_management@@QEAAX$$QEAV<lambda_363eea9039da1e8169e2d060c7fe5cbc>@@@Z 000000014004b088     libucrtd:wsetlocale.obj
 0002:00011088       $unwind$??$initialize_from_array@$$BY10BAA@E@?$dual_state_global@PEAE@__crt_state_management@@QEAAXAEAY10BAA@E@Z 000000014004b088     libucrtd:mbctype.obj
 0002:00011088       $unwind$??$initialize_from_array@$$BY00Q6AXPEB_W00I_K@Z@?$dual_state_global@P6AXPEB_W00I_K@Z@__crt_state_management@@QEAAXAEAY00Q6AXPEB_W00I_K@Z@Z 000000014004b088     libucrtd:invalid_parameter.obj
 0002:00011090       $unwind$__get_entropy      000000014004b090     LIBCMTD:gs_support.obj
 0002:00011098       $unwind$__scrt_is_ucrt_dll_in_use 000000014004b098     LIBCMTD:ucrt_detection.obj
 0002:00011098       $unwind$_get_printf_count_output 000000014004b098     libucrtd:printf_count_output.obj
 0002:00011098       $unwind$__acrt_locale_changed 000000014004b098     libucrtd:debug_heap.obj
 0002:00011098       $unwind$__scrt_is_user_matherr_present 000000014004b098     LIBCMTD:matherr_detection.obj
 0002:00011098       $unwind$?get_zero_pack@?$__crt_simd_pack_traits@$0A@@@SA?AT__m128i@@XZ 000000014004b098     libucrtd:strnlen.obj
 0002:000110a0       $unwind$__scrt_get_show_window_mode 000000014004b0a0     LIBCMTD:utility_desktop.obj
 0002:000110ac       $unwind$__scrt_fastfail    000000014004b0ac     LIBCMTD:utility_desktop.obj
 0002:000110b8       $unwind$_RTC_Terminate     000000014004b0b8     LIBCMTD:initsect.obj
 0002:000110b8       $unwind$_RTC_Initialize    000000014004b0b8     LIBCMTD:initsect.obj
 0002:000110b8       $unwind$??$common_initialize_environment_nolock@D@@YAHXZ 000000014004b0b8     libucrtd:environment_initialization.obj
 0002:000110c4       $unwind$?is_first_surrogate@?A0xc60ee810@@YA_N_S@Z 000000014004b0c4     libucrtd:c16rtomb.obj
 0002:000110c4       $unwind$?has_surrogate@?A0xc60ee810@@YA_NPEAU_Mbstatet@@@Z 000000014004b0c4     libucrtd:c16rtomb.obj
 0002:000110c4       $unwind$?detach@?$__crt_unique_heap_ptr@U__crt_multibyte_data@@U__crt_internal_free_policy@@@@QEAAPEAU__crt_multibyte_data@@XZ 000000014004b0c4     libucrtd:wsetlocale.obj
 0002:000110c4       $unwind$?is_zero@__crt_strtox@@YA_NAEBUbig_integer@1@@Z 000000014004b0c4     libucrtd:cfout.obj
 0002:000110c4       $unwind$?valid@__crt_stdio_stream@@QEBA_NXZ 000000014004b0c4     libucrtd:output.obj
 0002:000110c4       $unwind$?advance_to_next_pass@?$standard_base@DV?$string_output_adapter@D@__crt_stdio_output@@@__crt_stdio_output@@IEAA_NXZ 000000014004b0c4     libucrtd:output.obj
 0002:000110c4       $unwind$?is_valid@?$__crt_unique_heap_ptr@U__crt_multibyte_data@@U__crt_internal_free_policy@@@@QEBA_NXZ 000000014004b0c4     libucrtd:wsetlocale.obj
 0002:000110c4       $unwind$?is_valid@?$__crt_unique_heap_ptr@EU__crt_internal_free_policy@@@@QEBA_NXZ 000000014004b0c4     libucrtd:argv_parsing.obj
 0002:000110c4       $unwind$??$read_va_arg@PEAD@__crt_stdio_output@@YAPEADAEAPEAD@Z 000000014004b0c4     libucrtd:output.obj
 0002:000110c4       $unwind$?detach@?$__crt_unique_heap_ptr@EU__crt_internal_free_policy@@@@QEAAPEAEXZ 000000014004b0c4     libucrtd:argv_parsing.obj
 0002:000110c4       $unwind$?is_valid@?$__crt_unique_heap_ptr@U__acrt_ptd@@U__crt_internal_free_policy@@@@QEBA_NXZ 000000014004b0c4     libucrtd:per_thread_data.obj
 0002:000110c4       $unwind$??$read_va_arg@C@__crt_stdio_output@@YACAEAPEAD@Z 000000014004b0c4     libucrtd:output.obj
 0002:000110c4       $unwind$?detach@?$__crt_unique_heap_ptr@U__acrt_ptd@@U__crt_internal_free_policy@@@@QEAAPEAU__acrt_ptd@@XZ 000000014004b0c4     libucrtd:per_thread_data.obj
 0002:000110c4       $unwind$??B?$__crt_scoped_stack_ptr@_W@@QEBA_NXZ 000000014004b0c4     libucrtd:lcmapstringa.obj
 0002:000110c4       $unwind$?__acrt_fp_classify@@YA?AW4__acrt_fp_class@@AEBN@Z 000000014004b0c4     libucrtd:cvt.obj
 0002:000110c4       $unwind$??$read_va_arg@E@__crt_stdio_output@@YAEAEAPEAD@Z 000000014004b0c4     libucrtd:output.obj
 0002:000110c4       $unwind$ReadNoFence64      000000014004b0c4     LIBCMTD:guard_support.obj
 0002:000110c4       $unwind$??$read_va_arg@F@__crt_stdio_output@@YAFAEAPEAD@Z 000000014004b0c4     libucrtd:output.obj
 0002:000110c4       $unwind$_handle_nan        000000014004b0c4     libucrtd:libm_error.obj
 0002:000110c4       $unwind$?__acrt_fp_is_negative@@YA_NAEBN@Z 000000014004b0c4     libucrtd:cvt.obj
 0002:000110c4       $unwind$?__crt_interlocked_read_64@@YA_JPED_J@Z 000000014004b0c4     libvcruntimed:std_type_info.obj
 0002:000110c4       $unwind$??$read_va_arg@G@__crt_stdio_output@@YAGAEAPEAD@Z 000000014004b0c4     libucrtd:output.obj
 0002:000110c4       $unwind$_MallocaComputeSize 000000014004b0c4     libucrtd:getstringtypea.obj
 0002:000110c4       $unwind$?isEHs@__FrameHandler3@@SA_NPEBU_s_FuncInfo@@@Z 000000014004b0c4     libvcruntimed:frame.obj
 0002:000110c4       $unwind$?advance_to_next_pass@?$standard_base@_WV?$string_output_adapter@_W@__crt_stdio_output@@@__crt_stdio_output@@IEAA_NXZ 000000014004b0c4     libucrtd:output.obj
 0002:000110c4       $unwind$?detach@?$__crt_unique_heap_ptr@PEADU__crt_internal_free_policy@@@@QEAAPEAPEADXZ 000000014004b0c4     libucrtd:argv_parsing.obj
 0002:000110c4       $unwind$??$read_va_arg@I@__crt_stdio_output@@YAIAEAPEAD@Z 000000014004b0c4     libucrtd:output.obj
 0002:000110c4       $unwind$??$read_va_arg@_K@__crt_stdio_output@@YA_KAEAPEAD@Z 000000014004b0c4     libucrtd:output.obj
 0002:000110c4       $unwind$??$read_va_arg@_W@__crt_stdio_output@@YA_WAEAPEAD@Z 000000014004b0c4     libucrtd:output.obj
 0002:000110c4       $unwind$?detach@?$__crt_unique_heap_ptr@P6AXXZU__crt_internal_free_policy@@@@QEAAPEAP6AXXZXZ 000000014004b0c4     libucrtd:onexit.obj
 0002:000110c4       $unwind$?detach@?$__crt_unique_heap_ptr@U__crt_lowio_handle_data@@U__crt_internal_free_policy@@@@QEAAPEAU__crt_lowio_handle_data@@XZ 000000014004b0c4     libucrtd:osfinfo.obj
 0002:000110c4       $unwind$?is_valid@?$__crt_unique_heap_ptr@DU__crt_internal_free_policy@@@@QEBA_NXZ 000000014004b0c4     libvcruntimed:std_type_info.obj
 0002:000110c4       $unwind$?setSBCS@@YAXPEAU__crt_multibyte_data@@@Z 000000014004b0c4     libucrtd:mbctype.obj
 0002:000110c4       $unwind$?is_valid@?$__crt_unique_heap_ptr@DU__crt_public_free_policy@@@@QEBA_NXZ 000000014004b0c4     libvcruntimed:std_exception.obj
 0002:000110c4       $unwind$?isNoExcept@__FrameHandler3@@SA_NPEBU_s_FuncInfo@@@Z 000000014004b0c4     libvcruntimed:frame.obj
 0002:000110c4       $unwind$?get@?$c_string_character_source@_W@__crt_strtox@@QEAA_WXZ 000000014004b0c4     libucrtd:atox.obj
 0002:000110c4       $unwind$?is_valid@?$__crt_unique_heap_ptr@U__crt_lowio_handle_data@@U__crt_internal_free_policy@@@@QEBA_NXZ 000000014004b0c4     libucrtd:osfinfo.obj
 0002:000110c4       $unwind$?detach@?$__crt_unique_heap_ptr@U__vcrt_ptd@@U__crt_internal_free_policy@@@@QEAAPEAU__vcrt_ptd@@XZ 000000014004b0c4     libvcruntimed:per_thread_data.obj
 0002:000110c4       $unwind$?detach@?$__crt_unique_heap_ptr@PEAU__crt_stdio_stream_data@@U__crt_internal_free_policy@@@@QEAAPEAPEAU__crt_stdio_stream_data@@XZ 000000014004b0c4     libucrtd:_file.obj
 0002:000110c4       $unwind$?detach@?$__crt_unique_heap_ptr@DU__crt_public_free_policy@@@@QEAAPEADXZ 000000014004b0c4     libvcruntimed:std_exception.obj
 0002:000110c4       $unwind$?get@?$c_string_character_source@D@__crt_strtox@@QEAADXZ 000000014004b0c4     libucrtd:atox.obj
 0002:000110c4       $unwind$__acrt_get_locale_data_prefix 000000014004b0c4     libucrtd:debug_heap.obj
 0002:000110c4       $unwind$?what@exception@std@@UEBAPEBDXZ 000000014004b0c4     libvcruntimed:frame.obj
 0002:000110c4       $unwind$??$read_va_arg@H@__crt_stdio_output@@YAHAEAPEAD@Z 000000014004b0c4     libucrtd:output.obj
 0002:000110c4       $unwind$?__crt_interlocked_read_32@@YAHPEDH@Z 000000014004b0c4     libucrtd:exit.obj
 0002:000110c4       $unwind$??$read_va_arg@PEAUansi_string@?1??type_case_Z@?$output_processor@_WV?$string_output_adapter@_W@__crt_stdio_output@@V?$format_validation_base@_WV?$string_output_adapter@_W@__crt_stdio_output@@@2@@__crt_stdio_output@@AEAA_NXZ@@__crt_stdio_output@@YAPEAUansi_string@?1??type_case_Z@?$output_processor@_WV?$string_output_adapter@_W@__crt_stdio_output@@V?$format_validation_base@_WV?$string_output_adapter@_W@__crt_stdio_output@@@2@@0@AEAA_NXZ@AEAPEAD@Z 000000014004b0c4     libucrtd:output.obj
 0002:000110c4       $unwind$??$read_va_arg@PEAUansi_string@?1??type_case_Z@?$output_processor@DV?$string_output_adapter@D@__crt_stdio_output@@V?$format_validation_base@DV?$string_output_adapter@D@__crt_stdio_output@@@2@@__crt_stdio_output@@AEAA_NXZ@@__crt_stdio_output@@YAPEAUansi_string@?1??type_case_Z@?$output_processor@DV?$string_output_adapter@D@__crt_stdio_output@@V?$format_validation_base@DV?$string_output_adapter@D@__crt_stdio_output@@@2@@0@AEAA_NXZ@AEAPEAD@Z 000000014004b0c4     libucrtd:output.obj
 0002:000110c4       $unwind$??$read_va_arg@U_CRT_DOUBLE@@@__crt_stdio_output@@YA?AU_CRT_DOUBLE@@AEAPEAD@Z 000000014004b0c4     libucrtd:output.obj
 0002:000110c4       $unwind$??$read_va_arg@PEAX@__crt_stdio_output@@YAPEAXAEAPEAD@Z 000000014004b0c4     libucrtd:output.obj
 0002:000110c4       $unwind$??$read_va_arg@_J@__crt_stdio_output@@YA_JAEAPEAD@Z 000000014004b0c4     libucrtd:output.obj
 0002:000110c4       $unwind$?is_valid@?$__crt_unique_heap_ptr@U__vcrt_ptd@@U__crt_internal_free_policy@@@@QEBA_NXZ 000000014004b0c4     libvcruntimed:per_thread_data.obj
 0002:000110c4       $unwind$_CrtSetDumpClient  000000014004b0c4     libucrtd:debug_heap.obj
 0002:000110c4       $unwind$?is_second_surrogate@?A0xc60ee810@@YA_N_S@Z 000000014004b0c4     libucrtd:c16rtomb.obj
 0002:000110c4       $unwind$?__crt_fast_encode_pointer@@YA?AU__crt_fast_encoded_nullptr_t@@$$T@Z 000000014004b0c4     libvcruntimed:winapi_downlevel.obj
 0002:000110c4       $unwind$__acrt_should_sync_with_global_locale 000000014004b0c4     libucrtd:mbctype.obj
 0002:000110cc       $unwind$__isa_available_init 000000014004b0cc     LIBCMTD:cpu_disp.obj
 0002:000110e0       $xdatasym                  000000014004b0e0     LIBCMTD:guard_dispatch.obj
 0002:000110e4       $unwind$??$__InternalCxxFrameHandler@V__FrameHandler3@@@@YA?AW4_EXCEPTION_DISPOSITION@@PEAUEHExceptionRecord@@PEA_KPEAU_CONTEXT@@PEAU_xDISPATCHER_CONTEXT@@PEBU_s_FuncInfo@@H1E@Z 000000014004b0e4     libvcruntimed:frame.obj
 0002:000110e4       $unwind$?fp_format_e_internal@@YAHQEAD_KH_NIQEAU_strflt@@2QEAU__crt_locale_pointers@@@Z 000000014004b0e4     libucrtd:cvt.obj
 0002:000110e4       $unwind$??$common_vsnprintf_s@_W@@YAH_KQEA_W00QEB_WQEAU__crt_locale_pointers@@QEAD@Z 000000014004b0e4     libucrtd:output.obj
 0002:000110e4       $unwind$__C_specific_handler 000000014004b0e4     libvcruntimed:riscchandler.obj
 0002:000110e4       $unwind$__acrt_fp_format   000000014004b0e4     libucrtd:cvt.obj
 0002:000110e4       $unwind$??$common_vsnprintf_s@D@@YAH_KQEAD00QEBDQEAU__crt_locale_pointers@@1@Z 000000014004b0e4     libucrtd:output.obj
 0002:000110e4       $unwind$?realloc_dbg_nolock@@YAPEAXQEAXQEA_KHQEBDH_N@Z 000000014004b0e4     libucrtd:debug_heap.obj
 0002:000110ec       $unwind$??$extract_argument_from_va_list@_J_J@?$standard_base@DV?$string_output_adapter@D@__crt_stdio_output@@@__crt_stdio_output@@IEAA_NAEA_J@Z 000000014004b0ec     libucrtd:output.obj
 0002:000110ec       $unwind$??$extract_argument_from_va_list@I_J@?$standard_base@DV?$string_output_adapter@D@__crt_stdio_output@@@__crt_stdio_output@@IEAA_NAEA_J@Z 000000014004b0ec     libucrtd:output.obj
 0002:000110ec       $unwind$??$extract_argument_from_va_list@PEAUansi_string@?1??type_case_Z@?$output_processor@DV?$string_output_adapter@D@__crt_stdio_output@@V?$format_validation_base@DV?$string_output_adapter@D@__crt_stdio_output@@@2@@__crt_stdio_output@@AEAA_NXZ@PEAU1?1??234@AEAA_NXZ@@?$standard_base@DV?$string_output_adapter@D@__crt_stdio_output@@@__crt_stdio_output@@IEAA_NAEAPEAUansi_string@?1??type_case_Z@?$output_processor@DV?$string_output_adapter@D@__crt_stdio_output@@V?$format_validation_base@DV?$string_output_adapter@D@__crt_stdio_output@@@2@@1@AEAA_NXZ@@Z 000000014004b0ec     libucrtd:output.obj
 0002:000110ec       $unwind$??$?RU__crt_lowio_handle_data@@@__crt_internal_free_policy@@QEBAXQEBU__crt_lowio_handle_data@@@Z 000000014004b0ec     libucrtd:osfinfo.obj
 0002:000110ec       $unwind$??$extract_argument_from_va_list@PEAXPEAX@?$standard_base@_WV?$string_output_adapter@_W@__crt_stdio_output@@@__crt_stdio_output@@IEAA_NAEAPEAX@Z 000000014004b0ec     libucrtd:output.obj
 0002:000110ec       $unwind$??$tcspbrk@AEAPEADAEAY02$$CBD@?$__crt_char_traits@D@@SAPEADAEAPEADAEAY02$$CBD@Z 000000014004b0ec     libucrtd:argv_wildcards.obj
 0002:000110ec       $unwind$??$extract_argument_from_va_list@_W_W@?$standard_base@DV?$string_output_adapter@D@__crt_stdio_output@@@__crt_stdio_output@@IEAA_NAEA_W@Z 000000014004b0ec     libucrtd:output.obj
 0002:000110ec       $unwind$??$extract_argument_from_va_list@GD@?$standard_base@DV?$string_output_adapter@D@__crt_stdio_output@@@__crt_stdio_output@@IEAA_NAEAD@Z 000000014004b0ec     libucrtd:output.obj
 0002:000110ec       $unwind$??$extract_argument_from_va_list@PEAUansi_string@?1??type_case_Z@?$output_processor@_WV?$string_output_adapter@_W@__crt_stdio_output@@V?$format_validation_base@_WV?$string_output_adapter@_W@__crt_stdio_output@@@2@@__crt_stdio_output@@AEAA_NXZ@PEAU1?1??234@AEAA_NXZ@@?$standard_base@_WV?$string_output_adapter@_W@__crt_stdio_output@@@__crt_stdio_output@@IEAA_NAEAPEAUansi_string@?1??type_case_Z@?$output_processor@_WV?$string_output_adapter@_W@__crt_stdio_output@@V?$format_validation_base@_WV?$string_output_adapter@_W@__crt_stdio_output@@@2@@1@AEAA_NXZ@@Z 000000014004b0ec     libucrtd:output.obj
 0002:000110ec       $unwind$??$?RPEAU__crt_stdio_stream_data@@@__crt_internal_free_policy@@QEBAXQEBQEAU__crt_stdio_stream_data@@@Z 000000014004b0ec     libucrtd:_file.obj
 0002:000110ec       $unwind$??$?RP6AXXZ@__crt_internal_free_policy@@QEBAXQEBQ6AXXZ@Z 000000014004b0ec     libucrtd:onexit.obj
 0002:000110ec       $unwind$??$common_strnlen@$00G@@YA_KQEBG_K@Z 000000014004b0ec     libucrtd:strnlen.obj
 0002:000110ec       $unwind$??$?RU__acrt_ptd@@@__crt_internal_free_policy@@QEBAXQEBU__acrt_ptd@@@Z 000000014004b0ec     libucrtd:per_thread_data.obj
 0002:000110ec       $unwind$??$__crt_get_proc_address@P6AXI@Z@@YAP6AXI@ZQEAUHINSTANCE__@@QEBD@Z 000000014004b0ec     libucrtd:exit.obj
 0002:000110ec       $unwind$??$?RPEAD@__crt_internal_free_policy@@QEBAXQEBQEAD@Z 000000014004b0ec     libucrtd:argv_parsing.obj
 0002:000110ec       $unwind$??$?RD@__crt_internal_free_policy@@QEBAXQEBD@Z 000000014004b0ec     libvcruntimed:std_type_info.obj
 0002:000110ec       $unwind$??$common_strnlen@$0A@G@@YA_KQEBG_K@Z 000000014004b0ec     libucrtd:strnlen.obj
 0002:000110ec       $unwind$??$extract_argument_from_va_list@PEADPEAD@?$standard_base@_WV?$string_output_adapter@_W@__crt_stdio_output@@@__crt_stdio_output@@IEAA_NAEAPEAD@Z 000000014004b0ec     libucrtd:output.obj
 0002:000110ec       $unwind$??$common_strnlen@$0A@E@@YA_KQEBE_K@Z 000000014004b0ec     libucrtd:strnlen.obj
 0002:000110ec       $unwind$?previous_character@@YAPEADQEAD0@Z 000000014004b0ec     libucrtd:argv_wildcards.obj
 0002:000110ec       $unwind$??R<lambda_af27fe6ede5d83bbdbd622796c194e9c>@@QEBAXAEAPEAU__crt_multibyte_data@@@Z 000000014004b0ec     libucrtd:initialization.obj
 0002:000110ec       $unwind$??$extract_argument_from_va_list@PEAXPEAX@?$standard_base@DV?$string_output_adapter@D@__crt_stdio_output@@@__crt_stdio_output@@IEAA_NAEAPEAX@Z 000000014004b0ec     libucrtd:output.obj
 0002:000110ec       $unwind$__std_type_info_compare 000000014004b0ec     libvcruntimed:std_type_info.obj
 0002:000110ec       $unwind$?deallocate@__crt_win32_buffer_internal_dynamic_resizing@@SAXQEAXAEBV__crt_win32_buffer_empty_debug_info@@@Z 000000014004b0ec     libucrtd:argv_wildcards.obj
 0002:000110ec       $unwind$?end@HandlerMap@__FrameHandler3@@QEAA?AViterator@12@XZ 000000014004b0ec     libvcruntimed:frame.obj
 0002:000110ec       $unwind$??$?RD@__crt_public_free_policy@@QEBAXQEBD@Z 000000014004b0ec     libvcruntimed:std_exception.obj
 0002:000110ec       $unwind$??0bad_exception@std@@QEAA@AEBV01@@Z 000000014004b0ec     libvcruntimed:frame.obj
 0002:000110ec       $unwind$?<lambda_invoker_cdecl>@<lambda_a1ce4c8ae42411fd470c77163914f50e>@@CAHPEBX0@Z 000000014004b0ec     libucrtd:argv_wildcards.obj
 0002:000110ec       $unwind$??$?RU__vcrt_ptd@@@__crt_internal_free_policy@@QEBAXQEBU__vcrt_ptd@@@Z 000000014004b0ec     libvcruntimed:per_thread_data.obj
 0002:000110ec       $unwind$__acrt_expand_narrow_argv_wildcards 000000014004b0ec     libucrtd:argv_wildcards.obj
 0002:000110ec       $unwind$??$extract_argument_from_va_list@PEADPEAD@?$standard_base@DV?$string_output_adapter@D@__crt_stdio_output@@@__crt_stdio_output@@IEAA_NAEAPEAD@Z 000000014004b0ec     libucrtd:output.obj
 0002:000110ec       $unwind$?strpbrk@@YAPEADQEADQEBD@Z 000000014004b0ec     libucrtd:argv_wildcards.obj
 0002:000110ec       $unwind$??$extract_argument_from_va_list@_K_J@?$standard_base@DV?$string_output_adapter@D@__crt_stdio_output@@@__crt_stdio_output@@IEAA_NAEA_J@Z 000000014004b0ec     libucrtd:output.obj
 0002:000110ec       $unwind$??$extract_argument_from_va_list@C_J@?$standard_base@_WV?$string_output_adapter@_W@__crt_stdio_output@@@__crt_stdio_output@@IEAA_NAEA_J@Z 000000014004b0ec     libucrtd:output.obj
 0002:000110ec       $unwind$??$extract_argument_from_va_list@F_J@?$standard_base@_WV?$string_output_adapter@_W@__crt_stdio_output@@@__crt_stdio_output@@IEAA_NAEA_J@Z 000000014004b0ec     libucrtd:output.obj
 0002:000110ec       $unwind$??$extract_argument_from_va_list@G_J@?$standard_base@_WV?$string_output_adapter@_W@__crt_stdio_output@@@__crt_stdio_output@@IEAA_NAEA_J@Z 000000014004b0ec     libucrtd:output.obj
 0002:000110ec       $unwind$??$extract_argument_from_va_list@H_J@?$standard_base@_WV?$string_output_adapter@_W@__crt_stdio_output@@@__crt_stdio_output@@IEAA_NAEA_J@Z 000000014004b0ec     libucrtd:output.obj
 0002:000110ec       $unwind$??$extract_argument_from_va_list@G_J@?$standard_base@DV?$string_output_adapter@D@__crt_stdio_output@@@__crt_stdio_output@@IEAA_NAEA_J@Z 000000014004b0ec     libucrtd:output.obj
 0002:000110ec       $unwind$??$?RU__crt_multibyte_data@@@__crt_internal_free_policy@@QEBAXQEBU__crt_multibyte_data@@@Z 000000014004b0ec     libucrtd:wsetlocale.obj
 0002:000110ec       $unwind$?begin@HandlerMap@__FrameHandler3@@QEAA?AViterator@12@XZ 000000014004b0ec     libvcruntimed:frame.obj
 0002:000110ec       $unwind$??$extract_argument_from_va_list@F_J@?$standard_base@DV?$string_output_adapter@D@__crt_stdio_output@@@__crt_stdio_output@@IEAA_NAEA_J@Z 000000014004b0ec     libucrtd:output.obj
 0002:000110ec       $unwind$??$extract_argument_from_va_list@I_J@?$standard_base@_WV?$string_output_adapter@_W@__crt_stdio_output@@@__crt_stdio_output@@IEAA_NAEA_J@Z 000000014004b0ec     libucrtd:output.obj
 0002:000110ec       $unwind$??$extract_argument_from_va_list@E_J@?$standard_base@DV?$string_output_adapter@D@__crt_stdio_output@@@__crt_stdio_output@@IEAA_NAEA_J@Z 000000014004b0ec     libucrtd:output.obj
 0002:000110ec       $unwind$__acrt_update_multibyte_info 000000014004b0ec     libucrtd:locale_update.obj
 0002:000110ec       $unwind$??4?$__crt_unique_heap_ptr@DU__crt_internal_free_policy@@@@QEAAAEAV0@$$QEAV0@@Z 000000014004b0ec     libucrtd:output.obj
 0002:000110ec       $unwind$??R<lambda_363eea9039da1e8169e2d060c7fe5cbc>@@QEBAXAEAPEAU__crt_locale_data@@@Z 000000014004b0ec     libucrtd:wsetlocale.obj
 0002:000110ec       $unwind$??$extract_argument_from_va_list@_J_J@?$standard_base@_WV?$string_output_adapter@_W@__crt_stdio_output@@@__crt_stdio_output@@IEAA_NAEA_J@Z 000000014004b0ec     libucrtd:output.obj
 0002:000110ec       $unwind$?crop_zeroes@__crt_stdio_output@@YAXPEADQEAU__crt_locale_pointers@@@Z 000000014004b0ec     libucrtd:output.obj
 0002:000110ec       $unwind$??$?RE@__crt_internal_free_policy@@QEBAXQEBE@Z 000000014004b0ec     libucrtd:argv_parsing.obj
 0002:000110ec       $unwind$??$extract_argument_from_va_list@H_J@?$standard_base@DV?$string_output_adapter@D@__crt_stdio_output@@@__crt_stdio_output@@IEAA_NAEA_J@Z 000000014004b0ec     libucrtd:output.obj
 0002:000110ec       $unwind$?expand_argv_wildcards@@YAHQEAPEADQEAPEAPEAD@Z 000000014004b0ec     libucrtd:argv_parsing.obj
 0002:000110ec       $unwind$__acrt_update_locale_info 000000014004b0ec     libucrtd:locale_update.obj
 0002:000110ec       $unwind$strnlen            000000014004b0ec     libucrtd:strnlen.obj
 0002:000110ec       $unwind$??$extract_argument_from_va_list@_K_J@?$standard_base@_WV?$string_output_adapter@_W@__crt_stdio_output@@@__crt_stdio_output@@IEAA_NAEA_J@Z 000000014004b0ec     libucrtd:output.obj
 0002:000110ec       $unwind$wcsnlen            000000014004b0ec     libucrtd:strnlen.obj
 0002:000110ec       $unwind$??$extract_argument_from_va_list@_W_W@?$standard_base@_WV?$string_output_adapter@_W@__crt_stdio_output@@@__crt_stdio_output@@IEAA_NAEA_W@Z 000000014004b0ec     libucrtd:output.obj
 0002:000110ec       $unwind$_FindPESection     000000014004b0ec     LIBCMTD:pesect.obj
 0002:000110ec       $unwind$??3@YAXPEAX_K@Z    000000014004b0ec     LIBCMTD:delete_scalar_size.obj
 0002:000110ec       $unwind$?replace_current_thread_locale_nolock@@YAXQEAU__acrt_ptd@@QEAU__crt_locale_data@@@Z 000000014004b0ec     libucrtd:per_thread_data.obj
 0002:000110ec       $unwind$??$extract_argument_from_va_list@C_J@?$standard_base@DV?$string_output_adapter@D@__crt_stdio_output@@@__crt_stdio_output@@IEAA_NAEA_J@Z 000000014004b0ec     libucrtd:output.obj
 0002:000110ec       $unwind$??$extract_argument_from_va_list@E_J@?$standard_base@_WV?$string_output_adapter@_W@__crt_stdio_output@@@__crt_stdio_output@@IEAA_NAEA_J@Z 000000014004b0ec     libucrtd:output.obj
 0002:000110f8       $xdatasym                  000000014004b0f8     libvcruntimed:notify.obj
 0002:00011104       $unwind$__AdjustPointer    000000014004b104     libvcruntimed:ehhelpers.obj
 0002:00011104       $unwind$?initialize@?$dual_state_global@P6AXH@Z@__crt_state_management@@QEAAXQ6AXH@Z@Z 000000014004b104     libucrtd:signal.obj
 0002:00011104       $unwind$?compare_equals@?$__crt_simd_traits@$0A@G@@SA?AT__m128i@@T2@0@Z 000000014004b104     libucrtd:strnlen.obj
 0002:00011104       $unwind$?initialize@?$dual_state_global@PEAU__crt_locale_data@@@__crt_state_management@@QEAAXQEAU__crt_locale_data@@@Z 000000014004b104     libucrtd:initialization.obj
 0002:00011104       $unwind$??Miterator@TryBlockMap@__FrameHandler3@@QEBA_NAEBV012@@Z 000000014004b104     libvcruntimed:frame.obj
 0002:00011104       $unwind$??8iterator@HandlerMap@__FrameHandler3@@QEBA_NAEBV012@@Z 000000014004b104     libvcruntimed:frame.obj
 0002:00011104       $unwind$?compare_equals@?$__crt_simd_traits@$0A@E@@SA?AT__m128i@@T2@0@Z 000000014004b104     libucrtd:strnlen.obj
 0002:00011104       $unwind$?initialize@?$dual_state_global@P6AHPEAU_exception@@@Z@__crt_state_management@@QEAAXQ6AHPEAU_exception@@@Z@Z 000000014004b104     libucrtd:matherr.obj
 0002:00011104       $unwind$?store_first_surrogate@?A0xc60ee810@@YAX_SPEAU_Mbstatet@@@Z 000000014004b104     libucrtd:c16rtomb.obj
 0002:00011104       $unwind$?wcsncnt@@YA_KPEB_W_K@Z 000000014004b104     libucrtd:wcstombs.obj
 0002:00011104       $unwind$__strncnt          000000014004b104     libucrtd:strncnt.obj
 0002:00011104       $unwind$??8__crt_strtox@@YA_NAEBUbig_integer@0@0@Z 000000014004b104     libucrtd:cfout.obj
 0002:00011104       $unwind$?initialize@?$dual_state_global@PEAU__crt_multibyte_data@@@__crt_state_management@@QEAAXQEAU__crt_multibyte_data@@@Z 000000014004b104     libucrtd:mbctype.obj
 0002:00011104       $unwind$?initialize@?$dual_state_global@P6AH_K@Z@__crt_state_management@@QEAAXQ6AH_K@Z@Z 000000014004b104     libucrtd:new_handler.obj
 0002:00011104       $unwind$??$last_reached@$0A@@@YA_NQEBX0@Z 000000014004b104     libucrtd:strnlen.obj
 0002:0001110c       $unwind$__DestructExceptionObject 000000014004b10c     libvcruntimed:ehhelpers.obj
 0002:0001112c       $unwind$__vcrt_getptd_noexit 000000014004b12c     libvcruntimed:per_thread_data.obj
 0002:00011134       $unwind$??$translate_status@W4__acrt_fenv_abstract_status@@W4__acrt_fenv_machine_sse_status@@@@YA?AW4__acrt_fenv_abstract_status@@W4__acrt_fenv_machine_sse_status@@@Z 000000014004b134     libucrtd:_fenvutils.obj
 0002:00011134       $unwind$__acrt_FlsFree     000000014004b134     libucrtd:winapi_thunks.obj
 0002:00011134       $unwind$?set_machine_sse_status@@YAXW4__acrt_fenv_machine_sse_status@@@Z 000000014004b134     libucrtd:_fenvutils.obj
 0002:00011134       $unwind$??$translate_control_rounding_control@W4__acrt_fenv_machine_sse_control@@W4__acrt_fenv_abstract_control@@@@YA?AW4__acrt_fenv_machine_sse_control@@W4__acrt_fenv_abstract_control@@@Z 000000014004b134     libucrtd:_fenvutils.obj
 0002:00011134       $unwind$__acrt_uninitialize_lowio 000000014004b134     libucrtd:ioinit.obj
 0002:00011134       $unwind$__acrt_FlsGetValue 000000014004b134     libucrtd:winapi_thunks.obj
 0002:00011134       $unwind$__acrt_uninitialize_locks 000000014004b134     libucrtd:locks.obj
 0002:00011134       $unwind$?should_copy_another_character@@YA_ND@Z 000000014004b134     libucrtd:argv_parsing.obj
 0002:00011134       $unwind$?get_global_action_nolock@@YAPEAP6AXH@ZH@Z 000000014004b134     libucrtd:signal.obj
 0002:00011134       $unwind$_free_osfhnd       000000014004b134     libucrtd:osfinfo.obj
 0002:00011134       $unwind$__vcrt_FlsFree     000000014004b134     libvcruntimed:winapi_downlevel.obj
 0002:00011134       $unwind$?__acrt_fenv_shift_abstract_sse_control@@YA?AW4__acrt_fenv_abstract_control@@W41@@Z 000000014004b134     libucrtd:_fenvutils.obj
 0002:00011134       $unwind$?__acrt_fenv_unshift_abstract_sse_control@@YA?AW4__acrt_fenv_abstract_control@@W41@@Z 000000014004b134     libucrtd:_fenvutils.obj
 0002:00011134       $unwind$_set_errno_from_matherr 000000014004b134     libucrtd:fpexcept.obj
 0002:00011134       $unwind$??$get_win_policy@Uprocess_end_policy_properties@?1??__acrt_get_process_end_policy@@YA?AW4process_end_policy@@XZ@@@YA?AW4process_end_policy@@W4AppPolicyProcessTerminationMethod@@@Z 000000014004b134     libucrtd:win_policies.obj
 0002:00011134       $unwind$__acrt_errno_map_os_error 000000014004b134     libucrtd:errno.obj
 0002:00011134       $unwind$__vcrt_FlsGetValue 000000014004b134     libvcruntimed:winapi_downlevel.obj
 0002:00011134       $unwind$?should_copy_another_character@@YA_NE@Z 000000014004b134     libucrtd:argv_winmain.obj
 0002:00011134       $unwind$??$translate_control_exception_mask@W4__acrt_fenv_machine_sse_control@@W4__acrt_fenv_abstract_control@@@@YA?AW4__acrt_fenv_machine_sse_control@@W4__acrt_fenv_abstract_control@@@Z 000000014004b134     libucrtd:_fenvutils.obj
 0002:00011134       $unwind$?close_os_handle_nolock@@YAKH@Z 000000014004b134     libucrtd:close.obj
 0002:00011134       $unwind$_close_nolock      000000014004b134     libucrtd:close.obj
 0002:00011134       $unwind$??$translate_status@W4__acrt_fenv_machine_sse_status@@W4__acrt_fenv_abstract_status@@@@YA?AW4__acrt_fenv_machine_sse_status@@W4__acrt_fenv_abstract_status@@@Z 000000014004b134     libucrtd:_fenvutils.obj
 0002:00011134       $unwind$?translate_control_denormal_control_to_sse@@YA?AW4__acrt_fenv_machine_sse_control@@W4__acrt_fenv_abstract_control@@@Z 000000014004b134     libucrtd:_fenvutils.obj
 0002:00011134       $unwind$?to_machine_sse_control@@YA?AW4__acrt_fenv_machine_sse_control@@W4__acrt_fenv_abstract_control@@@Z 000000014004b134     libucrtd:_fenvutils.obj
 0002:0001113c       $unwind$__vcrt_FlsSetValue 000000014004b13c     libvcruntimed:winapi_downlevel.obj
 0002:0001113c       $unwind$?is_space@__crt_strtox@@YA_NDQEAU__crt_locale_pointers@@@Z 000000014004b13c     libucrtd:atox.obj
 0002:0001113c       $unwind$__acrt_FlsSetValue 000000014004b13c     libucrtd:winapi_thunks.obj
 0002:0001113c       $unwind$?has_any_of@__crt_stdio_stream@@QEBA_NJ@Z 000000014004b13c     libucrtd:_sftbuf.obj
 0002:0001113c       $unwind$?has_all_of@__crt_stdio_stream@@QEBA_NJ@Z 000000014004b13c     libucrtd:fflush.obj
 0002:0001113c       $unwind$_exception_enabled 000000014004b13c     libucrtd:libm_error.obj
 0002:0001113c       $unwind$__acrt_LocaleNameToLCID 000000014004b13c     libucrtd:winapi_thunks.obj
 0002:00011144       $unwind$__vcrt_InitializeCriticalSectionEx 000000014004b144     libvcruntimed:winapi_downlevel.obj
 0002:00011144       $unwind$__acrt_InitializeCriticalSectionEx 000000014004b144     libucrtd:winapi_thunks.obj
 0002:0001114c       $unwind$__acrt_get_parent_window 000000014004b14c     libucrtd:winapi_thunks.obj
 0002:0001114c       $unwind$__vcrt_initialize_winapi_thunks 000000014004b14c     libvcruntimed:winapi_downlevel.obj
 0002:0001114c       $unwind$__acrt_initialize_stdio 000000014004b14c     libucrtd:_file.obj
 0002:0001114c       $unwind$__acrt_initialize_winapi_thunks 000000014004b14c     libucrtd:winapi_thunks.obj
 0002:00011154       $unwind$__acrt_uninitialize_winapi_thunks 000000014004b154     libucrtd:winapi_thunks.obj
 0002:00011154       $unwind$??$get_cached_win_policy@Udeveloper_information_policy_properties@?1??__acrt_get_developer_information_policy@@YA?AW4developer_information_policy@@XZ@@@YA?AW4developer_information_policy@@W4AppPolicyShowDeveloperDiagnostic@@@Z 000000014004b154     libucrtd:win_policies.obj
 0002:00011154       $unwind$_set_fmode         000000014004b154     libucrtd:setmode.obj
 0002:00011154       $unwind$_get_osfhandle     000000014004b154     libucrtd:osfinfo.obj
 0002:00011154       $unwind$??$get_cached_win_policy@Uwindowing_model_policy_properties@?1??__acrt_get_windowing_model_policy@@YA?AW4windowing_model_policy@@XZ@@@YA?AW4windowing_model_policy@@W4AppPolicyWindowingModel@@@Z 000000014004b154     libucrtd:win_policies.obj
 0002:00011154       $unwind$_set_new_mode      000000014004b154     libucrtd:new_mode.obj
 0002:00011154       $unwind$?write_requires_double_translation_nolock@@YA_NH@Z 000000014004b154     libucrtd:write.obj
 0002:00011154       $unwind$__vcrt_uninitialize_winapi_thunks 000000014004b154     libvcruntimed:winapi_downlevel.obj
 0002:00011154       $unwind$_set_error_mode    000000014004b154     libucrtd:set_error_mode.obj
 0002:00011154       $unwind$?try_cor_exit_process@@YAXI@Z 000000014004b154     libucrtd:exit.obj
 0002:00011154       $unwind$_isatty            000000014004b154     libucrtd:isatty.obj
 0002:0001115c       $unwind$?try_get_module@@YAPEAUHINSTANCE__@@W4module_id@?A0x391cf84c@@@Z 000000014004b15c     libucrtd:winapi_thunks.obj
 0002:0001115c       $unwind$_configthreadlocale 000000014004b15c     libucrtd:wsetlocale.obj
 0002:0001115c       $unwind$_commit            000000014004b15c     libucrtd:commit.obj
 0002:0001115c       $unwind$?common_flush_all@@YAH_N@Z 000000014004b15c     libucrtd:fflush.obj
 0002:0001115c       $unwind$_close             000000014004b15c     libucrtd:close.obj
 0002:0001115c       $unwind$?try_get_module@@YAPEAUHINSTANCE__@@W4module_id@?A0xbfd18cd1@@@Z 000000014004b15c     libvcruntimed:winapi_downlevel.obj
 0002:00011164       $unwind$?try_get_proc_address_from_first_available_module@@YAPEAXQEBDQEBW4module_id@?A0xbfd18cd1@@1@Z 000000014004b164     libvcruntimed:winapi_downlevel.obj
 0002:00011164       $unwind$?StateFromIp@__FrameHandler3@@SAHPEBU_s_FuncInfo@@PEAU_xDISPATCHER_CONTEXT@@_K@Z 000000014004b164     libvcruntimed:ehstate.obj
 0002:00011164       $unwind$?allocate@__crt_win32_buffer_internal_dynamic_resizing@@SAHQEAPEAX_KAEBV__crt_win32_buffer_empty_debug_info@@@Z 000000014004b164     libucrtd:argv_wildcards.obj
 0002:00011164       $unwind$?type_case_s_compute_narrow_string_length@?$output_processor@_WV?$string_output_adapter@_W@__crt_stdio_output@@V?$format_validation_base@_WV?$string_output_adapter@_W@__crt_stdio_output@@@2@@__crt_stdio_output@@AEBAHH_W@Z 000000014004b164     libucrtd:output.obj
 0002:00011164       $unwind$?GetUnwindTryBlock@__FrameHandler3@@SAHPEA_KPEAU_xDISPATCHER_CONTEXT@@PEBU_s_FuncInfo@@@Z 000000014004b164     libvcruntimed:ehstate.obj
 0002:00011164       $unwind$?ExFilterRethrow@@YAHPEAU_EXCEPTION_POINTERS@@PEAUEHExceptionRecord@@PEAH@Z 000000014004b164     libvcruntimed:frame.obj
 0002:00011164       $unwind$?try_get_proc_address_from_first_available_module@@YAPEAXQEBDQEBW4module_id@?A0x391cf84c@@1@Z 000000014004b164     libucrtd:winapi_thunks.obj
 0002:00011164       $unwind$?common_lseek_do_seek_nolock@@YA_JQEAX_JH@Z 000000014004b164     libucrtd:lseek.obj
 0002:00011164       $unwind$?GetHandlerSearchState@__FrameHandler3@@SAHPEA_KPEAU_xDISPATCHER_CONTEXT@@PEBU_s_FuncInfo@@@Z 000000014004b164     libvcruntimed:frame.obj
 0002:00011164       $unwind$?_CallMemberFunction1@@YAXQEAX00@Z 000000014004b164     libvcruntimed:frame.obj
 0002:0001116c       $unwind$?try_get_function@@YAPEAXW4function_id@?A0xbfd18cd1@@QEBDQEBW4module_id@2@2@Z 000000014004b16c     libvcruntimed:winapi_downlevel.obj
 0002:0001116c       $unwind$?try_get_function@@YAPEAXW4function_id@?A0x391cf84c@@QEBDQEBW4module_id@2@2@Z 000000014004b16c     libucrtd:winapi_thunks.obj
 0002:0001116c       $unwind$_CrtDbgReportW     000000014004b16c     libucrtd:dbgrpt.obj
 0002:0001116c       $unwind$_call_matherr      000000014004b16c     libucrtd:libm_error.obj
 0002:0001116c       $unwind$_CrtDbgReport      000000014004b16c     libucrtd:dbgrpt.obj
 0002:00011174       $unwind$?write_string@?$string_output_adapter@D@__crt_stdio_output@@QEBAXQEBDHQEAHAEAV__crt_deferred_errno_cache@@@Z 000000014004b174     libucrtd:output.obj
 0002:00011174       $unwind$?write_string@?$string_output_adapter@_W@__crt_stdio_output@@QEBAXQEB_WHQEAHAEAV__crt_deferred_errno_cache@@@Z 000000014004b174     libucrtd:output.obj
 0002:00011174       $unwind$memcpy_s           000000014004b174     libucrtd:cfout.obj
 0002:00011174       $unwind$sprintf_s          000000014004b174     libvcruntimed:undname.obj
 0002:00011174       $unwind$??$parse_integer_from_string@J_WPEAPEA_W@__crt_strtox@@YAJQEB_WQEAPEA_WHQEAU__crt_locale_pointers@@@Z 000000014004b174     libucrtd:strtox.obj
 0002:00011174       $unwind$__stdio_common_vsnwprintf_s 000000014004b174     libucrtd:output.obj
 0002:00011174       $unwind$_vsprintf_s_l      000000014004b174     libvcruntimed:undname.obj
 0002:00011174       $unwind$??$parse_integer_from_string@JDPEAPEAD@__crt_strtox@@YAJQEBDQEAPEADHQEAU__crt_locale_pointers@@@Z 000000014004b174     libucrtd:strtox.obj
 0002:00011174       $unwind$__GSHandlerCheck_EH 000000014004b174     LIBCMTD:gshandlereh.obj
 0002:00011174       $unwind$__acrt_MessageBoxW 000000014004b174     libucrtd:winapi_thunks.obj
 0002:00011174       $unwind$__GSHandlerCheck_SEH 000000014004b174     LIBCMTD:gshandlerseh.obj
 0002:00011174       $unwind$__stdio_common_vsnprintf_s 000000014004b174     libucrtd:output.obj
 0002:00011174       $unwind$_snwprintf_s       000000014004b174     libucrtd:dbgrpt.obj
 0002:00011174       $unwind$_raise_exc         000000014004b174     libucrtd:fpexcept.obj
 0002:00011174       $unwind$??$parse_command_line@D@@YAXPEADPEAPEAD0PEA_K2@Z 000000014004b174     libucrtd:argv_parsing.obj
 0002:00011174       $unwind$_snprintf_s        000000014004b174     libucrtd:dbgrptt.obj
 0002:00011174       $unwind$memcpy_s           000000014004b174     libucrtd:mbctype.obj
 0002:00011180       $xdatasym                  000000014004b180     libvcruntimed:memcpy.obj
 0002:00011190       $unwind$??$__acrt_lowio_lock_fh_and_call@V<lambda_4e7105787b7b0e0227fbf2b2d883fa65>@@@@YAHH$$QEAV<lambda_4e7105787b7b0e0227fbf2b2d883fa65>@@@Z 000000014004b190     libucrtd:close.obj
 0002:00011190       $unwind$??$__acrt_lock_and_call@V<lambda_d121dba8a4adeaf3a9819e48611155df>@@@@YAHW4__acrt_lock_id@@$$QEAV<lambda_d121dba8a4adeaf3a9819e48611155df>@@@Z 000000014004b190     libucrtd:onexit.obj
 0002:00011190       $unwind$??$__acrt_lock_and_call@V<lambda_3b83eb014488ad801d84acef5aaf14d3>@@@@YAHW4__acrt_lock_id@@$$QEAV<lambda_3b83eb014488ad801d84acef5aaf14d3>@@@Z 000000014004b190     libucrtd:onexit.obj
 0002:00011190       $unwind$??$__acrt_lock_and_call@V<lambda_3e16ef9562a7dcce91392c22ab16ea36>@@@@YAXW4__acrt_lock_id@@$$QEAV<lambda_3e16ef9562a7dcce91392c22ab16ea36>@@@Z 000000014004b190     libucrtd:wsetlocale.obj
 0002:00011190       $unwind$??$__acrt_lowio_lock_fh_and_call@V<lambda_5533cddd4bda0037814beee657757329>@@@@YAHH$$QEAV<lambda_5533cddd4bda0037814beee657757329>@@@Z 000000014004b190     libucrtd:commit.obj
 0002:00011190       $unwind$??$__acrt_lock_and_call@V<lambda_6e4b09c48022b2350581041d5f6b0c4c>@@@@YAXW4__acrt_lock_id@@$$QEAV<lambda_6e4b09c48022b2350581041d5f6b0c4c>@@@Z 000000014004b190     libucrtd:exit.obj
 0002:00011190       $unwind$??$__acrt_lock_and_call@V<lambda_44731a7d0e6d81c3e6aa82d741081786>@@@@YAP6AXH@ZW4__acrt_lock_id@@$$QEAV<lambda_44731a7d0e6d81c3e6aa82d741081786>@@@Z 000000014004b190     libucrtd:signal.obj
 0002:00011190       $unwind$??$__acrt_lock_and_call@V<lambda_92619d2358a28f41a33ba319515a20b9>@@@@YAXW4__acrt_lock_id@@$$QEAV<lambda_92619d2358a28f41a33ba319515a20b9>@@@Z 000000014004b190     libucrtd:per_thread_data.obj
 0002:00011190       $unwind$??$__acrt_lock_and_call@V<lambda_ab61a845afdef5b7c387490eaf3616ee>@@@@YAXW4__acrt_lock_id@@$$QEAV<lambda_ab61a845afdef5b7c387490eaf3616ee>@@@Z 000000014004b190     libucrtd:fflush.obj
 0002:00011190       $unwind$??$__acrt_lock_and_call@V<lambda_8f455de75cd7d7f24b4096f044d8b9e6>@@@@YAXW4__acrt_lock_id@@$$QEAV<lambda_8f455de75cd7d7f24b4096f044d8b9e6>@@@Z 000000014004b190     libucrtd:per_thread_data.obj
 0002:00011190       $unwind$?state_case_normal_tchar@?$output_processor@DV?$string_output_adapter@D@__crt_stdio_output@@V?$format_validation_base@DV?$string_output_adapter@D@__crt_stdio_output@@@2@@__crt_stdio_output@@AEAA_ND@Z 000000014004b190     libucrtd:output.obj
 0002:00011190       $unwind$??$__acrt_lock_and_call@V<lambda_bd5a608237428601b7e45fbdc72b1ae8>@@@@YAXW4__acrt_lock_id@@$$QEAV<lambda_bd5a608237428601b7e45fbdc72b1ae8>@@@Z 000000014004b190     libucrtd:mbctype.obj
 0002:00011190       $unwind$?CatchTryBlock@__FrameHandler3@@SAPEBU_s_TryBlockMapEntry@@PEBU_s_FuncInfo@@H@Z 000000014004b190     libvcruntimed:risctrnsctrl.obj
 0002:00011190       $unwind$?unget@?$c_string_character_source@D@__crt_strtox@@QEAAXD@Z 000000014004b190     libucrtd:atox.obj
 0002:00011190       $unwind$??$__acrt_lock_and_call@V<lambda_e157831efee4ea0afb0a2ace5dd5fd0d>@@@@YAXW4__acrt_lock_id@@$$QEAV<lambda_e157831efee4ea0afb0a2ace5dd5fd0d>@@@Z 000000014004b190     libucrtd:per_thread_data.obj
 0002:00011190       $unwind$??$__acrt_lock_and_call@V<lambda_8d0ee55de4b1038c4002e0adecdf1839>@@@@YAXW4__acrt_lock_id@@$$QEAV<lambda_8d0ee55de4b1038c4002e0adecdf1839>@@@Z 000000014004b190     libucrtd:per_thread_data.obj
 0002:00011190       $unwind$?type_case_c_tchar@?$output_processor@DV?$string_output_adapter@D@__crt_stdio_output@@V?$format_validation_base@DV?$string_output_adapter@D@__crt_stdio_output@@@2@@__crt_stdio_output@@AEAA_ND@Z 000000014004b190     libucrtd:output.obj
 0002:00011198       $unwind$?FrameUnwindToEmptyState@__FrameHandler3@@SAXPEA_KPEAU_xDISPATCHER_CONTEXT@@PEBU_s_FuncInfo@@@Z 000000014004b198     libvcruntimed:risctrnsctrl.obj
 0002:00011198       $unwind$?find_next_state@?$output_processor@_WV?$string_output_adapter@_W@__crt_stdio_output@@V?$format_validation_base@_WV?$string_output_adapter@_W@__crt_stdio_output@@@2@@__crt_stdio_output@@AEBA?AW4state@2@_WW432@@Z 000000014004b198     libucrtd:output.obj
 0002:00011198       $unwind$??$common_show_message_box@_W@@YAHQEB_W0I@Z 000000014004b198     libucrtd:crtmbox.obj
 0002:000111a0       $unwind$_vsnprintf_s_l     000000014004b1a0     libucrtd:dbgrptt.obj
 0002:000111a0       $unwind$??$type_case_integer_parse_into_buffer@_K@?$output_processor@DV?$string_output_adapter@D@__crt_stdio_output@@V?$format_validation_base@DV?$string_output_adapter@D@__crt_stdio_output@@@2@@__crt_stdio_output@@AEAAX_KI_N@Z 000000014004b1a0     libucrtd:output.obj
 0002:000111a0       $unwind$_raise_exc_ex      000000014004b1a0     libucrtd:fpexcept.obj
 0002:000111a0       $unwind$_vsnwprintf_s_l    000000014004b1a0     libucrtd:dbgrpt.obj
 0002:000111a0       $unwind$??$__acrt_convert_wcs_mbs_cp@_WDV<lambda_d8593a27d1aa8c02be35c86a17d324c4>@@U__crt_win32_buffer_internal_dynamic_resizing@@@@YAHQEB_WAEAV?$__crt_win32_buffer@DU__crt_win32_buffer_internal_dynamic_resizing@@@@AEBV<lambda_d8593a27d1aa8c02be35c86a17d324c4>@@I@Z 000000014004b1a0     libucrtd:argv_wildcards.obj
 0002:000111a0       $unwind$??$__acrt_convert_wcs_mbs_cp@D_WV<lambda_7c9dea7b4ca7285d2cdb541a38da6275>@@U__crt_win32_buffer_internal_dynamic_resizing@@@@YAHQEBDAEAV?$__crt_win32_buffer@_WU__crt_win32_buffer_internal_dynamic_resizing@@@@AEBV<lambda_7c9dea7b4ca7285d2cdb541a38da6275>@@I@Z 000000014004b1a0     libucrtd:argv_wildcards.obj
 0002:000111a0       $unwind$??$__acrt_convert_wcs_mbs_cp@_WDV<lambda_f788ae46380686e8b737efdd8c720d07>@@U__crt_win32_buffer_no_resizing@@@@YAHQEB_WAEAV?$__crt_win32_buffer@DU__crt_win32_buffer_no_resizing@@@@AEBV<lambda_f788ae46380686e8b737efdd8c720d07>@@I@Z 000000014004b1a0     libucrtd:getmodulefilenamea.obj
 0002:000111a0       $unwind$_invalid_parameter 000000014004b1a0     libucrtd:invalid_parameter.obj
 0002:000111a0       $unwind$??$SehTransFilter@V__FrameHandler3@@@@YAHPEAU_EXCEPTION_POINTERS@@PEAUEHExceptionRecord@@PEA_KPEAU_CONTEXT@@PEAU_xDISPATCHER_CONTEXT@@PEBU_s_FuncInfo@@PEAH@Z 000000014004b1a0     libvcruntimed:risctrnsctrl.obj
 0002:000111a0       $unwind$?GetEstablisherFrame@__FrameHandler3@@SAPEA_KPEA_KPEAU_xDISPATCHER_CONTEXT@@PEBU_s_FuncInfo@@0@Z 000000014004b1a0     libvcruntimed:risctrnsctrl.obj
 0002:000111a0       $unwind$_recalloc_dbg      000000014004b1a0     libucrtd:debug_heap.obj
 0002:000111a0       $unwind$??$type_case_integer_parse_into_buffer@_K@?$output_processor@_WV?$string_output_adapter@_W@__crt_stdio_output@@V?$format_validation_base@_WV?$string_output_adapter@_W@__crt_stdio_output@@@2@@__crt_stdio_output@@AEAAX_KI_N@Z 000000014004b1a0     libucrtd:output.obj
 0002:000111a8       $unwind$?UnwindNestedFrames@__FrameHandler3@@SAXPEA_KPEAUEHExceptionRecord@@PEAU_CONTEXT@@0PEAXPEBU_s_FuncInfo@@HHPEBU_s_HandlerType@@PEAU_xDISPATCHER_CONTEXT@@E@Z 000000014004b1a8     libvcruntimed:risctrnsctrl.obj
 0002:000111bc       $unwind$?GetRangeOfTrysToCheck@__FrameHandler3@@SA?AU?$pair@Viterator@TryBlockMap@__FrameHandler3@@V123@@std@@AEAVTryBlockMap@1@HH@Z 000000014004b1bc     libvcruntimed:risctrnsctrl.obj
 0002:000111bc       $unwind$__acrt_LCMapStringA 000000014004b1bc     libucrtd:lcmapstringa.obj
 0002:000111c4       $unwind$__CxxFrameHandler3 000000014004b1c4     libvcruntimed:risctrnsctrl.obj
 0002:000111cc       $unwind$??$_CallSETranslator@V__FrameHandler3@@@@YAHPEAUEHExceptionRecord@@PEA_KPEAU_CONTEXT@@PEAU_xDISPATCHER_CONTEXT@@PEBU_s_FuncInfo@@K1@Z 000000014004b1cc     libvcruntimed:risctrnsctrl.obj
 0002:000111ec       $unwind$_CrtMemCheckpoint$fin$0 000000014004b1ec     libucrtd:debug_heap.obj
 0002:000111ec       $unwind$?filt$0@?0???$_CallSETranslator@V__FrameHandler3@@@@YAHPEAUEHExceptionRecord@@PEA_KPEAU_CONTEXT@@PEAU_xDISPATCHER_CONTEXT@@PEBU_s_FuncInfo@@K1@Z@4HA 000000014004b1ec     libvcruntimed:risctrnsctrl.obj
 0002:000111ec       $unwind$_VCrtDbgReportA$fin$1 000000014004b1ec     libucrtd:dbgrptt.obj
 0002:000111ec       $unwind$?fin$0@?0??heap_alloc_dbg_internal@@YAPEAX_KHQEBDH@Z@4HA 000000014004b1ec     libucrtd:debug_heap.obj
 0002:000111ec       $unwind$_VCrtDbgReportW$fin$1 000000014004b1ec     libucrtd:dbgrptt.obj
 0002:000111ec       $unwind$_VCrtDbgReportA$fin$0 000000014004b1ec     libucrtd:dbgrptt.obj
 0002:000111ec       $unwind$_VCrtDbgReportW$fin$0 000000014004b1ec     libucrtd:dbgrptt.obj
 0002:000111f4       $unwind$??$?0AEAViterator@TryBlockMap@__FrameHandler3@@AEAV012@$0A@@?$pair@Viterator@TryBlockMap@__FrameHandler3@@V123@@std@@QEAA@AEAViterator@TryBlockMap@__FrameHandler3@@0@Z 000000014004b1f4     libvcruntimed:risctrnsctrl.obj
 0002:00011200       $unwind$strcat_s           000000014004b200     libucrtd:strcat_s.obj
 0002:00011200       $unwind$??$tcstol@PEB_WPEAPEA_WH@?$__crt_char_traits@_W@@SAJ$$QEAPEB_W$$QEAPEAPEA_W$$QEAH@Z 000000014004b200     libucrtd:output.obj
 0002:00011200       $unwind$??$tcstol@PEBDPEAPEADH@?$__crt_char_traits@D@@SAJ$$QEAPEBD$$QEAPEAPEAD$$QEAH@Z 000000014004b200     libucrtd:output.obj
 0002:00011200       $unwind$wcstol             000000014004b200     libucrtd:strtox.obj
 0002:00011200       $unwind$?allocate@__crt_win32_buffer_no_resizing@@SAHQEAPEAX_KAEBV__crt_win32_buffer_empty_debug_info@@@Z 000000014004b200     libucrtd:getmodulefilenamea.obj
 0002:00011200       $unwind$strtol             000000014004b200     libucrtd:strtox.obj
 0002:00011200       $unwind$??$make_c_string_character_source@DPEAPEAD@__crt_strtox@@YA?AV?$c_string_character_source@D@0@QEBDQEAPEAD@Z 000000014004b200     libucrtd:strtox.obj
 0002:00011200       $unwind$strcpy_s           000000014004b200     libucrtd:strcpy_s.obj
 0002:00011200       $unwind$??$make_c_string_character_source@_WPEAPEA_W@__crt_strtox@@YA?AV?$c_string_character_source@_W@0@QEB_WQEAPEA_W@Z 000000014004b200     libucrtd:strtox.obj
 0002:00011200       $unwind$??$get_module_file_name@AEAPEAUHINSTANCE__@@AEAY0BAF@DK@?$__crt_char_traits@D@@SAKAEAPEAUHINSTANCE__@@AEAY0BAF@D$$QEAK@Z 000000014004b200     libucrtd:dbgrpt.obj
 0002:00011200       $unwind$__acrt_show_wide_message_box 000000014004b200     libucrtd:crtmbox.obj
 0002:00011200       $unwind$??$tcscpy_s@AEAY0BAF@D_KPEBD@?$__crt_char_traits@D@@SAHAEAY0BAF@D$$QEA_K$$QEAPEBD@Z 000000014004b200     libucrtd:dbgrpt.obj
 0002:00011200       $unwind$mbtowc             000000014004b200     libucrtd:mbtowc.obj
 0002:00011200       $unwind$??$get_module_file_name@$$TAEAY0BAF@DH@?$__crt_char_traits@D@@SAK$$QEA$$TAEAY0BAF@D$$QEAH@Z 000000014004b200     libucrtd:argv_parsing.obj
 0002:00011200       $unwind$wcscpy_s           000000014004b200     libucrtd:wcscpy_s.obj
 0002:00011200       $unwind$??$get_module_file_name@AEAPEAUHINSTANCE__@@AEAY0BAF@_WK@?$__crt_char_traits@_W@@SAKAEAPEAUHINSTANCE__@@AEAY0BAF@_W$$QEAK@Z 000000014004b200     libucrtd:dbgrpt.obj
 0002:00011200       $unwind$??$tcscpy_s@AEAY0BAF@_W_KPEB_W@?$__crt_char_traits@_W@@SAHAEAY0BAF@_W$$QEA_K$$QEAPEB_W@Z 000000014004b200     libucrtd:dbgrpt.obj
 0002:00011200       $unwind$__TypeMatch        000000014004b200     libvcruntimed:frame.obj
 0002:00011200       $unwind$?TypeMatch@__FrameHandler3@@SAHPEBU_s_HandlerType@@PEBU_s_CatchableType@@PEBU_s_ThrowInfo@@@Z 000000014004b200     libvcruntimed:frame.obj
 0002:00011200       $unwind$?GetCurrentState@__FrameHandler3@@SAHPEA_KPEAU_xDISPATCHER_CONTEXT@@PEBU_s_FuncInfo@@@Z 000000014004b200     libvcruntimed:ehstate.obj
 0002:00011200       $unwind$wcscat_s           000000014004b200     libucrtd:wcscat_s.obj
